GAS LISTING /tmp/cc1982Ql.s 			page 1


   1              		.file	"ConsumerProducer_C_API_test.cpp"
   2              		.option pic
   3              		.option norelax
   4              		.text
   5              	.Ltext0:
   6              		.section	.rodata.str1.8,"aMS",@progbits,1
   7              		.align	3
   8              	.LC0:
   9 0000 454E4431 		.string	"END1\n"
   9      0A00
  10 0006 0000     		.align	3
  11              	.LC1:
  12 0008 454E4432 		.string	"END2\n"
  12      0A00
  13              		.text
  14              		.align	2
  16              	_ZL16producerKeyboardPv:
  17              	.LFB0:
  18              		.file 1 "test/ConsumerProducer_C_API_test.cpp"
   1:test/ConsumerProducer_C_API_test.cpp **** 
   2:test/ConsumerProducer_C_API_test.cpp **** #include "../h/syscall_c.h"
   3:test/ConsumerProducer_C_API_test.cpp **** #include "../test/ConsumerProducer_C_API_test.hpp"
   4:test/ConsumerProducer_C_API_test.cpp **** 
   5:test/ConsumerProducer_C_API_test.cpp **** #include "../h/buffer.hpp"
   6:test/ConsumerProducer_C_API_test.cpp **** 
   7:test/ConsumerProducer_C_API_test.cpp **** static sem_t waitForAll;
   8:test/ConsumerProducer_C_API_test.cpp **** 
   9:test/ConsumerProducer_C_API_test.cpp **** struct thread_data {
  10:test/ConsumerProducer_C_API_test.cpp ****     int id;
  11:test/ConsumerProducer_C_API_test.cpp ****     Buffer *buffer;
  12:test/ConsumerProducer_C_API_test.cpp ****     sem_t wait;
  13:test/ConsumerProducer_C_API_test.cpp **** };
  14:test/ConsumerProducer_C_API_test.cpp **** 
  15:test/ConsumerProducer_C_API_test.cpp **** static volatile int threadEnd = 0;
  16:test/ConsumerProducer_C_API_test.cpp **** 
  17:test/ConsumerProducer_C_API_test.cpp **** static void producerKeyboard(void *arg) {
  19              		.loc 1 17 41
  20              		.cfi_startproc
  21              	.LVL0:
  22 0000 130101FE 		addi	sp,sp,-32
  23              		.cfi_def_cfa_offset 32
  24 0004 233C1100 		sd	ra,24(sp)
  25 0008 23388100 		sd	s0,16(sp)
  26 000c 23349100 		sd	s1,8(sp)
  27 0010 23302101 		sd	s2,0(sp)
  28              		.cfi_offset 1, -8
  29              		.cfi_offset 8, -16
  30              		.cfi_offset 9, -24
  31              		.cfi_offset 18, -32
  32 0014 13040102 		addi	s0,sp,32
  33              		.cfi_def_cfa 8, 0
  34 0018 93040500 		mv	s1,a0
  18:test/ConsumerProducer_C_API_test.cpp ****     struct thread_data *data = (struct thread_data *) arg;
  35              		.loc 1 18 5
  36              	.LVL1:
  19:test/ConsumerProducer_C_API_test.cpp **** 
  20:test/ConsumerProducer_C_API_test.cpp ****     int key;
GAS LISTING /tmp/cc1982Ql.s 			page 2


  37              		.loc 1 20 5
  21:test/ConsumerProducer_C_API_test.cpp ****     int i = 0;
  38              		.loc 1 21 5
  39              		.loc 1 21 9 is_stmt 0
  40 001c 13090000 		li	s2,0
  41 0020 6F00C000 		j	.L2
  42              	.LVL2:
  43              	.L6:
  22:test/ConsumerProducer_C_API_test.cpp ****     while ((key = getc()) != '`') {//bilo 0x1b
  23:test/ConsumerProducer_C_API_test.cpp ****         data->buffer->put(key);
  24:test/ConsumerProducer_C_API_test.cpp ****         i++;
  25:test/ConsumerProducer_C_API_test.cpp **** 
  26:test/ConsumerProducer_C_API_test.cpp ****         if (i % (10 * data->id) == 0) {
  27:test/ConsumerProducer_C_API_test.cpp ****             thread_dispatch();
  44              		.loc 1 27 13 is_stmt 1
  45              		.loc 1 27 28 is_stmt 0
  46 0024 97000000 		call	_Z15thread_dispatchv@plt
  46      E7800000 
  47              	.LVL3:
  48              	.L2:
  22:test/ConsumerProducer_C_API_test.cpp ****     while ((key = getc()) != '`') {//bilo 0x1b
  49              		.loc 1 22 5 is_stmt 1
  22:test/ConsumerProducer_C_API_test.cpp ****     while ((key = getc()) != '`') {//bilo 0x1b
  50              		.loc 1 22 27
  22:test/ConsumerProducer_C_API_test.cpp ****     while ((key = getc()) != '`') {//bilo 0x1b
  51              		.loc 1 22 23 is_stmt 0
  52 002c 97000000 		call	_Z4getcv@plt
  52      E7800000 
  53              	.LVL4:
  22:test/ConsumerProducer_C_API_test.cpp ****     while ((key = getc()) != '`') {//bilo 0x1b
  54              		.loc 1 22 17
  55 0034 9B050500 		sext.w	a1,a0
  56              	.LVL5:
  22:test/ConsumerProducer_C_API_test.cpp ****     while ((key = getc()) != '`') {//bilo 0x1b
  57              		.loc 1 22 27
  58 0038 93070006 		li	a5,96
  59 003c 638AF502 		beq	a1,a5,.L3
  23:test/ConsumerProducer_C_API_test.cpp ****         i++;
  60              		.loc 1 23 9 is_stmt 1
  23:test/ConsumerProducer_C_API_test.cpp ****         i++;
  61              		.loc 1 23 26 is_stmt 0
  62 0040 03B58400 		ld	a0,8(s1)
  63 0044 97000000 		call	_ZN6Buffer3putEi@plt
  63      E7800000 
  64              	.LVL6:
  24:test/ConsumerProducer_C_API_test.cpp **** 
  65              		.loc 1 24 9 is_stmt 1
  24:test/ConsumerProducer_C_API_test.cpp **** 
  66              		.loc 1 24 10 is_stmt 0
  67 004c 1B071900 		addiw	a4,s2,1
  68 0050 1B090700 		sext.w	s2,a4
  69              	.LVL7:
  26:test/ConsumerProducer_C_API_test.cpp ****             thread_dispatch();
  70              		.loc 1 26 9 is_stmt 1
  26:test/ConsumerProducer_C_API_test.cpp ****             thread_dispatch();
  71              		.loc 1 26 29 is_stmt 0
  72 0054 83A60400 		lw	a3,0(s1)
GAS LISTING /tmp/cc1982Ql.s 			page 3


  26:test/ConsumerProducer_C_API_test.cpp ****             thread_dispatch();
  73              		.loc 1 26 21
  74 0058 9B972600 		slliw	a5,a3,2
  75 005c BB87D700 		addw	a5,a5,a3
  76 0060 9B971700 		slliw	a5,a5,1
  26:test/ConsumerProducer_C_API_test.cpp ****             thread_dispatch();
  77              		.loc 1 26 15
  78 0064 BB67F702 		remw	a5,a4,a5
  26:test/ConsumerProducer_C_API_test.cpp ****             thread_dispatch();
  79              		.loc 1 26 9
  80 0068 E39207FC 		bnez	a5,.L2
  81 006c 6FF09FFB 		j	.L6
  82              	.LVL8:
  83              	.L3:
  28:test/ConsumerProducer_C_API_test.cpp ****         }
  29:test/ConsumerProducer_C_API_test.cpp ****     }
  30:test/ConsumerProducer_C_API_test.cpp **** 
  31:test/ConsumerProducer_C_API_test.cpp **** 
  32:test/ConsumerProducer_C_API_test.cpp ****     threadEnd = 1;
  84              		.loc 1 32 5 is_stmt 1
  85              		.loc 1 32 15 is_stmt 0
  86 0070 93071000 		li	a5,1
  87 0074 17070000 		sw	a5,.LANCHOR0,a4
  87      2320F700 
  33:test/ConsumerProducer_C_API_test.cpp ****     printString("END1\n");
  88              		.loc 1 33 5 is_stmt 1
  89              		.loc 1 33 16 is_stmt 0
  90 007c 17050000 		lla	a0,.LC0
  90      13050500 
  91 0084 97000000 		call	_Z11printStringPKc@plt
  91      E7800000 
  92              	.LVL9:
  34:test/ConsumerProducer_C_API_test.cpp ****     data->buffer->put('!');
  93              		.loc 1 34 5 is_stmt 1
  94              		.loc 1 34 22 is_stmt 0
  95 008c 93051002 		li	a1,33
  96 0090 03B58400 		ld	a0,8(s1)
  97 0094 97000000 		call	_ZN6Buffer3putEi@plt
  97      E7800000 
  98              	.LVL10:
  35:test/ConsumerProducer_C_API_test.cpp ****     printString("END2\n");
  99              		.loc 1 35 5 is_stmt 1
 100              		.loc 1 35 16 is_stmt 0
 101 009c 17050000 		lla	a0,.LC1
 101      13050500 
 102 00a4 97000000 		call	_Z11printStringPKc@plt
 102      E7800000 
 103              	.LVL11:
  36:test/ConsumerProducer_C_API_test.cpp **** 
  37:test/ConsumerProducer_C_API_test.cpp ****     sem_signal(data->wait);
 104              		.loc 1 37 5 is_stmt 1
 105              		.loc 1 37 15 is_stmt 0
 106 00ac 03B50401 		ld	a0,16(s1)
 107 00b0 97000000 		call	_Z10sem_signalP4_sem@plt
 107      E7800000 
 108              	.LVL12:
  38:test/ConsumerProducer_C_API_test.cpp **** }
GAS LISTING /tmp/cc1982Ql.s 			page 4


 109              		.loc 1 38 1
 110 00b8 83308101 		ld	ra,24(sp)
 111              		.cfi_restore 1
 112 00bc 03340101 		ld	s0,16(sp)
 113              		.cfi_restore 8
 114              		.cfi_def_cfa 2, 32
 115 00c0 83348100 		ld	s1,8(sp)
 116              		.cfi_restore 9
 117              	.LVL13:
 118 00c4 03390100 		ld	s2,0(sp)
 119              		.cfi_restore 18
 120              	.LVL14:
 121 00c8 13010102 		addi	sp,sp,32
 122              		.cfi_def_cfa_offset 0
 123 00cc 67800000 		jr	ra
 124              		.cfi_endproc
 125              	.LFE0:
 127              		.align	2
 129              	_ZL8producerPv:
 130              	.LFB1:
  39:test/ConsumerProducer_C_API_test.cpp **** 
  40:test/ConsumerProducer_C_API_test.cpp **** static void producer(void *arg) {
 131              		.loc 1 40 33 is_stmt 1
 132              		.cfi_startproc
 133              	.LVL15:
 134 00d0 130101FE 		addi	sp,sp,-32
 135              		.cfi_def_cfa_offset 32
 136 00d4 233C1100 		sd	ra,24(sp)
 137 00d8 23388100 		sd	s0,16(sp)
 138 00dc 23349100 		sd	s1,8(sp)
 139 00e0 23302101 		sd	s2,0(sp)
 140              		.cfi_offset 1, -8
 141              		.cfi_offset 8, -16
 142              		.cfi_offset 9, -24
 143              		.cfi_offset 18, -32
 144 00e4 13040102 		addi	s0,sp,32
 145              		.cfi_def_cfa 8, 0
 146 00e8 93040500 		mv	s1,a0
  41:test/ConsumerProducer_C_API_test.cpp ****     struct thread_data *data = (struct thread_data *) arg;
 147              		.loc 1 41 5
 148              	.LVL16:
  42:test/ConsumerProducer_C_API_test.cpp **** 
  43:test/ConsumerProducer_C_API_test.cpp ****     int i = 0;
 149              		.loc 1 43 5
 150              		.loc 1 43 9 is_stmt 0
 151 00ec 13090000 		li	s2,0
 152 00f0 6F00C000 		j	.L8
 153              	.LVL17:
 154              	.L12:
  44:test/ConsumerProducer_C_API_test.cpp ****     while (!threadEnd) {
  45:test/ConsumerProducer_C_API_test.cpp ****         data->buffer->put(data->id + '0');
  46:test/ConsumerProducer_C_API_test.cpp ****         i++;
  47:test/ConsumerProducer_C_API_test.cpp **** 
  48:test/ConsumerProducer_C_API_test.cpp ****         if (i % (10 * data->id) == 0) {
  49:test/ConsumerProducer_C_API_test.cpp ****             thread_dispatch();
 155              		.loc 1 49 13 is_stmt 1
 156              		.loc 1 49 28 is_stmt 0
GAS LISTING /tmp/cc1982Ql.s 			page 5


 157 00f4 97000000 		call	_Z15thread_dispatchv@plt
 157      E7800000 
 158              	.LVL18:
 159              	.L8:
  44:test/ConsumerProducer_C_API_test.cpp ****     while (!threadEnd) {
 160              		.loc 1 44 5 is_stmt 1
  44:test/ConsumerProducer_C_API_test.cpp ****     while (!threadEnd) {
 161              		.loc 1 44 12
 162 00fc 97070000 		lw	a5,.LANCHOR0
 162      83A70700 
 163 0104 639E0702 		bnez	a5,.L9
  45:test/ConsumerProducer_C_API_test.cpp ****         i++;
 164              		.loc 1 45 9
  45:test/ConsumerProducer_C_API_test.cpp ****         i++;
 165              		.loc 1 45 33 is_stmt 0
 166 0108 83A50400 		lw	a1,0(s1)
  45:test/ConsumerProducer_C_API_test.cpp ****         i++;
 167              		.loc 1 45 26
 168 010c 9B850503 		addiw	a1,a1,48
 169 0110 03B58400 		ld	a0,8(s1)
 170 0114 97000000 		call	_ZN6Buffer3putEi@plt
 170      E7800000 
 171              	.LVL19:
  46:test/ConsumerProducer_C_API_test.cpp **** 
 172              		.loc 1 46 9 is_stmt 1
  46:test/ConsumerProducer_C_API_test.cpp **** 
 173              		.loc 1 46 10 is_stmt 0
 174 011c 1B071900 		addiw	a4,s2,1
 175 0120 1B090700 		sext.w	s2,a4
 176              	.LVL20:
  48:test/ConsumerProducer_C_API_test.cpp ****             thread_dispatch();
 177              		.loc 1 48 9 is_stmt 1
  48:test/ConsumerProducer_C_API_test.cpp ****             thread_dispatch();
 178              		.loc 1 48 29 is_stmt 0
 179 0124 83A60400 		lw	a3,0(s1)
  48:test/ConsumerProducer_C_API_test.cpp ****             thread_dispatch();
 180              		.loc 1 48 21
 181 0128 9B972600 		slliw	a5,a3,2
 182 012c BB87D700 		addw	a5,a5,a3
 183 0130 9B971700 		slliw	a5,a5,1
  48:test/ConsumerProducer_C_API_test.cpp ****             thread_dispatch();
 184              		.loc 1 48 15
 185 0134 BB67F702 		remw	a5,a4,a5
  48:test/ConsumerProducer_C_API_test.cpp ****             thread_dispatch();
 186              		.loc 1 48 9
 187 0138 E39207FC 		bnez	a5,.L8
 188 013c 6FF09FFB 		j	.L12
 189              	.LVL21:
 190              	.L9:
  50:test/ConsumerProducer_C_API_test.cpp ****         }
  51:test/ConsumerProducer_C_API_test.cpp ****     }
  52:test/ConsumerProducer_C_API_test.cpp **** 
  53:test/ConsumerProducer_C_API_test.cpp **** 
  54:test/ConsumerProducer_C_API_test.cpp ****     sem_signal(data->wait);
 191              		.loc 1 54 5 is_stmt 1
 192              		.loc 1 54 15 is_stmt 0
 193 0140 03B50401 		ld	a0,16(s1)
GAS LISTING /tmp/cc1982Ql.s 			page 6


 194 0144 97000000 		call	_Z10sem_signalP4_sem@plt
 194      E7800000 
 195              	.LVL22:
  55:test/ConsumerProducer_C_API_test.cpp **** 
  56:test/ConsumerProducer_C_API_test.cpp **** }
 196              		.loc 1 56 1
 197 014c 83308101 		ld	ra,24(sp)
 198              		.cfi_restore 1
 199 0150 03340101 		ld	s0,16(sp)
 200              		.cfi_restore 8
 201              		.cfi_def_cfa 2, 32
 202 0154 83348100 		ld	s1,8(sp)
 203              		.cfi_restore 9
 204              	.LVL23:
 205 0158 03390100 		ld	s2,0(sp)
 206              		.cfi_restore 18
 207              	.LVL24:
 208 015c 13010102 		addi	sp,sp,32
 209              		.cfi_def_cfa_offset 0
 210 0160 67800000 		jr	ra
 211              		.cfi_endproc
 212              	.LFE1:
 214              		.align	2
 216              	_ZL8consumerPv:
 217              	.LFB2:
  57:test/ConsumerProducer_C_API_test.cpp **** 
  58:test/ConsumerProducer_C_API_test.cpp **** static void consumer(void *arg) {
 218              		.loc 1 58 33 is_stmt 1
 219              		.cfi_startproc
 220              	.LVL25:
 221 0164 130101FD 		addi	sp,sp,-48
 222              		.cfi_def_cfa_offset 48
 223 0168 23341102 		sd	ra,40(sp)
 224 016c 23308102 		sd	s0,32(sp)
 225 0170 233C9100 		sd	s1,24(sp)
 226 0174 23382101 		sd	s2,16(sp)
 227 0178 23343101 		sd	s3,8(sp)
 228              		.cfi_offset 1, -8
 229              		.cfi_offset 8, -16
 230              		.cfi_offset 9, -24
 231              		.cfi_offset 18, -32
 232              		.cfi_offset 19, -40
 233 017c 13040103 		addi	s0,sp,48
 234              		.cfi_def_cfa 8, 0
 235 0180 13090500 		mv	s2,a0
  59:test/ConsumerProducer_C_API_test.cpp ****     struct thread_data *data = (struct thread_data *) arg;
 236              		.loc 1 59 5
 237              	.LVL26:
  60:test/ConsumerProducer_C_API_test.cpp **** 
  61:test/ConsumerProducer_C_API_test.cpp ****     int i = 0;
 238              		.loc 1 61 5
 239              		.loc 1 61 9 is_stmt 0
 240 0184 93090000 		li	s3,0
 241 0188 6F00C001 		j	.L14
 242              	.LVL27:
 243              	.L20:
 244              	.LBB2:
GAS LISTING /tmp/cc1982Ql.s 			page 7


  62:test/ConsumerProducer_C_API_test.cpp ****     while (!threadEnd) {
  63:test/ConsumerProducer_C_API_test.cpp ****         int key = data->buffer->get();
  64:test/ConsumerProducer_C_API_test.cpp ****         i++;
  65:test/ConsumerProducer_C_API_test.cpp **** 
  66:test/ConsumerProducer_C_API_test.cpp ****         putc(key);
  67:test/ConsumerProducer_C_API_test.cpp **** 
  68:test/ConsumerProducer_C_API_test.cpp ****         if (i % (5 * data->id) == 0) {
  69:test/ConsumerProducer_C_API_test.cpp ****             thread_dispatch();
 245              		.loc 1 69 13 is_stmt 1
 246              		.loc 1 69 28 is_stmt 0
 247 018c 97000000 		call	_Z15thread_dispatchv@plt
 247      E7800000 
 248              	.LVL28:
 249 0194 6F000005 		j	.L16
 250              	.LVL29:
 251              	.L21:
  70:test/ConsumerProducer_C_API_test.cpp ****         }
  71:test/ConsumerProducer_C_API_test.cpp **** 
  72:test/ConsumerProducer_C_API_test.cpp ****         if (i % 80 == 0) {
  73:test/ConsumerProducer_C_API_test.cpp ****             putc('\n');
 252              		.loc 1 73 13 is_stmt 1
 253              		.loc 1 73 17 is_stmt 0
 254 0198 1305A000 		li	a0,10
 255 019c 97000000 		call	_Z4putcc@plt
 255      E7800000 
 256              	.LVL30:
 257              	.L14:
 258              	.LBE2:
  62:test/ConsumerProducer_C_API_test.cpp ****     while (!threadEnd) {
 259              		.loc 1 62 5 is_stmt 1
  62:test/ConsumerProducer_C_API_test.cpp ****     while (!threadEnd) {
 260              		.loc 1 62 12
 261 01a4 97070000 		lw	a5,.LANCHOR0
 261      83A70700 
 262 01ac 63900706 		bnez	a5,.L15
 263              	.LBB3:
  63:test/ConsumerProducer_C_API_test.cpp ****         i++;
 264              		.loc 1 63 9
  63:test/ConsumerProducer_C_API_test.cpp ****         i++;
 265              		.loc 1 63 36 is_stmt 0
 266 01b0 03358900 		ld	a0,8(s2)
 267 01b4 97000000 		call	_ZN6Buffer3getEv@plt
 267      E7800000 
 268              	.LVL31:
  64:test/ConsumerProducer_C_API_test.cpp **** 
 269              		.loc 1 64 9 is_stmt 1
  64:test/ConsumerProducer_C_API_test.cpp **** 
 270              		.loc 1 64 10 is_stmt 0
 271 01bc 9B841900 		addiw	s1,s3,1
 272 01c0 9B890400 		sext.w	s3,s1
 273              	.LVL32:
  66:test/ConsumerProducer_C_API_test.cpp **** 
 274              		.loc 1 66 9 is_stmt 1
  66:test/ConsumerProducer_C_API_test.cpp **** 
 275              		.loc 1 66 13 is_stmt 0
 276 01c4 1375F50F 		andi	a0,a0,0xff
 277              	.LVL33:
GAS LISTING /tmp/cc1982Ql.s 			page 8


 278 01c8 97000000 		call	_Z4putcc@plt
 278      E7800000 
 279              	.LVL34:
  68:test/ConsumerProducer_C_API_test.cpp ****             thread_dispatch();
 280              		.loc 1 68 9 is_stmt 1
  68:test/ConsumerProducer_C_API_test.cpp ****             thread_dispatch();
 281              		.loc 1 68 28 is_stmt 0
 282 01d0 03270900 		lw	a4,0(s2)
  68:test/ConsumerProducer_C_API_test.cpp ****             thread_dispatch();
 283              		.loc 1 68 20
 284 01d4 9B172700 		slliw	a5,a4,2
 285 01d8 BB87E700 		addw	a5,a5,a4
  68:test/ConsumerProducer_C_API_test.cpp ****             thread_dispatch();
 286              		.loc 1 68 15
 287 01dc BBE7F402 		remw	a5,s1,a5
  68:test/ConsumerProducer_C_API_test.cpp ****             thread_dispatch();
 288              		.loc 1 68 9
 289 01e0 E38607FA 		beqz	a5,.L20
 290              	.L16:
  72:test/ConsumerProducer_C_API_test.cpp ****             putc('\n');
 291              		.loc 1 72 9 is_stmt 1
  72:test/ConsumerProducer_C_API_test.cpp ****             putc('\n');
 292              		.loc 1 72 15 is_stmt 0
 293 01e4 93070005 		li	a5,80
 294 01e8 BBE4F402 		remw	s1,s1,a5
 295              	.LVL35:
  72:test/ConsumerProducer_C_API_test.cpp ****             putc('\n');
 296              		.loc 1 72 9
 297 01ec E39C04FA 		bnez	s1,.L14
 298 01f0 6FF09FFA 		j	.L21
 299              	.L22:
 300              	.LBE3:
 301              	.LBB4:
  74:test/ConsumerProducer_C_API_test.cpp ****         }
  75:test/ConsumerProducer_C_API_test.cpp ****     }
  76:test/ConsumerProducer_C_API_test.cpp **** 
  77:test/ConsumerProducer_C_API_test.cpp ****     while (data->buffer->getCnt() > 0) {
  78:test/ConsumerProducer_C_API_test.cpp ****         int key = data->buffer->get();
 302              		.loc 1 78 9 is_stmt 1
 303              		.loc 1 78 36 is_stmt 0
 304 01f4 03358900 		ld	a0,8(s2)
 305 01f8 97000000 		call	_ZN6Buffer3getEv@plt
 305      E7800000 
 306              	.LVL36:
  79:test/ConsumerProducer_C_API_test.cpp ****         putc(key);
 307              		.loc 1 79 9 is_stmt 1
 308              		.loc 1 79 13 is_stmt 0
 309 0200 1375F50F 		andi	a0,a0,0xff
 310              	.LVL37:
 311 0204 97000000 		call	_Z4putcc@plt
 311      E7800000 
 312              	.LVL38:
 313              	.L15:
 314              	.LBE4:
  77:test/ConsumerProducer_C_API_test.cpp ****         int key = data->buffer->get();
 315              		.loc 1 77 5 is_stmt 1
  77:test/ConsumerProducer_C_API_test.cpp ****         int key = data->buffer->get();
GAS LISTING /tmp/cc1982Ql.s 			page 9


 316              		.loc 1 77 35
  77:test/ConsumerProducer_C_API_test.cpp ****         int key = data->buffer->get();
 317              		.loc 1 77 32 is_stmt 0
 318 020c 03358900 		ld	a0,8(s2)
 319 0210 97000000 		call	_ZN6Buffer6getCntEv@plt
 319      E7800000 
 320              	.LVL39:
  77:test/ConsumerProducer_C_API_test.cpp ****         int key = data->buffer->get();
 321              		.loc 1 77 35
 322 0218 E34EA0FC 		bgtz	a0,.L22
  80:test/ConsumerProducer_C_API_test.cpp ****     }
  81:test/ConsumerProducer_C_API_test.cpp **** 
  82:test/ConsumerProducer_C_API_test.cpp **** 
  83:test/ConsumerProducer_C_API_test.cpp ****     sem_signal(data->wait);
 323              		.loc 1 83 5 is_stmt 1
 324              		.loc 1 83 15 is_stmt 0
 325 021c 03350901 		ld	a0,16(s2)
 326 0220 97000000 		call	_Z10sem_signalP4_sem@plt
 326      E7800000 
 327              	.LVL40:
  84:test/ConsumerProducer_C_API_test.cpp **** 
  85:test/ConsumerProducer_C_API_test.cpp **** }
 328              		.loc 1 85 1
 329 0228 83308102 		ld	ra,40(sp)
 330              		.cfi_restore 1
 331 022c 03340102 		ld	s0,32(sp)
 332              		.cfi_restore 8
 333              		.cfi_def_cfa 2, 48
 334 0230 83348101 		ld	s1,24(sp)
 335              		.cfi_restore 9
 336 0234 03390101 		ld	s2,16(sp)
 337              		.cfi_restore 18
 338              	.LVL41:
 339 0238 83398100 		ld	s3,8(sp)
 340              		.cfi_restore 19
 341              	.LVL42:
 342 023c 13010103 		addi	sp,sp,48
 343              		.cfi_def_cfa_offset 0
 344 0240 67800000 		jr	ra
 345              		.cfi_endproc
 346              	.LFE2:
 348              		.section	.rodata.str1.8
 349 000e 0000     		.align	3
 350              	.LC2:
 351 0010 556E6573 		.string	"Unesite broj proizvodjaca?\n"
 351      69746520 
 351      62726F6A 
 351      2070726F 
 351      697A766F 
 352 002c 00000000 		.align	3
 353              	.LC3:
 354 0030 556E6573 		.string	"Unesite velicinu bafera?\n"
 354      69746520 
 354      76656C69 
 354      63696E75 
 354      20626166 
 355 004a 00000000 		.align	3
GAS LISTING /tmp/cc1982Ql.s 			page 10


 355      0000
 356              	.LC4:
 357 0050 42726F6A 		.string	"Broj proizvodjaca "
 357      2070726F 
 357      697A766F 
 357      646A6163 
 357      612000
 358 0063 00000000 		.align	3
 358      00
 359              	.LC5:
 360 0068 20692076 		.string	" i velicina bafera "
 360      656C6963 
 360      696E6120 
 360      62616665 
 360      72612000 
 361 007c 00000000 		.align	3
 362              	.LC6:
 363 0080 2E0A00   		.string	".\n"
 364 0083 00000000 		.align	3
 364      00
 365              	.LC7:
 366 0088 42726F6A 		.string	"Broj proizvodjaca ne sme biti manji od velicine bafera!\n"
 366      2070726F 
 366      697A766F 
 366      646A6163 
 366      61206E65 
 367 00c1 00000000 		.align	3
 367      000000
 368              	.LC8:
 369 00c8 42726F6A 		.string	"Broj proizvodjaca mora biti veci od nula!\n"
 369      2070726F 
 369      697A766F 
 369      646A6163 
 369      61206D6F 
 370              		.text
 371              		.align	2
 372              		.globl	_Z22producerConsumer_C_APIv
 374              	_Z22producerConsumer_C_APIv:
 375              	.LFB3:
  86:test/ConsumerProducer_C_API_test.cpp **** 
  87:test/ConsumerProducer_C_API_test.cpp **** void producerConsumer_C_API() {
 376              		.loc 1 87 31 is_stmt 1
 377              		.cfi_startproc
 378              		.cfi_personality 0x9b,DW.ref.__gxx_personality_v0
 379              		.cfi_lsda 0x1b,.LLSDA3
 380 0244 130101F9 		addi	sp,sp,-112
 381              		.cfi_def_cfa_offset 112
 382 0248 23341106 		sd	ra,104(sp)
 383 024c 23308106 		sd	s0,96(sp)
 384 0250 233C9104 		sd	s1,88(sp)
 385 0254 23382105 		sd	s2,80(sp)
 386 0258 23343105 		sd	s3,72(sp)
 387 025c 23304105 		sd	s4,64(sp)
 388 0260 233C5103 		sd	s5,56(sp)
 389 0264 23386103 		sd	s6,48(sp)
 390              		.cfi_offset 1, -8
 391              		.cfi_offset 8, -16
GAS LISTING /tmp/cc1982Ql.s 			page 11


 392              		.cfi_offset 9, -24
 393              		.cfi_offset 18, -32
 394              		.cfi_offset 19, -40
 395              		.cfi_offset 20, -48
 396              		.cfi_offset 21, -56
 397              		.cfi_offset 22, -64
 398 0268 13040107 		addi	s0,sp,112
 399              		.cfi_def_cfa 8, 0
  88:test/ConsumerProducer_C_API_test.cpp ****     char input[30];
  89:test/ConsumerProducer_C_API_test.cpp ****     int n, threadNum;
  90:test/ConsumerProducer_C_API_test.cpp **** 
  91:test/ConsumerProducer_C_API_test.cpp ****     printString("Unesite broj proizvodjaca?\n");
  92:test/ConsumerProducer_C_API_test.cpp ****     getString(input, 30);
  93:test/ConsumerProducer_C_API_test.cpp ****     threadNum = stringToInt(input);
  94:test/ConsumerProducer_C_API_test.cpp **** 
  95:test/ConsumerProducer_C_API_test.cpp ****     printString("Unesite velicinu bafera?\n");
  96:test/ConsumerProducer_C_API_test.cpp ****     getString(input, 30);
  97:test/ConsumerProducer_C_API_test.cpp ****     n = stringToInt(input);
  98:test/ConsumerProducer_C_API_test.cpp **** 
  99:test/ConsumerProducer_C_API_test.cpp ****     printString("Broj proizvodjaca "); printInt(threadNum);
 100:test/ConsumerProducer_C_API_test.cpp ****     printString(" i velicina bafera "); printInt(n);
 101:test/ConsumerProducer_C_API_test.cpp ****     printString(".\n");
 102:test/ConsumerProducer_C_API_test.cpp **** 
 103:test/ConsumerProducer_C_API_test.cpp ****     if(threadNum > n) {
 104:test/ConsumerProducer_C_API_test.cpp ****         printString("Broj proizvodjaca ne sme biti manji od velicine bafera!\n");
 105:test/ConsumerProducer_C_API_test.cpp ****         return;
 106:test/ConsumerProducer_C_API_test.cpp ****     } else if (threadNum < 1) {
 107:test/ConsumerProducer_C_API_test.cpp ****         printString("Broj proizvodjaca mora biti veci od nula!\n");
 108:test/ConsumerProducer_C_API_test.cpp ****         return;
 109:test/ConsumerProducer_C_API_test.cpp ****     }
 110:test/ConsumerProducer_C_API_test.cpp **** 
 111:test/ConsumerProducer_C_API_test.cpp ****     Buffer *buffer = new Buffer(n);
 112:test/ConsumerProducer_C_API_test.cpp **** 
 113:test/ConsumerProducer_C_API_test.cpp ****     sem_open(&waitForAll, 0);
 114:test/ConsumerProducer_C_API_test.cpp **** 
 115:test/ConsumerProducer_C_API_test.cpp ****     thread_t threads[threadNum];
 116:test/ConsumerProducer_C_API_test.cpp ****     thread_t consumerThread;
 117:test/ConsumerProducer_C_API_test.cpp **** 
 118:test/ConsumerProducer_C_API_test.cpp ****     struct thread_data data[threadNum + 1];
 119:test/ConsumerProducer_C_API_test.cpp **** 
 120:test/ConsumerProducer_C_API_test.cpp ****     data[threadNum].id = threadNum;
 121:test/ConsumerProducer_C_API_test.cpp ****     data[threadNum].buffer = buffer;
 122:test/ConsumerProducer_C_API_test.cpp ****     data[threadNum].wait = waitForAll;
 123:test/ConsumerProducer_C_API_test.cpp ****     thread_create(&consumerThread, consumer, data + threadNum);
 124:test/ConsumerProducer_C_API_test.cpp **** 
 125:test/ConsumerProducer_C_API_test.cpp ****     for (int i = 0; i < threadNum; i++) {
 126:test/ConsumerProducer_C_API_test.cpp ****         data[i].id = i;
 127:test/ConsumerProducer_C_API_test.cpp ****         data[i].buffer = buffer;
 128:test/ConsumerProducer_C_API_test.cpp ****         data[i].wait = waitForAll;
 129:test/ConsumerProducer_C_API_test.cpp **** 
 130:test/ConsumerProducer_C_API_test.cpp ****         thread_create(threads + i,
 131:test/ConsumerProducer_C_API_test.cpp ****                       i > 0 ? producer : producerKeyboard,
 132:test/ConsumerProducer_C_API_test.cpp ****                       data + i);
 133:test/ConsumerProducer_C_API_test.cpp ****     }
 134:test/ConsumerProducer_C_API_test.cpp **** 
 135:test/ConsumerProducer_C_API_test.cpp ****     thread_dispatch();
 136:test/ConsumerProducer_C_API_test.cpp ****     for (int i = 0; i <= threadNum; i++) {
GAS LISTING /tmp/cc1982Ql.s 			page 12


 137:test/ConsumerProducer_C_API_test.cpp ****         sem_wait(waitForAll);
 138:test/ConsumerProducer_C_API_test.cpp **** 
 139:test/ConsumerProducer_C_API_test.cpp ****     }
 140:test/ConsumerProducer_C_API_test.cpp **** 
 141:test/ConsumerProducer_C_API_test.cpp **** 
 142:test/ConsumerProducer_C_API_test.cpp **** 
 143:test/ConsumerProducer_C_API_test.cpp ****     sem_close(waitForAll);
 144:test/ConsumerProducer_C_API_test.cpp **** 
 145:test/ConsumerProducer_C_API_test.cpp ****     delete buffer;
 400              		.loc 1 145 18 is_stmt 0
 401 026c 130B0100 		mv	s6,sp
  88:test/ConsumerProducer_C_API_test.cpp ****     char input[30];
 402              		.loc 1 88 5 is_stmt 1
  89:test/ConsumerProducer_C_API_test.cpp **** 
 403              		.loc 1 89 5
  91:test/ConsumerProducer_C_API_test.cpp ****     getString(input, 30);
 404              		.loc 1 91 5
  91:test/ConsumerProducer_C_API_test.cpp ****     getString(input, 30);
 405              		.loc 1 91 16 is_stmt 0
 406 0270 17050000 		lla	a0,.LC2
 406      13050500 
 407              	.LEHB0:
 408 0278 97000000 		call	_Z11printStringPKc@plt
 408      E7800000 
 409              	.LVL43:
  92:test/ConsumerProducer_C_API_test.cpp ****     threadNum = stringToInt(input);
 410              		.loc 1 92 5 is_stmt 1
  92:test/ConsumerProducer_C_API_test.cpp ****     threadNum = stringToInt(input);
 411              		.loc 1 92 14 is_stmt 0
 412 0280 9305E001 		li	a1,30
 413 0284 930404FA 		addi	s1,s0,-96
 414 0288 13850400 		mv	a0,s1
 415 028c 97000000 		call	_Z9getStringPci@plt
 415      E7800000 
 416              	.LVL44:
  93:test/ConsumerProducer_C_API_test.cpp **** 
 417              		.loc 1 93 5 is_stmt 1
  93:test/ConsumerProducer_C_API_test.cpp **** 
 418              		.loc 1 93 28 is_stmt 0
 419 0294 13850400 		mv	a0,s1
 420 0298 97000000 		call	_Z11stringToIntPKc@plt
 420      E7800000 
 421              	.LVL45:
 422 02a0 13090500 		mv	s2,a0
 423              	.LVL46:
  95:test/ConsumerProducer_C_API_test.cpp ****     getString(input, 30);
 424              		.loc 1 95 5 is_stmt 1
  95:test/ConsumerProducer_C_API_test.cpp ****     getString(input, 30);
 425              		.loc 1 95 16 is_stmt 0
 426 02a4 17050000 		lla	a0,.LC3
 426      13050500 
 427 02ac 97000000 		call	_Z11printStringPKc@plt
 427      E7800000 
 428              	.LVL47:
  96:test/ConsumerProducer_C_API_test.cpp ****     n = stringToInt(input);
 429              		.loc 1 96 5 is_stmt 1
  96:test/ConsumerProducer_C_API_test.cpp ****     n = stringToInt(input);
GAS LISTING /tmp/cc1982Ql.s 			page 13


 430              		.loc 1 96 14 is_stmt 0
 431 02b4 9305E001 		li	a1,30
 432 02b8 13850400 		mv	a0,s1
 433 02bc 97000000 		call	_Z9getStringPci@plt
 433      E7800000 
 434              	.LVL48:
  97:test/ConsumerProducer_C_API_test.cpp **** 
 435              		.loc 1 97 5 is_stmt 1
  97:test/ConsumerProducer_C_API_test.cpp **** 
 436              		.loc 1 97 20 is_stmt 0
 437 02c4 13850400 		mv	a0,s1
 438 02c8 97000000 		call	_Z11stringToIntPKc@plt
 438      E7800000 
 439              	.LVL49:
 440 02d0 93040500 		mv	s1,a0
 441              	.LVL50:
  99:test/ConsumerProducer_C_API_test.cpp ****     printString(" i velicina bafera "); printInt(n);
 442              		.loc 1 99 5 is_stmt 1
  99:test/ConsumerProducer_C_API_test.cpp ****     printString(" i velicina bafera "); printInt(n);
 443              		.loc 1 99 16 is_stmt 0
 444 02d4 17050000 		lla	a0,.LC4
 444      13050500 
 445 02dc 97000000 		call	_Z11printStringPKc@plt
 445      E7800000 
 446              	.LVL51:
  99:test/ConsumerProducer_C_API_test.cpp ****     printString(" i velicina bafera "); printInt(n);
 447              		.loc 1 99 40 is_stmt 1
  99:test/ConsumerProducer_C_API_test.cpp ****     printString(" i velicina bafera "); printInt(n);
 448              		.loc 1 99 48 is_stmt 0
 449 02e4 13060000 		li	a2,0
 450 02e8 9305A000 		li	a1,10
 451 02ec 13050900 		mv	a0,s2
 452 02f0 97000000 		call	_Z8printIntiii@plt
 452      E7800000 
 453              	.LVL52:
 100:test/ConsumerProducer_C_API_test.cpp ****     printString(".\n");
 454              		.loc 1 100 5 is_stmt 1
 100:test/ConsumerProducer_C_API_test.cpp ****     printString(".\n");
 455              		.loc 1 100 16 is_stmt 0
 456 02f8 17050000 		lla	a0,.LC5
 456      13050500 
 457 0300 97000000 		call	_Z11printStringPKc@plt
 457      E7800000 
 458              	.LVL53:
 100:test/ConsumerProducer_C_API_test.cpp ****     printString(".\n");
 459              		.loc 1 100 41 is_stmt 1
 100:test/ConsumerProducer_C_API_test.cpp ****     printString(".\n");
 460              		.loc 1 100 49 is_stmt 0
 461 0308 13060000 		li	a2,0
 462 030c 9305A000 		li	a1,10
 463 0310 13850400 		mv	a0,s1
 464 0314 97000000 		call	_Z8printIntiii@plt
 464      E7800000 
 465              	.LVL54:
 101:test/ConsumerProducer_C_API_test.cpp **** 
 466              		.loc 1 101 5 is_stmt 1
 101:test/ConsumerProducer_C_API_test.cpp **** 
GAS LISTING /tmp/cc1982Ql.s 			page 14


 467              		.loc 1 101 16 is_stmt 0
 468 031c 17050000 		lla	a0,.LC6
 468      13050500 
 469 0324 97000000 		call	_Z11printStringPKc@plt
 469      E7800000 
 470              	.LVL55:
 103:test/ConsumerProducer_C_API_test.cpp ****         printString("Broj proizvodjaca ne sme biti manji od velicine bafera!\n");
 471              		.loc 1 103 5 is_stmt 1
 472 032c 63C42403 		bgt	s2,s1,.L38
 106:test/ConsumerProducer_C_API_test.cpp ****         printString("Broj proizvodjaca mora biti veci od nula!\n");
 473              		.loc 1 106 12
 474 0330 635C2003 		blez	s2,.L39
 111:test/ConsumerProducer_C_API_test.cpp **** 
 475              		.loc 1 111 5
 111:test/ConsumerProducer_C_API_test.cpp **** 
 476              		.loc 1 111 34 is_stmt 0
 477 0334 13058003 		li	a0,56
 478 0338 97000000 		call	_Znwm@plt
 478      E7800000 
 479              	.LVL56:
 480              	.LEHE0:
 481 0340 130A0500 		mv	s4,a0
 482 0344 93850400 		mv	a1,s1
 483              	.LEHB1:
 484 0348 97000000 		call	_ZN6BufferC1Ei@plt
 484      E7800000 
 485              	.LVL57:
 486              	.LEHE1:
 487 0350 6F000003 		j	.L40
 488              	.L38:
 104:test/ConsumerProducer_C_API_test.cpp ****         return;
 489              		.loc 1 104 9 is_stmt 1
 104:test/ConsumerProducer_C_API_test.cpp ****         return;
 490              		.loc 1 104 20 is_stmt 0
 491 0354 17050000 		lla	a0,.LC7
 491      13050500 
 492              	.LEHB2:
 493 035c 97000000 		call	_Z11printStringPKc@plt
 493      E7800000 
 494              	.LVL58:
 105:test/ConsumerProducer_C_API_test.cpp ****     } else if (threadNum < 1) {
 495              		.loc 1 105 9 is_stmt 1
 496 0364 6F004001 		j	.L25
 497              	.L39:
 107:test/ConsumerProducer_C_API_test.cpp ****         return;
 498              		.loc 1 107 9
 107:test/ConsumerProducer_C_API_test.cpp ****         return;
 499              		.loc 1 107 20 is_stmt 0
 500 0368 17050000 		lla	a0,.LC8
 500      13050500 
 501 0370 97000000 		call	_Z11printStringPKc@plt
 501      E7800000 
 502              	.LVL59:
 108:test/ConsumerProducer_C_API_test.cpp ****     }
 503              		.loc 1 108 9 is_stmt 1
 504              	.L25:
 505 0378 13010B00 		mv	sp,s6
GAS LISTING /tmp/cc1982Ql.s 			page 15


 506 037c 6F000015 		j	.L23
 507              	.L40:
 508              	.LVL60:
 113:test/ConsumerProducer_C_API_test.cpp **** 
 509              		.loc 1 113 5 discriminator 3
 113:test/ConsumerProducer_C_API_test.cpp **** 
 510              		.loc 1 113 13 is_stmt 0 discriminator 3
 511 0380 93050000 		li	a1,0
 512 0384 17050000 		lla	a0,.LANCHOR0+8
 512      13050500 
 513 038c 97000000 		call	_Z8sem_openPP4_semj@plt
 513      E7800000 
 514              	.LVL61:
 115:test/ConsumerProducer_C_API_test.cpp ****     thread_t consumerThread;
 515              		.loc 1 115 5 is_stmt 1 discriminator 3
 115:test/ConsumerProducer_C_API_test.cpp ****     thread_t consumerThread;
 516              		.loc 1 115 14 is_stmt 0 discriminator 3
 517 0394 93173900 		slli	a5,s2,3
 518 0398 9387F700 		addi	a5,a5,15
 519 039c 93F707FF 		andi	a5,a5,-16
 520 03a0 3301F140 		sub	sp,sp,a5
 521 03a4 930A0100 		mv	s5,sp
 522              	.LVL62:
 116:test/ConsumerProducer_C_API_test.cpp **** 
 523              		.loc 1 116 5 is_stmt 1 discriminator 3
 118:test/ConsumerProducer_C_API_test.cpp **** 
 524              		.loc 1 118 5 discriminator 3
 118:test/ConsumerProducer_C_API_test.cpp **** 
 525              		.loc 1 118 39 is_stmt 0 discriminator 3
 526 03a8 1B071900 		addiw	a4,s2,1
 527              	.LVL63:
 118:test/ConsumerProducer_C_API_test.cpp **** 
 528              		.loc 1 118 24 discriminator 3
 529 03ac 93171700 		slli	a5,a4,1
 530 03b0 B387E700 		add	a5,a5,a4
 531 03b4 93973700 		slli	a5,a5,3
 532 03b8 9387F700 		addi	a5,a5,15
 533 03bc 93F707FF 		andi	a5,a5,-16
 534 03c0 3301F140 		sub	sp,sp,a5
 535              	.LVL64:
 536 03c4 93090100 		mv	s3,sp
 537              	.LVL65:
 120:test/ConsumerProducer_C_API_test.cpp ****     data[threadNum].buffer = buffer;
 538              		.loc 1 120 5 is_stmt 1 discriminator 3
 120:test/ConsumerProducer_C_API_test.cpp ****     data[threadNum].buffer = buffer;
 539              		.loc 1 120 24 is_stmt 0 discriminator 3
 540 03c8 13161900 		slli	a2,s2,1
 541 03cc B3072601 		add	a5,a2,s2
 542 03d0 93973700 		slli	a5,a5,3
 543 03d4 B387F900 		add	a5,s3,a5
 544 03d8 23A02701 		sw	s2,0(a5)
 121:test/ConsumerProducer_C_API_test.cpp ****     data[threadNum].wait = waitForAll;
 545              		.loc 1 121 5 is_stmt 1 discriminator 3
 121:test/ConsumerProducer_C_API_test.cpp ****     data[threadNum].wait = waitForAll;
 546              		.loc 1 121 28 is_stmt 0 discriminator 3
 547 03dc 23B44701 		sd	s4,8(a5)
 122:test/ConsumerProducer_C_API_test.cpp ****     thread_create(&consumerThread, consumer, data + threadNum);
GAS LISTING /tmp/cc1982Ql.s 			page 16


 548              		.loc 1 122 5 is_stmt 1 discriminator 3
 122:test/ConsumerProducer_C_API_test.cpp ****     thread_create(&consumerThread, consumer, data + threadNum);
 549              		.loc 1 122 26 is_stmt 0 discriminator 3
 550 03e0 17070000 		ld	a4,.LANCHOR0+8
 550      03370700 
 551 03e8 23B8E700 		sd	a4,16(a5)
 123:test/ConsumerProducer_C_API_test.cpp **** 
 552              		.loc 1 123 5 is_stmt 1 discriminator 3
 123:test/ConsumerProducer_C_API_test.cpp **** 
 553              		.loc 1 123 18 is_stmt 0 discriminator 3
 554 03ec 13860700 		mv	a2,a5
 555 03f0 97050000 		lla	a1,_ZL8consumerPv
 555      93850500 
 556 03f8 130584F9 		addi	a0,s0,-104
 557 03fc 97000000 		call	_Z13thread_createPP7_threadPFvPvES2_@plt
 557      E7800000 
 558              	.LVL66:
 559              	.LBB5:
 125:test/ConsumerProducer_C_API_test.cpp ****         data[i].id = i;
 560              		.loc 1 125 14 discriminator 3
 561 0404 93040000 		li	s1,0
 562              	.LVL67:
 563 0408 6F008002 		j	.L29
 564              	.LVL68:
 565              	.L35:
 130:test/ConsumerProducer_C_API_test.cpp ****                       i > 0 ? producer : producerKeyboard,
 566              		.loc 1 130 22
 567 040c 97050000 		lla	a1,_ZL16producerKeyboardPv
 567      93850500 
 568              	.L28:
 132:test/ConsumerProducer_C_API_test.cpp ****     }
 569              		.loc 1 132 28 discriminator 4
 570 0414 13961700 		slli	a2,a5,1
 571 0418 3306F600 		add	a2,a2,a5
 572 041c 13163600 		slli	a2,a2,3
 130:test/ConsumerProducer_C_API_test.cpp ****                       i > 0 ? producer : producerKeyboard,
 573              		.loc 1 130 22 discriminator 4
 574 0420 3386C900 		add	a2,s3,a2
 575 0424 97000000 		call	_Z13thread_createPP7_threadPFvPvES2_@plt
 575      E7800000 
 576              	.LVL69:
 125:test/ConsumerProducer_C_API_test.cpp ****         data[i].id = i;
 577              		.loc 1 125 5 is_stmt 1 discriminator 4
 578 042c 9B841400 		addiw	s1,s1,1
 579              	.LVL70:
 580              	.L29:
 125:test/ConsumerProducer_C_API_test.cpp ****         data[i].id = i;
 581              		.loc 1 125 23 discriminator 1
 582 0430 63D22405 		bge	s1,s2,.L27
 126:test/ConsumerProducer_C_API_test.cpp ****         data[i].buffer = buffer;
 583              		.loc 1 126 9
 126:test/ConsumerProducer_C_API_test.cpp ****         data[i].buffer = buffer;
 584              		.loc 1 126 20 is_stmt 0
 585 0434 93971400 		slli	a5,s1,1
 586 0438 B3879700 		add	a5,a5,s1
 587 043c 93973700 		slli	a5,a5,3
 588 0440 B387F900 		add	a5,s3,a5
GAS LISTING /tmp/cc1982Ql.s 			page 17


 589 0444 23A09700 		sw	s1,0(a5)
 127:test/ConsumerProducer_C_API_test.cpp ****         data[i].wait = waitForAll;
 590              		.loc 1 127 9 is_stmt 1
 127:test/ConsumerProducer_C_API_test.cpp ****         data[i].wait = waitForAll;
 591              		.loc 1 127 24 is_stmt 0
 592 0448 23B44701 		sd	s4,8(a5)
 128:test/ConsumerProducer_C_API_test.cpp **** 
 593              		.loc 1 128 9 is_stmt 1
 128:test/ConsumerProducer_C_API_test.cpp **** 
 594              		.loc 1 128 22 is_stmt 0
 595 044c 17070000 		ld	a4,.LANCHOR0+8
 595      03370700 
 596 0454 23B8E700 		sd	a4,16(a5)
 130:test/ConsumerProducer_C_API_test.cpp ****                       i > 0 ? producer : producerKeyboard,
 597              		.loc 1 130 9 is_stmt 1
 130:test/ConsumerProducer_C_API_test.cpp ****                       i > 0 ? producer : producerKeyboard,
 598              		.loc 1 130 33 is_stmt 0
 599 0458 93870400 		mv	a5,s1
 130:test/ConsumerProducer_C_API_test.cpp ****                       i > 0 ? producer : producerKeyboard,
 600              		.loc 1 130 31
 601 045c 13953400 		slli	a0,s1,3
 130:test/ConsumerProducer_C_API_test.cpp ****                       i > 0 ? producer : producerKeyboard,
 602              		.loc 1 130 22
 603 0460 3385AA00 		add	a0,s5,a0
 604 0464 E35490FA 		blez	s1,.L35
 605 0468 97050000 		lla	a1,_ZL8producerPv
 605      93850500 
 606 0470 6FF05FFA 		j	.L28
 607              	.L27:
 608              	.LBE5:
 135:test/ConsumerProducer_C_API_test.cpp ****     for (int i = 0; i <= threadNum; i++) {
 609              		.loc 1 135 5 is_stmt 1
 135:test/ConsumerProducer_C_API_test.cpp ****     for (int i = 0; i <= threadNum; i++) {
 610              		.loc 1 135 20 is_stmt 0
 611 0474 97000000 		call	_Z15thread_dispatchv@plt
 611      E7800000 
 612              	.LVL71:
 613              	.LBB6:
 136:test/ConsumerProducer_C_API_test.cpp ****         sem_wait(waitForAll);
 614              		.loc 1 136 14
 615 047c 93040000 		li	s1,0
 616              	.LVL72:
 617              	.L31:
 136:test/ConsumerProducer_C_API_test.cpp ****         sem_wait(waitForAll);
 618              		.loc 1 136 23 is_stmt 1 discriminator 1
 619 0480 634E9900 		bgt	s1,s2,.L30
 137:test/ConsumerProducer_C_API_test.cpp **** 
 620              		.loc 1 137 9
 137:test/ConsumerProducer_C_API_test.cpp **** 
 621              		.loc 1 137 17 is_stmt 0
 622 0484 17050000 		ld	a0,.LANCHOR0+8
 622      03350500 
 623 048c 97000000 		call	_Z8sem_waitP4_sem@plt
 623      E7800000 
 624              	.LVL73:
 136:test/ConsumerProducer_C_API_test.cpp ****         sem_wait(waitForAll);
 625              		.loc 1 136 5 is_stmt 1
GAS LISTING /tmp/cc1982Ql.s 			page 18


 626 0494 9B841400 		addiw	s1,s1,1
 627              	.LVL74:
 628 0498 6FF09FFE 		j	.L31
 629              	.LVL75:
 630              	.L30:
 631              	.LBE6:
 143:test/ConsumerProducer_C_API_test.cpp **** 
 632              		.loc 1 143 5
 143:test/ConsumerProducer_C_API_test.cpp **** 
 633              		.loc 1 143 14 is_stmt 0
 634 049c 17050000 		ld	a0,.LANCHOR0+8
 634      03350500 
 635 04a4 97000000 		call	_Z9sem_closeP4_sem@plt
 635      E7800000 
 636              	.LVL76:
 637              		.loc 1 145 5 is_stmt 1
 638              		.loc 1 145 18 is_stmt 0
 639 04ac 630E0A00 		beqz	s4,.L32
 640              		.loc 1 145 12 discriminator 1
 641 04b0 13050A00 		mv	a0,s4
 642 04b4 97000000 		call	_ZN6BufferD1Ev@plt
 642      E7800000 
 643              	.LVL77:
 644 04bc 13050A00 		mv	a0,s4
 645 04c0 97000000 		call	_ZdlPv@plt
 645      E7800000 
 646              	.LVL78:
 647              	.L32:
 648 04c8 13010B00 		mv	sp,s6
 649              	.LVL79:
 650              	.L23:
 146:test/ConsumerProducer_C_API_test.cpp **** 
 147:test/ConsumerProducer_C_API_test.cpp **** }
 651              		.loc 1 147 1
 652 04cc 130104F9 		addi	sp,s0,-112
 653              		.cfi_remember_state
 654              		.cfi_def_cfa 2, 112
 655 04d0 83308106 		ld	ra,104(sp)
 656              		.cfi_restore 1
 657 04d4 03340106 		ld	s0,96(sp)
 658              		.cfi_restore 8
 659 04d8 83348105 		ld	s1,88(sp)
 660              		.cfi_restore 9
 661 04dc 03390105 		ld	s2,80(sp)
 662              		.cfi_restore 18
 663              	.LVL80:
 664 04e0 83398104 		ld	s3,72(sp)
 665              		.cfi_restore 19
 666 04e4 033A0104 		ld	s4,64(sp)
 667              		.cfi_restore 20
 668 04e8 833A8103 		ld	s5,56(sp)
 669              		.cfi_restore 21
 670 04ec 033B0103 		ld	s6,48(sp)
 671              		.cfi_restore 22
 672 04f0 13010107 		addi	sp,sp,112
 673              		.cfi_def_cfa_offset 0
 674 04f4 67800000 		jr	ra
GAS LISTING /tmp/cc1982Ql.s 			page 19


 675              	.LVL81:
 676              	.L36:
 677              		.cfi_restore_state
 678 04f8 93040500 		mv	s1,a0
 679              	.LVL82:
 111:test/ConsumerProducer_C_API_test.cpp **** 
 680              		.loc 1 111 34
 681 04fc 13050A00 		mv	a0,s4
 682 0500 97000000 		call	_ZdlPv@plt
 682      E7800000 
 683              	.LVL83:
 684 0508 13850400 		mv	a0,s1
 685 050c 97000000 		call	_Unwind_Resume@plt
 685      E7800000 
 686              	.LVL84:
 687              	.LEHE2:
 688              		.cfi_endproc
 689              	.LFE3:
 690              		.globl	__gxx_personality_v0
 691              		.section	.gcc_except_table,"a",@progbits
 692              	.LLSDA3:
 693 0000 FF       		.byte	0xff
 694 0001 FF       		.byte	0xff
 695 0002 03       		.byte	0x3
 696 0003 27       		.byte	0x27
 697 0004 00000000 		.4byte	.LEHB0-.LFB3
 698 0008 00000000 		.4byte	.LEHE0-.LEHB0
 699 000c 00000000 		.4byte	0
 700 0010 00       		.byte	0
 701 0011 00000000 		.4byte	.LEHB1-.LFB3
 702 0015 00000000 		.4byte	.LEHE1-.LEHB1
 703 0019 00000000 		.4byte	.L36-.LFB3
 704 001d 00       		.byte	0
 705 001e 00000000 		.4byte	.LEHB2-.LFB3
 706 0022 00000000 		.4byte	.LEHE2-.LEHB2
 707 0026 00000000 		.4byte	0
 708 002a 00       		.byte	0
 709              		.text
 711              		.bss
 712              		.align	3
 713              		.set	.LANCHOR0,. + 0
 716              	_ZL9threadEnd:
 717 0000 00000000 		.zero	4
 718 0004 00000000 		.zero	4
 721              	_ZL10waitForAll:
 722 0008 00000000 		.zero	8
 722      00000000 
 723              		.text
 724              	.Letext0:
 725              		.file 2 "test/../h/../lib/hw.h"
 726              		.file 3 "test/../h/syscall_c.h"
 727              		.file 4 "test/../h/buffer.hpp"
 728              		.file 5 "test/../h/../h/printing.hpp"
 2896              		.align	3
 2899              	DW.ref.__gxx_personality_v0:
 2900 0000 00000000 		.dword	__gxx_personality_v0
 2900      00000000 
GAS LISTING /tmp/cc1982Ql.s 			page 20


 2901              		.ident	"GCC: (Ubuntu 9.4.0-1ubuntu1~20.04) 9.4.0"
 2902              		.section	.note.GNU-stack,"",@progbits
GAS LISTING /tmp/cc1982Ql.s 			page 21

