GAS LISTING /tmp/ccSxCaBq.s 			page 1


   1              		.file	"ConsumerProducer_CPP_API_test.cpp"
   2              		.option pic
   3              		.option norelax
   4              		.text
   5              	.Ltext0:
   6              		.section	.text._ZN8Consumer3runEv,"axG",@progbits,_ZN8Consumer3runEv,comdat
   7              		.align	2
   8              		.weak	_ZN8Consumer3runEv
  10              	_ZN8Consumer3runEv:
  11              	.LFB13:
  12              		.file 1 "test/ConsumerProducer_CPP_API_test.cpp"
   1:test/ConsumerProducer_CPP_API_test.cpp **** #include "../h/syscall_cpp.hpp"
   2:test/ConsumerProducer_CPP_API_test.cpp **** 
   3:test/ConsumerProducer_CPP_API_test.cpp **** #include "../h/buffer_CPP_API.hpp"
   4:test/ConsumerProducer_CPP_API_test.cpp **** #include "../h/printing.hpp"
   5:test/ConsumerProducer_CPP_API_test.cpp **** 
   6:test/ConsumerProducer_CPP_API_test.cpp **** 
   7:test/ConsumerProducer_CPP_API_test.cpp **** static Semaphore *waitForAll;
   8:test/ConsumerProducer_CPP_API_test.cpp **** 
   9:test/ConsumerProducer_CPP_API_test.cpp **** struct thread_data {
  10:test/ConsumerProducer_CPP_API_test.cpp ****     int id;
  11:test/ConsumerProducer_CPP_API_test.cpp ****     BufferCPP *buffer;
  12:test/ConsumerProducer_CPP_API_test.cpp ****     Semaphore *sem;
  13:test/ConsumerProducer_CPP_API_test.cpp **** };
  14:test/ConsumerProducer_CPP_API_test.cpp **** 
  15:test/ConsumerProducer_CPP_API_test.cpp **** static volatile int threadEnd = 0;
  16:test/ConsumerProducer_CPP_API_test.cpp **** 
  17:test/ConsumerProducer_CPP_API_test.cpp **** class ProducerKeyborad : public Thread {
  18:test/ConsumerProducer_CPP_API_test.cpp ****     thread_data *td;
  19:test/ConsumerProducer_CPP_API_test.cpp **** public:
  20:test/ConsumerProducer_CPP_API_test.cpp ****     ProducerKeyborad(thread_data *_td) : Thread(), td(_td) {}
  21:test/ConsumerProducer_CPP_API_test.cpp **** 
  22:test/ConsumerProducer_CPP_API_test.cpp ****     void run() override {
  23:test/ConsumerProducer_CPP_API_test.cpp ****         int key;
  24:test/ConsumerProducer_CPP_API_test.cpp ****         int i = 0;
  25:test/ConsumerProducer_CPP_API_test.cpp ****         while ((key = getc()) != '`') {//bilo 0x1b
  26:test/ConsumerProducer_CPP_API_test.cpp ****             td->buffer->put(key);
  27:test/ConsumerProducer_CPP_API_test.cpp ****             i++;
  28:test/ConsumerProducer_CPP_API_test.cpp ****         }
  29:test/ConsumerProducer_CPP_API_test.cpp **** 
  30:test/ConsumerProducer_CPP_API_test.cpp ****         threadEnd = 1;
  31:test/ConsumerProducer_CPP_API_test.cpp ****         td->buffer->put('!');
  32:test/ConsumerProducer_CPP_API_test.cpp **** 
  33:test/ConsumerProducer_CPP_API_test.cpp ****         td->sem->signal();
  34:test/ConsumerProducer_CPP_API_test.cpp ****     }
  35:test/ConsumerProducer_CPP_API_test.cpp **** };
  36:test/ConsumerProducer_CPP_API_test.cpp **** 
  37:test/ConsumerProducer_CPP_API_test.cpp **** class Producer : public Thread {
  38:test/ConsumerProducer_CPP_API_test.cpp ****     thread_data *td;
  39:test/ConsumerProducer_CPP_API_test.cpp **** public:
  40:test/ConsumerProducer_CPP_API_test.cpp ****     Producer(thread_data *_td) : Thread(), td(_td) {}
  41:test/ConsumerProducer_CPP_API_test.cpp **** 
  42:test/ConsumerProducer_CPP_API_test.cpp ****     void run() override {
  43:test/ConsumerProducer_CPP_API_test.cpp ****         int i = 0;
  44:test/ConsumerProducer_CPP_API_test.cpp ****         while (!threadEnd) {
  45:test/ConsumerProducer_CPP_API_test.cpp ****             td->buffer->put(td->id + '0');
  46:test/ConsumerProducer_CPP_API_test.cpp ****             i++;
GAS LISTING /tmp/ccSxCaBq.s 			page 2


  47:test/ConsumerProducer_CPP_API_test.cpp ****             //Thread::sleep((i + td->id) % 5); ne radim asinhrono tako da ni sleep
  48:test/ConsumerProducer_CPP_API_test.cpp ****         }
  49:test/ConsumerProducer_CPP_API_test.cpp **** 
  50:test/ConsumerProducer_CPP_API_test.cpp ****         td->sem->signal();
  51:test/ConsumerProducer_CPP_API_test.cpp ****     }
  52:test/ConsumerProducer_CPP_API_test.cpp **** };
  53:test/ConsumerProducer_CPP_API_test.cpp **** 
  54:test/ConsumerProducer_CPP_API_test.cpp **** class Consumer : public Thread {
  55:test/ConsumerProducer_CPP_API_test.cpp ****     thread_data *td;
  56:test/ConsumerProducer_CPP_API_test.cpp **** public:
  57:test/ConsumerProducer_CPP_API_test.cpp ****     Consumer(thread_data *_td) : Thread(), td(_td) {}
  58:test/ConsumerProducer_CPP_API_test.cpp **** 
  59:test/ConsumerProducer_CPP_API_test.cpp ****     void run() override {
  13              		.loc 1 59 10
  14              		.cfi_startproc
  15              	.LVL0:
  16 0000 130101FD 		addi	sp,sp,-48
  17              		.cfi_def_cfa_offset 48
  18 0004 23341102 		sd	ra,40(sp)
  19 0008 23308102 		sd	s0,32(sp)
  20 000c 233C9100 		sd	s1,24(sp)
  21 0010 23382101 		sd	s2,16(sp)
  22 0014 23343101 		sd	s3,8(sp)
  23              		.cfi_offset 1, -8
  24              		.cfi_offset 8, -16
  25              		.cfi_offset 9, -24
  26              		.cfi_offset 18, -32
  27              		.cfi_offset 19, -40
  28 0018 13040103 		addi	s0,sp,48
  29              		.cfi_def_cfa 8, 0
  30 001c 13090500 		mv	s2,a0
  60:test/ConsumerProducer_CPP_API_test.cpp ****         int i = 0;
  31              		.loc 1 60 9
  32              	.LVL1:
  33              		.loc 1 60 13 is_stmt 0
  34 0020 93090000 		li	s3,0
  35 0024 6F000001 		j	.L2
  36              	.LVL2:
  37              	.L7:
  38              	.LBB23:
  61:test/ConsumerProducer_CPP_API_test.cpp ****         while (!threadEnd) {
  62:test/ConsumerProducer_CPP_API_test.cpp ****             int key = td->buffer->get();
  63:test/ConsumerProducer_CPP_API_test.cpp ****             i++;
  64:test/ConsumerProducer_CPP_API_test.cpp **** 
  65:test/ConsumerProducer_CPP_API_test.cpp ****             Console::putc(key);
  66:test/ConsumerProducer_CPP_API_test.cpp **** 
  67:test/ConsumerProducer_CPP_API_test.cpp ****             if (i % 80 == 0) {
  68:test/ConsumerProducer_CPP_API_test.cpp ****                 Console::putc('\n');
  39              		.loc 1 68 17 is_stmt 1
  40              		.loc 1 68 30 is_stmt 0
  41 0028 1305A000 		li	a0,10
  42 002c 97000000 		call	_ZN7Console4putcEc@plt
  42      E7800000 
  43              	.LVL3:
  44              	.L2:
  45              	.LBE23:
  61:test/ConsumerProducer_CPP_API_test.cpp ****         while (!threadEnd) {
GAS LISTING /tmp/ccSxCaBq.s 			page 3


  46              		.loc 1 61 9 is_stmt 1
  61:test/ConsumerProducer_CPP_API_test.cpp ****         while (!threadEnd) {
  47              		.loc 1 61 16
  48 0034 97070000 		lw	a5,.LANCHOR0
  48      83A70700 
  49 003c 639A0704 		bnez	a5,.L3
  50              	.LBB24:
  62:test/ConsumerProducer_CPP_API_test.cpp ****             i++;
  51              		.loc 1 62 13
  62:test/ConsumerProducer_CPP_API_test.cpp ****             i++;
  52              		.loc 1 62 23 is_stmt 0
  53 0040 83370902 		ld	a5,32(s2)
  62:test/ConsumerProducer_CPP_API_test.cpp ****             i++;
  54              		.loc 1 62 38
  55 0044 03B58700 		ld	a0,8(a5)
  56 0048 97000000 		call	_ZN9BufferCPP3getEv@plt
  56      E7800000 
  57              	.LVL4:
  63:test/ConsumerProducer_CPP_API_test.cpp **** 
  58              		.loc 1 63 13 is_stmt 1
  63:test/ConsumerProducer_CPP_API_test.cpp **** 
  59              		.loc 1 63 14 is_stmt 0
  60 0050 9B841900 		addiw	s1,s3,1
  61 0054 9B890400 		sext.w	s3,s1
  62              	.LVL5:
  65:test/ConsumerProducer_CPP_API_test.cpp **** 
  63              		.loc 1 65 13 is_stmt 1
  65:test/ConsumerProducer_CPP_API_test.cpp **** 
  64              		.loc 1 65 26 is_stmt 0
  65 0058 1375F50F 		andi	a0,a0,0xff
  66              	.LVL6:
  67 005c 97000000 		call	_ZN7Console4putcEc@plt
  67      E7800000 
  68              	.LVL7:
  67:test/ConsumerProducer_CPP_API_test.cpp ****                 Console::putc('\n');
  69              		.loc 1 67 13 is_stmt 1
  67:test/ConsumerProducer_CPP_API_test.cpp ****                 Console::putc('\n');
  70              		.loc 1 67 19 is_stmt 0
  71 0064 93070005 		li	a5,80
  72 0068 BBE4F402 		remw	s1,s1,a5
  73              	.LVL8:
  67:test/ConsumerProducer_CPP_API_test.cpp ****                 Console::putc('\n');
  74              		.loc 1 67 13
  75 006c E39404FC 		bnez	s1,.L2
  76 0070 6FF09FFB 		j	.L7
  77              	.L8:
  78              	.LBE24:
  79              	.LBB25:
  69:test/ConsumerProducer_CPP_API_test.cpp ****             }
  70:test/ConsumerProducer_CPP_API_test.cpp ****         }
  71:test/ConsumerProducer_CPP_API_test.cpp **** 
  72:test/ConsumerProducer_CPP_API_test.cpp ****         while (td->buffer->getCnt() > 0) {
  73:test/ConsumerProducer_CPP_API_test.cpp ****             int key = td->buffer->get();
  80              		.loc 1 73 13 is_stmt 1
  81              		.loc 1 73 23 is_stmt 0
  82 0074 83370902 		ld	a5,32(s2)
  83              		.loc 1 73 38
GAS LISTING /tmp/ccSxCaBq.s 			page 4


  84 0078 03B58700 		ld	a0,8(a5)
  85 007c 97000000 		call	_ZN9BufferCPP3getEv@plt
  85      E7800000 
  86              	.LVL9:
  74:test/ConsumerProducer_CPP_API_test.cpp ****             Console::putc(key);
  87              		.loc 1 74 13 is_stmt 1
  88              		.loc 1 74 26 is_stmt 0
  89 0084 1375F50F 		andi	a0,a0,0xff
  90              	.LVL10:
  91 0088 97000000 		call	_ZN7Console4putcEc@plt
  91      E7800000 
  92              	.LVL11:
  93              	.L3:
  94              	.LBE25:
  72:test/ConsumerProducer_CPP_API_test.cpp ****             int key = td->buffer->get();
  95              		.loc 1 72 9 is_stmt 1
  72:test/ConsumerProducer_CPP_API_test.cpp ****             int key = td->buffer->get();
  96              		.loc 1 72 37
  72:test/ConsumerProducer_CPP_API_test.cpp ****             int key = td->buffer->get();
  97              		.loc 1 72 16 is_stmt 0
  98 0090 83370902 		ld	a5,32(s2)
  72:test/ConsumerProducer_CPP_API_test.cpp ****             int key = td->buffer->get();
  99              		.loc 1 72 34
 100 0094 03B58700 		ld	a0,8(a5)
 101 0098 97000000 		call	_ZN9BufferCPP6getCntEv@plt
 101      E7800000 
 102              	.LVL12:
  72:test/ConsumerProducer_CPP_API_test.cpp ****             int key = td->buffer->get();
 103              		.loc 1 72 37
 104 00a0 E34AA0FC 		bgtz	a0,.L8
  75:test/ConsumerProducer_CPP_API_test.cpp ****         }
  76:test/ConsumerProducer_CPP_API_test.cpp **** 
  77:test/ConsumerProducer_CPP_API_test.cpp ****         td->sem->signal();
 105              		.loc 1 77 9 is_stmt 1
 106 00a4 83370902 		ld	a5,32(s2)
 107              		.loc 1 77 24 is_stmt 0
 108 00a8 03B50701 		ld	a0,16(a5)
 109 00ac 97000000 		call	_ZN9Semaphore6signalEv@plt
 109      E7800000 
 110              	.LVL13:
  78:test/ConsumerProducer_CPP_API_test.cpp ****     }
 111              		.loc 1 78 5
 112 00b4 83308102 		ld	ra,40(sp)
 113              		.cfi_restore 1
 114 00b8 03340102 		ld	s0,32(sp)
 115              		.cfi_restore 8
 116              		.cfi_def_cfa 2, 48
 117 00bc 83348101 		ld	s1,24(sp)
 118              		.cfi_restore 9
 119 00c0 03390101 		ld	s2,16(sp)
 120              		.cfi_restore 18
 121              	.LVL14:
 122 00c4 83398100 		ld	s3,8(sp)
 123              		.cfi_restore 19
 124              	.LVL15:
 125 00c8 13010103 		addi	sp,sp,48
 126              		.cfi_def_cfa_offset 0
GAS LISTING /tmp/ccSxCaBq.s 			page 5


 127 00cc 67800000 		jr	ra
 128              		.cfi_endproc
 129              	.LFE13:
 131              		.section	.text._ZN8ConsumerD2Ev,"axG",@progbits,_ZN8ConsumerD5Ev,comdat
 132              		.align	2
 133              		.weak	_ZN8ConsumerD2Ev
 135              	_ZN8ConsumerD2Ev:
 136              	.LFB16:
  54:test/ConsumerProducer_CPP_API_test.cpp ****     thread_data *td;
 137              		.loc 1 54 7 is_stmt 1
 138              		.cfi_startproc
 139              	.LVL16:
 140 0000 130101FF 		addi	sp,sp,-16
 141              		.cfi_def_cfa_offset 16
 142 0004 23341100 		sd	ra,8(sp)
 143 0008 23308100 		sd	s0,0(sp)
 144              		.cfi_offset 1, -8
 145              		.cfi_offset 8, -16
 146 000c 13040101 		addi	s0,sp,16
 147              		.cfi_def_cfa 8, 0
 148              	.LBB26:
  54:test/ConsumerProducer_CPP_API_test.cpp ****     thread_data *td;
 149              		.loc 1 54 7 is_stmt 0
 150 0010 97070000 		lla	a5,_ZTV8Consumer+16
 150      93870700 
 151 0018 2330F500 		sd	a5,0(a0)
 152 001c 97000000 		call	_ZN6ThreadD2Ev@plt
 152      E7800000 
 153              	.LVL17:
 154              	.LBE26:
 155 0024 83308100 		ld	ra,8(sp)
 156              		.cfi_restore 1
 157 0028 03340100 		ld	s0,0(sp)
 158              		.cfi_restore 8
 159              		.cfi_def_cfa 2, 16
 160 002c 13010101 		addi	sp,sp,16
 161              		.cfi_def_cfa_offset 0
 162 0030 67800000 		jr	ra
 163              		.cfi_endproc
 164              	.LFE16:
 166              		.weak	_ZN8ConsumerD1Ev
 167              		.set	_ZN8ConsumerD1Ev,_ZN8ConsumerD2Ev
 168              		.section	.text._ZN8ConsumerD0Ev,"axG",@progbits,_ZN8ConsumerD5Ev,comdat
 169              		.align	2
 170              		.weak	_ZN8ConsumerD0Ev
 172              	_ZN8ConsumerD0Ev:
 173              	.LFB18:
  54:test/ConsumerProducer_CPP_API_test.cpp ****     thread_data *td;
 174              		.loc 1 54 7 is_stmt 1
 175              		.cfi_startproc
 176              	.LVL18:
 177 0000 130101FE 		addi	sp,sp,-32
 178              		.cfi_def_cfa_offset 32
 179 0004 233C1100 		sd	ra,24(sp)
 180 0008 23388100 		sd	s0,16(sp)
 181 000c 23349100 		sd	s1,8(sp)
 182              		.cfi_offset 1, -8
GAS LISTING /tmp/ccSxCaBq.s 			page 6


 183              		.cfi_offset 8, -16
 184              		.cfi_offset 9, -24
 185 0010 13040102 		addi	s0,sp,32
 186              		.cfi_def_cfa 8, 0
 187 0014 93040500 		mv	s1,a0
 188              	.LVL19:
 189              	.LBB27:
 190              	.LBB28:
  54:test/ConsumerProducer_CPP_API_test.cpp ****     thread_data *td;
 191              		.loc 1 54 7 is_stmt 0
 192 0018 97070000 		lla	a5,_ZTV8Consumer+16
 192      93870700 
 193 0020 2330F500 		sd	a5,0(a0)
 194 0024 97000000 		call	_ZN6ThreadD2Ev@plt
 194      E7800000 
 195              	.LVL20:
 196              	.LBE28:
 197              	.LBE27:
 198 002c 13850400 		mv	a0,s1
 199 0030 97000000 		call	_ZdlPv@plt
 199      E7800000 
 200              	.LVL21:
 201 0038 83308101 		ld	ra,24(sp)
 202              		.cfi_restore 1
 203 003c 03340101 		ld	s0,16(sp)
 204              		.cfi_restore 8
 205              		.cfi_def_cfa 2, 32
 206 0040 83348100 		ld	s1,8(sp)
 207              		.cfi_restore 9
 208              	.LVL22:
 209 0044 13010102 		addi	sp,sp,32
 210              		.cfi_def_cfa_offset 0
 211 0048 67800000 		jr	ra
 212              		.cfi_endproc
 213              	.LFE18:
 215              		.section	.text._ZN16ProducerKeyboradD2Ev,"axG",@progbits,_ZN16ProducerKeyboradD5Ev,comdat
 216              		.align	2
 217              		.weak	_ZN16ProducerKeyboradD2Ev
 219              	_ZN16ProducerKeyboradD2Ev:
 220              	.LFB24:
  17:test/ConsumerProducer_CPP_API_test.cpp ****     thread_data *td;
 221              		.loc 1 17 7 is_stmt 1
 222              		.cfi_startproc
 223              	.LVL23:
 224 0000 130101FF 		addi	sp,sp,-16
 225              		.cfi_def_cfa_offset 16
 226 0004 23341100 		sd	ra,8(sp)
 227 0008 23308100 		sd	s0,0(sp)
 228              		.cfi_offset 1, -8
 229              		.cfi_offset 8, -16
 230 000c 13040101 		addi	s0,sp,16
 231              		.cfi_def_cfa 8, 0
 232              	.LBB29:
  17:test/ConsumerProducer_CPP_API_test.cpp ****     thread_data *td;
 233              		.loc 1 17 7 is_stmt 0
 234 0010 97070000 		lla	a5,_ZTV16ProducerKeyborad+16
 234      93870700 
GAS LISTING /tmp/ccSxCaBq.s 			page 7


 235 0018 2330F500 		sd	a5,0(a0)
 236 001c 97000000 		call	_ZN6ThreadD2Ev@plt
 236      E7800000 
 237              	.LVL24:
 238              	.LBE29:
 239 0024 83308100 		ld	ra,8(sp)
 240              		.cfi_restore 1
 241 0028 03340100 		ld	s0,0(sp)
 242              		.cfi_restore 8
 243              		.cfi_def_cfa 2, 16
 244 002c 13010101 		addi	sp,sp,16
 245              		.cfi_def_cfa_offset 0
 246 0030 67800000 		jr	ra
 247              		.cfi_endproc
 248              	.LFE24:
 250              		.weak	_ZN16ProducerKeyboradD1Ev
 251              		.set	_ZN16ProducerKeyboradD1Ev,_ZN16ProducerKeyboradD2Ev
 252              		.section	.text._ZN16ProducerKeyboradD0Ev,"axG",@progbits,_ZN16ProducerKeyboradD5Ev,comdat
 253              		.align	2
 254              		.weak	_ZN16ProducerKeyboradD0Ev
 256              	_ZN16ProducerKeyboradD0Ev:
 257              	.LFB26:
  17:test/ConsumerProducer_CPP_API_test.cpp ****     thread_data *td;
 258              		.loc 1 17 7 is_stmt 1
 259              		.cfi_startproc
 260              	.LVL25:
 261 0000 130101FE 		addi	sp,sp,-32
 262              		.cfi_def_cfa_offset 32
 263 0004 233C1100 		sd	ra,24(sp)
 264 0008 23388100 		sd	s0,16(sp)
 265 000c 23349100 		sd	s1,8(sp)
 266              		.cfi_offset 1, -8
 267              		.cfi_offset 8, -16
 268              		.cfi_offset 9, -24
 269 0010 13040102 		addi	s0,sp,32
 270              		.cfi_def_cfa 8, 0
 271 0014 93040500 		mv	s1,a0
 272              	.LVL26:
 273              	.LBB30:
 274              	.LBB31:
  17:test/ConsumerProducer_CPP_API_test.cpp ****     thread_data *td;
 275              		.loc 1 17 7 is_stmt 0
 276 0018 97070000 		lla	a5,_ZTV16ProducerKeyborad+16
 276      93870700 
 277 0020 2330F500 		sd	a5,0(a0)
 278 0024 97000000 		call	_ZN6ThreadD2Ev@plt
 278      E7800000 
 279              	.LVL27:
 280              	.LBE31:
 281              	.LBE30:
 282 002c 13850400 		mv	a0,s1
 283 0030 97000000 		call	_ZdlPv@plt
 283      E7800000 
 284              	.LVL28:
 285 0038 83308101 		ld	ra,24(sp)
 286              		.cfi_restore 1
 287 003c 03340101 		ld	s0,16(sp)
GAS LISTING /tmp/ccSxCaBq.s 			page 8


 288              		.cfi_restore 8
 289              		.cfi_def_cfa 2, 32
 290 0040 83348100 		ld	s1,8(sp)
 291              		.cfi_restore 9
 292              	.LVL29:
 293 0044 13010102 		addi	sp,sp,32
 294              		.cfi_def_cfa_offset 0
 295 0048 67800000 		jr	ra
 296              		.cfi_endproc
 297              	.LFE26:
 299              		.section	.text._ZN8ProducerD2Ev,"axG",@progbits,_ZN8ProducerD5Ev,comdat
 300              		.align	2
 301              		.weak	_ZN8ProducerD2Ev
 303              	_ZN8ProducerD2Ev:
 304              	.LFB20:
  37:test/ConsumerProducer_CPP_API_test.cpp ****     thread_data *td;
 305              		.loc 1 37 7 is_stmt 1
 306              		.cfi_startproc
 307              	.LVL30:
 308 0000 130101FF 		addi	sp,sp,-16
 309              		.cfi_def_cfa_offset 16
 310 0004 23341100 		sd	ra,8(sp)
 311 0008 23308100 		sd	s0,0(sp)
 312              		.cfi_offset 1, -8
 313              		.cfi_offset 8, -16
 314 000c 13040101 		addi	s0,sp,16
 315              		.cfi_def_cfa 8, 0
 316              	.LBB32:
  37:test/ConsumerProducer_CPP_API_test.cpp ****     thread_data *td;
 317              		.loc 1 37 7 is_stmt 0
 318 0010 97070000 		lla	a5,_ZTV8Producer+16
 318      93870700 
 319 0018 2330F500 		sd	a5,0(a0)
 320 001c 97000000 		call	_ZN6ThreadD2Ev@plt
 320      E7800000 
 321              	.LVL31:
 322              	.LBE32:
 323 0024 83308100 		ld	ra,8(sp)
 324              		.cfi_restore 1
 325 0028 03340100 		ld	s0,0(sp)
 326              		.cfi_restore 8
 327              		.cfi_def_cfa 2, 16
 328 002c 13010101 		addi	sp,sp,16
 329              		.cfi_def_cfa_offset 0
 330 0030 67800000 		jr	ra
 331              		.cfi_endproc
 332              	.LFE20:
 334              		.weak	_ZN8ProducerD1Ev
 335              		.set	_ZN8ProducerD1Ev,_ZN8ProducerD2Ev
 336              		.section	.text._ZN8ProducerD0Ev,"axG",@progbits,_ZN8ProducerD5Ev,comdat
 337              		.align	2
 338              		.weak	_ZN8ProducerD0Ev
 340              	_ZN8ProducerD0Ev:
 341              	.LFB22:
  37:test/ConsumerProducer_CPP_API_test.cpp ****     thread_data *td;
 342              		.loc 1 37 7 is_stmt 1
 343              		.cfi_startproc
GAS LISTING /tmp/ccSxCaBq.s 			page 9


 344              	.LVL32:
 345 0000 130101FE 		addi	sp,sp,-32
 346              		.cfi_def_cfa_offset 32
 347 0004 233C1100 		sd	ra,24(sp)
 348 0008 23388100 		sd	s0,16(sp)
 349 000c 23349100 		sd	s1,8(sp)
 350              		.cfi_offset 1, -8
 351              		.cfi_offset 8, -16
 352              		.cfi_offset 9, -24
 353 0010 13040102 		addi	s0,sp,32
 354              		.cfi_def_cfa 8, 0
 355 0014 93040500 		mv	s1,a0
 356              	.LVL33:
 357              	.LBB33:
 358              	.LBB34:
  37:test/ConsumerProducer_CPP_API_test.cpp ****     thread_data *td;
 359              		.loc 1 37 7 is_stmt 0
 360 0018 97070000 		lla	a5,_ZTV8Producer+16
 360      93870700 
 361 0020 2330F500 		sd	a5,0(a0)
 362 0024 97000000 		call	_ZN6ThreadD2Ev@plt
 362      E7800000 
 363              	.LVL34:
 364              	.LBE34:
 365              	.LBE33:
 366 002c 13850400 		mv	a0,s1
 367 0030 97000000 		call	_ZdlPv@plt
 367      E7800000 
 368              	.LVL35:
 369 0038 83308101 		ld	ra,24(sp)
 370              		.cfi_restore 1
 371 003c 03340101 		ld	s0,16(sp)
 372              		.cfi_restore 8
 373              		.cfi_def_cfa 2, 32
 374 0040 83348100 		ld	s1,8(sp)
 375              		.cfi_restore 9
 376              	.LVL36:
 377 0044 13010102 		addi	sp,sp,32
 378              		.cfi_def_cfa_offset 0
 379 0048 67800000 		jr	ra
 380              		.cfi_endproc
 381              	.LFE22:
 383              		.section	.text._ZN16ProducerKeyborad3runEv,"axG",@progbits,_ZN16ProducerKeyborad3runEv,comdat
 384              		.align	2
 385              		.weak	_ZN16ProducerKeyborad3runEv
 387              	_ZN16ProducerKeyborad3runEv:
 388              	.LFB5:
  22:test/ConsumerProducer_CPP_API_test.cpp ****         int key;
 389              		.loc 1 22 10 is_stmt 1
 390              		.cfi_startproc
 391              	.LVL37:
 392 0000 130101FE 		addi	sp,sp,-32
 393              		.cfi_def_cfa_offset 32
 394 0004 233C1100 		sd	ra,24(sp)
 395 0008 23388100 		sd	s0,16(sp)
 396 000c 23349100 		sd	s1,8(sp)
 397              		.cfi_offset 1, -8
GAS LISTING /tmp/ccSxCaBq.s 			page 10


 398              		.cfi_offset 8, -16
 399              		.cfi_offset 9, -24
 400 0010 13040102 		addi	s0,sp,32
 401              		.cfi_def_cfa 8, 0
 402 0014 93040500 		mv	s1,a0
  23:test/ConsumerProducer_CPP_API_test.cpp ****         int i = 0;
 403              		.loc 1 23 9
  24:test/ConsumerProducer_CPP_API_test.cpp ****         while ((key = getc()) != '`') {//bilo 0x1b
 404              		.loc 1 24 9
 405              	.LVL38:
 406              	.L23:
  25:test/ConsumerProducer_CPP_API_test.cpp ****             td->buffer->put(key);
 407              		.loc 1 25 9
  25:test/ConsumerProducer_CPP_API_test.cpp ****             td->buffer->put(key);
 408              		.loc 1 25 31
  25:test/ConsumerProducer_CPP_API_test.cpp ****             td->buffer->put(key);
 409              		.loc 1 25 27 is_stmt 0
 410 0018 97000000 		call	_Z4getcv@plt
 410      E7800000 
 411              	.LVL39:
  25:test/ConsumerProducer_CPP_API_test.cpp ****             td->buffer->put(key);
 412              		.loc 1 25 21
 413 0020 9B050500 		sext.w	a1,a0
 414              	.LVL40:
  25:test/ConsumerProducer_CPP_API_test.cpp ****             td->buffer->put(key);
 415              		.loc 1 25 31
 416 0024 93070006 		li	a5,96
 417 0028 638CF500 		beq	a1,a5,.L22
  26:test/ConsumerProducer_CPP_API_test.cpp ****             i++;
 418              		.loc 1 26 13 is_stmt 1
 419 002c 83B70402 		ld	a5,32(s1)
  26:test/ConsumerProducer_CPP_API_test.cpp ****             i++;
 420              		.loc 1 26 28 is_stmt 0
 421 0030 03B58700 		ld	a0,8(a5)
 422 0034 97000000 		call	_ZN9BufferCPP3putEi@plt
 422      E7800000 
 423              	.LVL41:
  27:test/ConsumerProducer_CPP_API_test.cpp ****         }
 424              		.loc 1 27 13 is_stmt 1
  25:test/ConsumerProducer_CPP_API_test.cpp ****             td->buffer->put(key);
 425              		.loc 1 25 9 is_stmt 0
 426 003c 6FF0DFFD 		j	.L23
 427              	.LVL42:
 428              	.L22:
  30:test/ConsumerProducer_CPP_API_test.cpp ****         td->buffer->put('!');
 429              		.loc 1 30 9 is_stmt 1
  30:test/ConsumerProducer_CPP_API_test.cpp ****         td->buffer->put('!');
 430              		.loc 1 30 19 is_stmt 0
 431 0040 93071000 		li	a5,1
 432 0044 17070000 		sw	a5,.LANCHOR0,a4
 432      2320F700 
  31:test/ConsumerProducer_CPP_API_test.cpp **** 
 433              		.loc 1 31 9 is_stmt 1
 434 004c 83B70402 		ld	a5,32(s1)
  31:test/ConsumerProducer_CPP_API_test.cpp **** 
 435              		.loc 1 31 24 is_stmt 0
 436 0050 93051002 		li	a1,33
GAS LISTING /tmp/ccSxCaBq.s 			page 11


 437              	.LVL43:
 438 0054 03B58700 		ld	a0,8(a5)
 439              	.LVL44:
 440 0058 97000000 		call	_ZN9BufferCPP3putEi@plt
 440      E7800000 
 441              	.LVL45:
  33:test/ConsumerProducer_CPP_API_test.cpp ****     }
 442              		.loc 1 33 9 is_stmt 1
 443 0060 83B70402 		ld	a5,32(s1)
  33:test/ConsumerProducer_CPP_API_test.cpp ****     }
 444              		.loc 1 33 24 is_stmt 0
 445 0064 03B50701 		ld	a0,16(a5)
 446 0068 97000000 		call	_ZN9Semaphore6signalEv@plt
 446      E7800000 
 447              	.LVL46:
  34:test/ConsumerProducer_CPP_API_test.cpp **** };
 448              		.loc 1 34 5
 449 0070 83308101 		ld	ra,24(sp)
 450              		.cfi_restore 1
 451 0074 03340101 		ld	s0,16(sp)
 452              		.cfi_restore 8
 453              		.cfi_def_cfa 2, 32
 454 0078 83348100 		ld	s1,8(sp)
 455              		.cfi_restore 9
 456              	.LVL47:
 457 007c 13010102 		addi	sp,sp,32
 458              		.cfi_def_cfa_offset 0
 459 0080 67800000 		jr	ra
 460              		.cfi_endproc
 461              	.LFE5:
 463              		.section	.text._ZN8Producer3runEv,"axG",@progbits,_ZN8Producer3runEv,comdat
 464              		.align	2
 465              		.weak	_ZN8Producer3runEv
 467              	_ZN8Producer3runEv:
 468              	.LFB9:
  42:test/ConsumerProducer_CPP_API_test.cpp ****         int i = 0;
 469              		.loc 1 42 10 is_stmt 1
 470              		.cfi_startproc
 471              	.LVL48:
 472 0000 130101FE 		addi	sp,sp,-32
 473              		.cfi_def_cfa_offset 32
 474 0004 233C1100 		sd	ra,24(sp)
 475 0008 23388100 		sd	s0,16(sp)
 476 000c 23349100 		sd	s1,8(sp)
 477              		.cfi_offset 1, -8
 478              		.cfi_offset 8, -16
 479              		.cfi_offset 9, -24
 480 0010 13040102 		addi	s0,sp,32
 481              		.cfi_def_cfa 8, 0
 482 0014 93040500 		mv	s1,a0
  43:test/ConsumerProducer_CPP_API_test.cpp ****         while (!threadEnd) {
 483              		.loc 1 43 9
 484              	.LVL49:
 485              	.L27:
  44:test/ConsumerProducer_CPP_API_test.cpp ****             td->buffer->put(td->id + '0');
 486              		.loc 1 44 9
  44:test/ConsumerProducer_CPP_API_test.cpp ****             td->buffer->put(td->id + '0');
GAS LISTING /tmp/ccSxCaBq.s 			page 12


 487              		.loc 1 44 16
 488 0018 97070000 		lw	a5,.LANCHOR0
 488      83A70700 
 489 0020 63900702 		bnez	a5,.L26
  45:test/ConsumerProducer_CPP_API_test.cpp ****             i++;
 490              		.loc 1 45 13
 491 0024 83B70402 		ld	a5,32(s1)
  45:test/ConsumerProducer_CPP_API_test.cpp ****             i++;
 492              		.loc 1 45 33 is_stmt 0
 493 0028 83A50700 		lw	a1,0(a5)
  45:test/ConsumerProducer_CPP_API_test.cpp ****             i++;
 494              		.loc 1 45 28
 495 002c 9B850503 		addiw	a1,a1,48
 496 0030 03B58700 		ld	a0,8(a5)
 497 0034 97000000 		call	_ZN9BufferCPP3putEi@plt
 497      E7800000 
 498              	.LVL50:
  46:test/ConsumerProducer_CPP_API_test.cpp ****             //Thread::sleep((i + td->id) % 5); ne radim asinhrono tako da ni sleep
 499              		.loc 1 46 13 is_stmt 1
  44:test/ConsumerProducer_CPP_API_test.cpp ****             td->buffer->put(td->id + '0');
 500              		.loc 1 44 9 is_stmt 0
 501 003c 6FF0DFFD 		j	.L27
 502              	.L26:
  50:test/ConsumerProducer_CPP_API_test.cpp ****     }
 503              		.loc 1 50 9 is_stmt 1
 504 0040 83B70402 		ld	a5,32(s1)
  50:test/ConsumerProducer_CPP_API_test.cpp ****     }
 505              		.loc 1 50 24 is_stmt 0
 506 0044 03B50701 		ld	a0,16(a5)
 507 0048 97000000 		call	_ZN9Semaphore6signalEv@plt
 507      E7800000 
 508              	.LVL51:
  51:test/ConsumerProducer_CPP_API_test.cpp **** };
 509              		.loc 1 51 5
 510 0050 83308101 		ld	ra,24(sp)
 511              		.cfi_restore 1
 512 0054 03340101 		ld	s0,16(sp)
 513              		.cfi_restore 8
 514              		.cfi_def_cfa 2, 32
 515 0058 83348100 		ld	s1,8(sp)
 516              		.cfi_restore 9
 517              	.LVL52:
 518 005c 13010102 		addi	sp,sp,32
 519              		.cfi_def_cfa_offset 0
 520 0060 67800000 		jr	ra
 521              		.cfi_endproc
 522              	.LFE9:
 524              		.section	.rodata.str1.8,"aMS",@progbits,1
 525              		.align	3
 526              	.LC0:
 527 0000 556E6573 		.string	"Unesite broj proizvodjaca?\n"
 527      69746520 
 527      62726F6A 
 527      2070726F 
 527      697A766F 
 528 001c 00000000 		.align	3
 529              	.LC1:
GAS LISTING /tmp/ccSxCaBq.s 			page 13


 530 0020 556E6573 		.string	"Unesite velicinu bafera?\n"
 530      69746520 
 530      76656C69 
 530      63696E75 
 530      20626166 
 531 003a 00000000 		.align	3
 531      0000
 532              	.LC2:
 533 0040 42726F6A 		.string	"Broj proizvodjaca "
 533      2070726F 
 533      697A766F 
 533      646A6163 
 533      612000
 534 0053 00000000 		.align	3
 534      00
 535              	.LC3:
 536 0058 20692076 		.string	" i velicina bafera "
 536      656C6963 
 536      696E6120 
 536      62616665 
 536      72612000 
 537 006c 00000000 		.align	3
 538              	.LC4:
 539 0070 2E0A00   		.string	".\n"
 540 0073 00000000 		.align	3
 540      00
 541              	.LC5:
 542 0078 42726F6A 		.string	"Broj proizvodjaca ne sme biti manji od velicine bafera!\n"
 542      2070726F 
 542      697A766F 
 542      646A6163 
 542      61206E65 
 543 00b1 00000000 		.align	3
 543      000000
 544              	.LC6:
 545 00b8 42726F6A 		.string	"Broj proizvodjaca mora biti veci od nula!\n"
 545      2070726F 
 545      697A766F 
 545      646A6163 
 545      61206D6F 
 546 00e3 00000000 		.align	3
 546      00
 547              	.LC7:
 548 00e8 474F544F 		.string	"GOTOV WAIT SAD IDE DELETE\n"
 548      56205741 
 548      49542053 
 548      41442049 
 548      44452044 
 549              		.text
 550              		.align	2
 551              		.globl	_Z20testConsumerProducerv
 553              	_Z20testConsumerProducerv:
 554              	.LFB14:
  79:test/ConsumerProducer_CPP_API_test.cpp **** };
  80:test/ConsumerProducer_CPP_API_test.cpp **** 
  81:test/ConsumerProducer_CPP_API_test.cpp **** void testConsumerProducer() {
 555              		.loc 1 81 29 is_stmt 1
GAS LISTING /tmp/ccSxCaBq.s 			page 14


 556              		.cfi_startproc
 557              		.cfi_personality 0x9b,DW.ref.__gxx_personality_v0
 558              		.cfi_lsda 0x1b,.LLSDA14
 559 0000 130101F8 		addi	sp,sp,-128
 560              		.cfi_def_cfa_offset 128
 561 0004 233C1106 		sd	ra,120(sp)
 562 0008 23388106 		sd	s0,112(sp)
 563 000c 23349106 		sd	s1,104(sp)
 564 0010 23302107 		sd	s2,96(sp)
 565 0014 233C3105 		sd	s3,88(sp)
 566 0018 23384105 		sd	s4,80(sp)
 567 001c 23345105 		sd	s5,72(sp)
 568 0020 23306105 		sd	s6,64(sp)
 569 0024 233C7103 		sd	s7,56(sp)
 570 0028 23388103 		sd	s8,48(sp)
 571 002c 23349103 		sd	s9,40(sp)
 572              		.cfi_offset 1, -8
 573              		.cfi_offset 8, -16
 574              		.cfi_offset 9, -24
 575              		.cfi_offset 18, -32
 576              		.cfi_offset 19, -40
 577              		.cfi_offset 20, -48
 578              		.cfi_offset 21, -56
 579              		.cfi_offset 22, -64
 580              		.cfi_offset 23, -72
 581              		.cfi_offset 24, -80
 582              		.cfi_offset 25, -88
 583 0030 13040108 		addi	s0,sp,128
 584              		.cfi_def_cfa 8, 0
  82:test/ConsumerProducer_CPP_API_test.cpp ****     char input[30];
  83:test/ConsumerProducer_CPP_API_test.cpp ****     int n, threadNum;
  84:test/ConsumerProducer_CPP_API_test.cpp **** 
  85:test/ConsumerProducer_CPP_API_test.cpp ****     printString("Unesite broj proizvodjaca?\n");
  86:test/ConsumerProducer_CPP_API_test.cpp ****     getString(input, 30);
  87:test/ConsumerProducer_CPP_API_test.cpp ****     threadNum = stringToInt(input);
  88:test/ConsumerProducer_CPP_API_test.cpp **** 
  89:test/ConsumerProducer_CPP_API_test.cpp ****     printString("Unesite velicinu bafera?\n");
  90:test/ConsumerProducer_CPP_API_test.cpp ****     getString(input, 30);
  91:test/ConsumerProducer_CPP_API_test.cpp ****     n = stringToInt(input);
  92:test/ConsumerProducer_CPP_API_test.cpp **** 
  93:test/ConsumerProducer_CPP_API_test.cpp ****     printString("Broj proizvodjaca ");
  94:test/ConsumerProducer_CPP_API_test.cpp ****     printInt(threadNum);
  95:test/ConsumerProducer_CPP_API_test.cpp ****     printString(" i velicina bafera ");
  96:test/ConsumerProducer_CPP_API_test.cpp ****     printInt(n);
  97:test/ConsumerProducer_CPP_API_test.cpp ****     printString(".\n");
  98:test/ConsumerProducer_CPP_API_test.cpp **** 
  99:test/ConsumerProducer_CPP_API_test.cpp ****     if (threadNum > n) {
 100:test/ConsumerProducer_CPP_API_test.cpp ****         printString("Broj proizvodjaca ne sme biti manji od velicine bafera!\n");
 101:test/ConsumerProducer_CPP_API_test.cpp ****         return;
 102:test/ConsumerProducer_CPP_API_test.cpp ****     } else if (threadNum < 1) {
 103:test/ConsumerProducer_CPP_API_test.cpp ****         printString("Broj proizvodjaca mora biti veci od nula!\n");
 104:test/ConsumerProducer_CPP_API_test.cpp ****         return;
 105:test/ConsumerProducer_CPP_API_test.cpp ****     }
 106:test/ConsumerProducer_CPP_API_test.cpp **** 
 107:test/ConsumerProducer_CPP_API_test.cpp ****     BufferCPP *buffer = new BufferCPP(n);
 108:test/ConsumerProducer_CPP_API_test.cpp **** 
 109:test/ConsumerProducer_CPP_API_test.cpp ****     waitForAll = new Semaphore(0);
GAS LISTING /tmp/ccSxCaBq.s 			page 15


 110:test/ConsumerProducer_CPP_API_test.cpp ****     Thread *producers[threadNum];
 111:test/ConsumerProducer_CPP_API_test.cpp ****     thread_data threadData[threadNum + 1];
 112:test/ConsumerProducer_CPP_API_test.cpp **** 
 113:test/ConsumerProducer_CPP_API_test.cpp ****     threadData[threadNum].id = threadNum;
 114:test/ConsumerProducer_CPP_API_test.cpp ****     threadData[threadNum].buffer = buffer;
 115:test/ConsumerProducer_CPP_API_test.cpp ****     threadData[threadNum].sem = waitForAll;
 116:test/ConsumerProducer_CPP_API_test.cpp ****     Thread *consumer = new Consumer(&threadData[threadNum]);
 117:test/ConsumerProducer_CPP_API_test.cpp ****     consumer->start();
 118:test/ConsumerProducer_CPP_API_test.cpp **** 
 119:test/ConsumerProducer_CPP_API_test.cpp ****     threadData[0].id = 0;
 120:test/ConsumerProducer_CPP_API_test.cpp ****     threadData[0].buffer = buffer;
 121:test/ConsumerProducer_CPP_API_test.cpp ****     threadData[0].sem = waitForAll;
 122:test/ConsumerProducer_CPP_API_test.cpp ****     producers[0] = new ProducerKeyborad(&threadData[0]);
 123:test/ConsumerProducer_CPP_API_test.cpp ****     producers[0]->start();
 124:test/ConsumerProducer_CPP_API_test.cpp **** 
 125:test/ConsumerProducer_CPP_API_test.cpp ****     for (int i = 1; i < threadNum; i++) {
 126:test/ConsumerProducer_CPP_API_test.cpp ****         threadData[i].id = i;
 127:test/ConsumerProducer_CPP_API_test.cpp ****         threadData[i].buffer = buffer;
 128:test/ConsumerProducer_CPP_API_test.cpp ****         threadData[i].sem = waitForAll;
 129:test/ConsumerProducer_CPP_API_test.cpp **** 
 130:test/ConsumerProducer_CPP_API_test.cpp ****         producers[i] = new Producer(&threadData[i]);
 131:test/ConsumerProducer_CPP_API_test.cpp ****         producers[i]->start();
 132:test/ConsumerProducer_CPP_API_test.cpp **** 
 133:test/ConsumerProducer_CPP_API_test.cpp ****     }
 134:test/ConsumerProducer_CPP_API_test.cpp **** 
 135:test/ConsumerProducer_CPP_API_test.cpp ****     Thread::dispatch();
 136:test/ConsumerProducer_CPP_API_test.cpp **** 
 137:test/ConsumerProducer_CPP_API_test.cpp ****     for (int i = 0; i <= threadNum; i++) {
 138:test/ConsumerProducer_CPP_API_test.cpp ****         waitForAll->wait();
 139:test/ConsumerProducer_CPP_API_test.cpp ****     }
 140:test/ConsumerProducer_CPP_API_test.cpp ****     printString("GOTOV WAIT SAD IDE DELETE\n");
 141:test/ConsumerProducer_CPP_API_test.cpp ****     delete waitForAll;
 142:test/ConsumerProducer_CPP_API_test.cpp ****     for (int i = 0; i < threadNum; i++) {
 143:test/ConsumerProducer_CPP_API_test.cpp ****         delete producers[i];
 144:test/ConsumerProducer_CPP_API_test.cpp ****     }
 145:test/ConsumerProducer_CPP_API_test.cpp ****     delete consumer;
 146:test/ConsumerProducer_CPP_API_test.cpp ****     delete buffer;
 585              		.loc 1 146 18 is_stmt 0
 586 0034 130C0100 		mv	s8,sp
  82:test/ConsumerProducer_CPP_API_test.cpp ****     char input[30];
 587              		.loc 1 82 5 is_stmt 1
  83:test/ConsumerProducer_CPP_API_test.cpp **** 
 588              		.loc 1 83 5
  85:test/ConsumerProducer_CPP_API_test.cpp ****     getString(input, 30);
 589              		.loc 1 85 5
  85:test/ConsumerProducer_CPP_API_test.cpp ****     getString(input, 30);
 590              		.loc 1 85 16 is_stmt 0
 591 0038 17050000 		lla	a0,.LC0
 591      13050500 
 592              	.LEHB0:
 593 0040 97000000 		call	_Z11printStringPKc@plt
 593      E7800000 
 594              	.LVL53:
  86:test/ConsumerProducer_CPP_API_test.cpp ****     threadNum = stringToInt(input);
 595              		.loc 1 86 5 is_stmt 1
  86:test/ConsumerProducer_CPP_API_test.cpp ****     threadNum = stringToInt(input);
 596              		.loc 1 86 14 is_stmt 0
GAS LISTING /tmp/ccSxCaBq.s 			page 16


 597 0048 9305E001 		li	a1,30
 598 004c 930404F8 		addi	s1,s0,-128
 599 0050 13850400 		mv	a0,s1
 600 0054 97000000 		call	_Z9getStringPci@plt
 600      E7800000 
 601              	.LVL54:
  87:test/ConsumerProducer_CPP_API_test.cpp **** 
 602              		.loc 1 87 5 is_stmt 1
  87:test/ConsumerProducer_CPP_API_test.cpp **** 
 603              		.loc 1 87 28 is_stmt 0
 604 005c 13850400 		mv	a0,s1
 605 0060 97000000 		call	_Z11stringToIntPKc@plt
 605      E7800000 
 606              	.LVL55:
 607 0068 93090500 		mv	s3,a0
 608              	.LVL56:
  89:test/ConsumerProducer_CPP_API_test.cpp ****     getString(input, 30);
 609              		.loc 1 89 5 is_stmt 1
  89:test/ConsumerProducer_CPP_API_test.cpp ****     getString(input, 30);
 610              		.loc 1 89 16 is_stmt 0
 611 006c 17050000 		lla	a0,.LC1
 611      13050500 
 612 0074 97000000 		call	_Z11printStringPKc@plt
 612      E7800000 
 613              	.LVL57:
  90:test/ConsumerProducer_CPP_API_test.cpp ****     n = stringToInt(input);
 614              		.loc 1 90 5 is_stmt 1
  90:test/ConsumerProducer_CPP_API_test.cpp ****     n = stringToInt(input);
 615              		.loc 1 90 14 is_stmt 0
 616 007c 9305E001 		li	a1,30
 617 0080 13850400 		mv	a0,s1
 618 0084 97000000 		call	_Z9getStringPci@plt
 618      E7800000 
 619              	.LVL58:
  91:test/ConsumerProducer_CPP_API_test.cpp **** 
 620              		.loc 1 91 5 is_stmt 1
  91:test/ConsumerProducer_CPP_API_test.cpp **** 
 621              		.loc 1 91 20 is_stmt 0
 622 008c 13850400 		mv	a0,s1
 623 0090 97000000 		call	_Z11stringToIntPKc@plt
 623      E7800000 
 624              	.LVL59:
 625 0098 93040500 		mv	s1,a0
 626              	.LVL60:
  93:test/ConsumerProducer_CPP_API_test.cpp ****     printInt(threadNum);
 627              		.loc 1 93 5 is_stmt 1
  93:test/ConsumerProducer_CPP_API_test.cpp ****     printInt(threadNum);
 628              		.loc 1 93 16 is_stmt 0
 629 009c 17050000 		lla	a0,.LC2
 629      13050500 
 630 00a4 97000000 		call	_Z11printStringPKc@plt
 630      E7800000 
 631              	.LVL61:
  94:test/ConsumerProducer_CPP_API_test.cpp ****     printString(" i velicina bafera ");
 632              		.loc 1 94 5 is_stmt 1
  94:test/ConsumerProducer_CPP_API_test.cpp ****     printString(" i velicina bafera ");
 633              		.loc 1 94 13 is_stmt 0
GAS LISTING /tmp/ccSxCaBq.s 			page 17


 634 00ac 13060000 		li	a2,0
 635 00b0 9305A000 		li	a1,10
 636 00b4 13850900 		mv	a0,s3
 637 00b8 97000000 		call	_Z8printIntiii@plt
 637      E7800000 
 638              	.LVL62:
  95:test/ConsumerProducer_CPP_API_test.cpp ****     printInt(n);
 639              		.loc 1 95 5 is_stmt 1
  95:test/ConsumerProducer_CPP_API_test.cpp ****     printInt(n);
 640              		.loc 1 95 16 is_stmt 0
 641 00c0 17050000 		lla	a0,.LC3
 641      13050500 
 642 00c8 97000000 		call	_Z11printStringPKc@plt
 642      E7800000 
 643              	.LVL63:
  96:test/ConsumerProducer_CPP_API_test.cpp ****     printString(".\n");
 644              		.loc 1 96 5 is_stmt 1
  96:test/ConsumerProducer_CPP_API_test.cpp ****     printString(".\n");
 645              		.loc 1 96 13 is_stmt 0
 646 00d0 13060000 		li	a2,0
 647 00d4 9305A000 		li	a1,10
 648 00d8 13850400 		mv	a0,s1
 649 00dc 97000000 		call	_Z8printIntiii@plt
 649      E7800000 
 650              	.LVL64:
  97:test/ConsumerProducer_CPP_API_test.cpp **** 
 651              		.loc 1 97 5 is_stmt 1
  97:test/ConsumerProducer_CPP_API_test.cpp **** 
 652              		.loc 1 97 16 is_stmt 0
 653 00e4 17050000 		lla	a0,.LC4
 653      13050500 
 654 00ec 97000000 		call	_Z11printStringPKc@plt
 654      E7800000 
 655              	.LVL65:
  99:test/ConsumerProducer_CPP_API_test.cpp ****         printString("Broj proizvodjaca ne sme biti manji od velicine bafera!\n");
 656              		.loc 1 99 5 is_stmt 1
 657 00f4 63C43403 		bgt	s3,s1,.L55
 102:test/ConsumerProducer_CPP_API_test.cpp ****         printString("Broj proizvodjaca mora biti veci od nula!\n");
 658              		.loc 1 102 12
 659 00f8 635C3003 		blez	s3,.L56
 107:test/ConsumerProducer_CPP_API_test.cpp **** 
 660              		.loc 1 107 5
 107:test/ConsumerProducer_CPP_API_test.cpp **** 
 661              		.loc 1 107 40 is_stmt 0
 662 00fc 13058003 		li	a0,56
 663 0100 97000000 		call	_Znwm@plt
 663      E7800000 
 664              	.LVL66:
 665              	.LEHE0:
 666 0108 930A0500 		mv	s5,a0
 667 010c 93850400 		mv	a1,s1
 668              	.LEHB1:
 669 0110 97000000 		call	_ZN9BufferCPPC1Ei@plt
 669      E7800000 
 670              	.LVL67:
 671              	.LEHE1:
 672 0118 6F000003 		j	.L57
GAS LISTING /tmp/ccSxCaBq.s 			page 18


 673              	.L55:
 100:test/ConsumerProducer_CPP_API_test.cpp ****         return;
 674              		.loc 1 100 9 is_stmt 1
 100:test/ConsumerProducer_CPP_API_test.cpp ****         return;
 675              		.loc 1 100 20 is_stmt 0
 676 011c 17050000 		lla	a0,.LC5
 676      13050500 
 677              	.LEHB2:
 678 0124 97000000 		call	_Z11printStringPKc@plt
 678      E7800000 
 679              	.LVL68:
 101:test/ConsumerProducer_CPP_API_test.cpp ****     } else if (threadNum < 1) {
 680              		.loc 1 101 9 is_stmt 1
 681 012c 6F004001 		j	.L31
 682              	.L56:
 103:test/ConsumerProducer_CPP_API_test.cpp ****         return;
 683              		.loc 1 103 9
 103:test/ConsumerProducer_CPP_API_test.cpp ****         return;
 684              		.loc 1 103 20 is_stmt 0
 685 0130 17050000 		lla	a0,.LC6
 685      13050500 
 686 0138 97000000 		call	_Z11printStringPKc@plt
 686      E7800000 
 687              	.LVL69:
 104:test/ConsumerProducer_CPP_API_test.cpp ****     }
 688              		.loc 1 104 9 is_stmt 1
 689              	.L31:
 690 0140 13010C00 		mv	sp,s8
 691 0144 6F004022 		j	.L29
 692              	.L57:
 693              	.LVL70:
 109:test/ConsumerProducer_CPP_API_test.cpp ****     Thread *producers[threadNum];
 694              		.loc 1 109 5 discriminator 3
 109:test/ConsumerProducer_CPP_API_test.cpp ****     Thread *producers[threadNum];
 695              		.loc 1 109 33 is_stmt 0 discriminator 3
 696 0148 13050001 		li	a0,16
 697 014c 97000000 		call	_Znwm@plt
 697      E7800000 
 698              	.LVL71:
 699              	.LEHE2:
 700 0154 13090500 		mv	s2,a0
 701 0158 93050000 		li	a1,0
 702              	.LEHB3:
 703 015c 97000000 		call	_ZN9SemaphoreC1Ej@plt
 703      E7800000 
 704              	.LVL72:
 705              	.LEHE3:
 109:test/ConsumerProducer_CPP_API_test.cpp ****     Thread *producers[threadNum];
 706              		.loc 1 109 16 discriminator 3
 707 0164 97070000 		sd	s2,.LANCHOR0+8,a5
 707      23B02701 
 110:test/ConsumerProducer_CPP_API_test.cpp ****     thread_data threadData[threadNum + 1];
 708              		.loc 1 110 5 is_stmt 1 discriminator 3
 709              	.LVL73:
 110:test/ConsumerProducer_CPP_API_test.cpp ****     thread_data threadData[threadNum + 1];
 710              		.loc 1 110 13 is_stmt 0 discriminator 3
 711 016c 93973900 		slli	a5,s3,3
GAS LISTING /tmp/ccSxCaBq.s 			page 19


 712 0170 9387F700 		addi	a5,a5,15
 713 0174 93F707FF 		andi	a5,a5,-16
 714 0178 3301F140 		sub	sp,sp,a5
 715 017c 130A0100 		mv	s4,sp
 716              	.LVL74:
 111:test/ConsumerProducer_CPP_API_test.cpp **** 
 717              		.loc 1 111 5 is_stmt 1 discriminator 3
 111:test/ConsumerProducer_CPP_API_test.cpp **** 
 718              		.loc 1 111 38 is_stmt 0 discriminator 3
 719 0180 1B871900 		addiw	a4,s3,1
 720              	.LVL75:
 111:test/ConsumerProducer_CPP_API_test.cpp **** 
 721              		.loc 1 111 17 discriminator 3
 722 0184 93171700 		slli	a5,a4,1
 723 0188 B387E700 		add	a5,a5,a4
 724 018c 93973700 		slli	a5,a5,3
 725 0190 9387F700 		addi	a5,a5,15
 726 0194 93F707FF 		andi	a5,a5,-16
 727 0198 3301F140 		sub	sp,sp,a5
 728              	.LVL76:
 729 019c 130B0100 		mv	s6,sp
 730              	.LVL77:
 113:test/ConsumerProducer_CPP_API_test.cpp ****     threadData[threadNum].buffer = buffer;
 731              		.loc 1 113 5 is_stmt 1 discriminator 3
 113:test/ConsumerProducer_CPP_API_test.cpp ****     threadData[threadNum].buffer = buffer;
 732              		.loc 1 113 30 is_stmt 0 discriminator 3
 733 01a0 93941900 		slli	s1,s3,1
 734              	.LVL78:
 735 01a4 B3843401 		add	s1,s1,s3
 736 01a8 93943400 		slli	s1,s1,3
 737 01ac B3049B00 		add	s1,s6,s1
 738 01b0 23A03401 		sw	s3,0(s1)
 114:test/ConsumerProducer_CPP_API_test.cpp ****     threadData[threadNum].sem = waitForAll;
 739              		.loc 1 114 5 is_stmt 1 discriminator 3
 114:test/ConsumerProducer_CPP_API_test.cpp ****     threadData[threadNum].sem = waitForAll;
 740              		.loc 1 114 34 is_stmt 0 discriminator 3
 741 01b4 23B45401 		sd	s5,8(s1)
 115:test/ConsumerProducer_CPP_API_test.cpp ****     Thread *consumer = new Consumer(&threadData[threadNum]);
 742              		.loc 1 115 5 is_stmt 1 discriminator 3
 115:test/ConsumerProducer_CPP_API_test.cpp ****     Thread *consumer = new Consumer(&threadData[threadNum]);
 743              		.loc 1 115 31 is_stmt 0 discriminator 3
 744 01b8 23B82401 		sd	s2,16(s1)
 116:test/ConsumerProducer_CPP_API_test.cpp ****     consumer->start();
 745              		.loc 1 116 5 is_stmt 1 discriminator 3
 116:test/ConsumerProducer_CPP_API_test.cpp ****     consumer->start();
 746              		.loc 1 116 59 is_stmt 0 discriminator 3
 747 01bc 13058002 		li	a0,40
 748              	.LEHB4:
 749 01c0 97000000 		call	_Znwm@plt
 749      E7800000 
 750              	.LVL79:
 751              	.LEHE4:
 752 01c8 930B0500 		mv	s7,a0
 753              	.LVL80:
 754              	.LEHB5:
 755              	.LBB35:
 756              	.LBB36:
GAS LISTING /tmp/ccSxCaBq.s 			page 20


  57:test/ConsumerProducer_CPP_API_test.cpp **** 
 757              		.loc 1 57 50 discriminator 3
 758 01cc 97000000 		call	_ZN6ThreadC2Ev@plt
 758      E7800000 
 759              	.LVL81:
 760              	.LEHE5:
  57:test/ConsumerProducer_CPP_API_test.cpp **** 
 761              		.loc 1 57 50
 762 01d4 97070000 		lla	a5,_ZTV8Consumer+16
 762      93870700 
 763 01dc 23B0FB00 		sd	a5,0(s7)
 764 01e0 23B09B02 		sd	s1,32(s7)
 765              	.LVL82:
 766              	.LBE36:
 767              	.LBE35:
 117:test/ConsumerProducer_CPP_API_test.cpp **** 
 768              		.loc 1 117 5 is_stmt 1
 117:test/ConsumerProducer_CPP_API_test.cpp **** 
 769              		.loc 1 117 20 is_stmt 0
 770 01e4 13850B00 		mv	a0,s7
 771              	.LEHB6:
 772 01e8 97000000 		call	_ZN6Thread5startEv@plt
 772      E7800000 
 773              	.LVL83:
 119:test/ConsumerProducer_CPP_API_test.cpp ****     threadData[0].buffer = buffer;
 774              		.loc 1 119 5 is_stmt 1
 119:test/ConsumerProducer_CPP_API_test.cpp ****     threadData[0].buffer = buffer;
 775              		.loc 1 119 22 is_stmt 0
 776 01f0 23200B00 		sw	zero,0(s6)
 120:test/ConsumerProducer_CPP_API_test.cpp ****     threadData[0].sem = waitForAll;
 777              		.loc 1 120 5 is_stmt 1
 120:test/ConsumerProducer_CPP_API_test.cpp ****     threadData[0].sem = waitForAll;
 778              		.loc 1 120 26 is_stmt 0
 779 01f4 23345B01 		sd	s5,8(s6)
 121:test/ConsumerProducer_CPP_API_test.cpp ****     producers[0] = new ProducerKeyborad(&threadData[0]);
 780              		.loc 1 121 5 is_stmt 1
 121:test/ConsumerProducer_CPP_API_test.cpp ****     producers[0] = new ProducerKeyborad(&threadData[0]);
 781              		.loc 1 121 23 is_stmt 0
 782 01f8 97070000 		ld	a5,.LANCHOR0+8
 782      83B70700 
 783 0200 2338FB00 		sd	a5,16(s6)
 122:test/ConsumerProducer_CPP_API_test.cpp ****     producers[0]->start();
 784              		.loc 1 122 5 is_stmt 1
 122:test/ConsumerProducer_CPP_API_test.cpp ****     producers[0]->start();
 785              		.loc 1 122 55 is_stmt 0
 786 0204 13058002 		li	a0,40
 787 0208 97000000 		call	_Znwm@plt
 787      E7800000 
 788              	.LVL84:
 789              	.LEHE6:
 790 0210 93040500 		mv	s1,a0
 791              	.LVL85:
 792              	.LEHB7:
 793              	.LBB37:
 794              	.LBB38:
  20:test/ConsumerProducer_CPP_API_test.cpp **** 
 795              		.loc 1 20 58
GAS LISTING /tmp/ccSxCaBq.s 			page 21


 796 0214 97000000 		call	_ZN6ThreadC2Ev@plt
 796      E7800000 
 797              	.LVL86:
 798              	.LEHE7:
 799 021c 97070000 		lla	a5,_ZTV16ProducerKeyborad+16
 799      93870700 
 800 0224 23B0F400 		sd	a5,0(s1)
 801 0228 23B06403 		sd	s6,32(s1)
 802              	.LVL87:
 803              	.LBE38:
 804              	.LBE37:
 122:test/ConsumerProducer_CPP_API_test.cpp ****     producers[0]->start();
 805              		.loc 1 122 18
 806 022c 23309A00 		sd	s1,0(s4)
 123:test/ConsumerProducer_CPP_API_test.cpp **** 
 807              		.loc 1 123 5 is_stmt 1
 123:test/ConsumerProducer_CPP_API_test.cpp **** 
 808              		.loc 1 123 24 is_stmt 0
 809 0230 13850400 		mv	a0,s1
 810              	.LEHB8:
 811 0234 97000000 		call	_ZN6Thread5startEv@plt
 811      E7800000 
 812              	.LVL88:
 813              	.LBB39:
 125:test/ConsumerProducer_CPP_API_test.cpp ****         threadData[i].id = i;
 814              		.loc 1 125 14
 815 023c 13091000 		li	s2,1
 816 0240 6F000003 		j	.L34
 817              	.LVL89:
 818              	.L58:
 819              	.LBB40:
 820              	.LBB41:
  40:test/ConsumerProducer_CPP_API_test.cpp **** 
 821              		.loc 1 40 50
 822 0244 97070000 		lla	a5,_ZTV8Producer+16
 822      93870700 
 823 024c 23B0FC00 		sd	a5,0(s9)
 824 0250 23B09C02 		sd	s1,32(s9)
 825              	.LVL90:
 826              	.LBE41:
 827              	.LBE40:
 130:test/ConsumerProducer_CPP_API_test.cpp ****         producers[i]->start();
 828              		.loc 1 130 22
 829 0254 93173900 		slli	a5,s2,3
 830 0258 B307FA00 		add	a5,s4,a5
 831 025c 23B09701 		sd	s9,0(a5)
 131:test/ConsumerProducer_CPP_API_test.cpp **** 
 832              		.loc 1 131 9 is_stmt 1
 131:test/ConsumerProducer_CPP_API_test.cpp **** 
 833              		.loc 1 131 28 is_stmt 0
 834 0260 13850C00 		mv	a0,s9
 835 0264 97000000 		call	_ZN6Thread5startEv@plt
 835      E7800000 
 836              	.LVL91:
 125:test/ConsumerProducer_CPP_API_test.cpp ****         threadData[i].id = i;
 837              		.loc 1 125 5 is_stmt 1
 838 026c 1B091900 		addiw	s2,s2,1
GAS LISTING /tmp/ccSxCaBq.s 			page 22


 839              	.LVL92:
 840              	.L34:
 125:test/ConsumerProducer_CPP_API_test.cpp ****         threadData[i].id = i;
 841              		.loc 1 125 23 discriminator 1
 842 0270 63523905 		bge	s2,s3,.L33
 126:test/ConsumerProducer_CPP_API_test.cpp ****         threadData[i].buffer = buffer;
 843              		.loc 1 126 9
 126:test/ConsumerProducer_CPP_API_test.cpp ****         threadData[i].buffer = buffer;
 844              		.loc 1 126 26 is_stmt 0
 845 0274 93141900 		slli	s1,s2,1
 846 0278 B3842401 		add	s1,s1,s2
 847 027c 93943400 		slli	s1,s1,3
 848 0280 B3049B00 		add	s1,s6,s1
 849 0284 23A02401 		sw	s2,0(s1)
 127:test/ConsumerProducer_CPP_API_test.cpp ****         threadData[i].sem = waitForAll;
 850              		.loc 1 127 9 is_stmt 1
 127:test/ConsumerProducer_CPP_API_test.cpp ****         threadData[i].sem = waitForAll;
 851              		.loc 1 127 30 is_stmt 0
 852 0288 23B45401 		sd	s5,8(s1)
 128:test/ConsumerProducer_CPP_API_test.cpp **** 
 853              		.loc 1 128 9 is_stmt 1
 128:test/ConsumerProducer_CPP_API_test.cpp **** 
 854              		.loc 1 128 27 is_stmt 0
 855 028c 97070000 		ld	a5,.LANCHOR0+8
 855      83B70700 
 856 0294 23B8F400 		sd	a5,16(s1)
 130:test/ConsumerProducer_CPP_API_test.cpp ****         producers[i]->start();
 857              		.loc 1 130 9 is_stmt 1
 130:test/ConsumerProducer_CPP_API_test.cpp ****         producers[i]->start();
 858              		.loc 1 130 51 is_stmt 0
 859 0298 13058002 		li	a0,40
 860 029c 97000000 		call	_Znwm@plt
 860      E7800000 
 861              	.LVL93:
 862              	.LEHE8:
 863 02a4 930C0500 		mv	s9,a0
 864              	.LVL94:
 865              	.LEHB9:
 866              	.LBB43:
 867              	.LBB42:
  40:test/ConsumerProducer_CPP_API_test.cpp **** 
 868              		.loc 1 40 50
 869 02a8 97000000 		call	_ZN6ThreadC2Ev@plt
 869      E7800000 
 870              	.LVL95:
 871              	.LEHE9:
 872 02b0 6FF05FF9 		j	.L58
 873              	.LVL96:
 874              	.L33:
 875              	.LBE42:
 876              	.LBE43:
 877              	.LBE39:
 135:test/ConsumerProducer_CPP_API_test.cpp **** 
 878              		.loc 1 135 5 is_stmt 1
 879              	.LEHB10:
 135:test/ConsumerProducer_CPP_API_test.cpp **** 
 880              		.loc 1 135 21 is_stmt 0
GAS LISTING /tmp/ccSxCaBq.s 			page 23


 881 02b4 97000000 		call	_ZN6Thread8dispatchEv@plt
 881      E7800000 
 882              	.LVL97:
 883              	.LBB44:
 137:test/ConsumerProducer_CPP_API_test.cpp ****         waitForAll->wait();
 884              		.loc 1 137 14
 885 02bc 93040000 		li	s1,0
 886              	.L36:
 887              	.LVL98:
 137:test/ConsumerProducer_CPP_API_test.cpp ****         waitForAll->wait();
 888              		.loc 1 137 23 is_stmt 1 discriminator 1
 889 02c0 63CE9900 		bgt	s1,s3,.L35
 138:test/ConsumerProducer_CPP_API_test.cpp ****     }
 890              		.loc 1 138 9
 138:test/ConsumerProducer_CPP_API_test.cpp ****     }
 891              		.loc 1 138 25 is_stmt 0
 892 02c4 17050000 		ld	a0,.LANCHOR0+8
 892      03350500 
 893 02cc 97000000 		call	_ZN9Semaphore4waitEv@plt
 893      E7800000 
 894              	.LVL99:
 137:test/ConsumerProducer_CPP_API_test.cpp ****         waitForAll->wait();
 895              		.loc 1 137 5 is_stmt 1
 896 02d4 9B841400 		addiw	s1,s1,1
 897              	.LVL100:
 898 02d8 6FF09FFE 		j	.L36
 899              	.LVL101:
 900              	.L35:
 901              	.LBE44:
 140:test/ConsumerProducer_CPP_API_test.cpp ****     delete waitForAll;
 902              		.loc 1 140 5
 140:test/ConsumerProducer_CPP_API_test.cpp ****     delete waitForAll;
 903              		.loc 1 140 16 is_stmt 0
 904 02dc 17050000 		lla	a0,.LC7
 904      13050500 
 905 02e4 97000000 		call	_Z11printStringPKc@plt
 905      E7800000 
 906              	.LVL102:
 141:test/ConsumerProducer_CPP_API_test.cpp ****     for (int i = 0; i < threadNum; i++) {
 907              		.loc 1 141 5 is_stmt 1
 141:test/ConsumerProducer_CPP_API_test.cpp ****     for (int i = 0; i < threadNum; i++) {
 908              		.loc 1 141 12 is_stmt 0
 909 02ec 17050000 		ld	a0,.LANCHOR0+8
 909      03350500 
 141:test/ConsumerProducer_CPP_API_test.cpp ****     for (int i = 0; i < threadNum; i++) {
 910              		.loc 1 141 22
 911 02f4 63080500 		beqz	a0,.L37
 141:test/ConsumerProducer_CPP_API_test.cpp ****     for (int i = 0; i < threadNum; i++) {
 912              		.loc 1 141 12 discriminator 1
 913 02f8 83370500 		ld	a5,0(a0)
 914 02fc 83B78700 		ld	a5,8(a5)
 915 0300 E7800700 		jalr	a5
 916              	.LVL103:
 917              	.L37:
 918              	.LBB45:
 137:test/ConsumerProducer_CPP_API_test.cpp ****         waitForAll->wait();
 919              		.loc 1 137 14 discriminator 1
GAS LISTING /tmp/ccSxCaBq.s 			page 24


 920 0304 93040000 		li	s1,0
 921              	.LVL104:
 922 0308 6F008000 		j	.L40
 923              	.LVL105:
 924              	.L39:
 925              	.LBE45:
 926              	.LBB46:
 142:test/ConsumerProducer_CPP_API_test.cpp ****         delete producers[i];
 927              		.loc 1 142 5 is_stmt 1 discriminator 2
 928 030c 9B841400 		addiw	s1,s1,1
 929              	.LVL106:
 930              	.L40:
 142:test/ConsumerProducer_CPP_API_test.cpp ****         delete producers[i];
 931              		.loc 1 142 23 discriminator 1
 932 0310 63D23403 		bge	s1,s3,.L38
 143:test/ConsumerProducer_CPP_API_test.cpp ****     }
 933              		.loc 1 143 9
 143:test/ConsumerProducer_CPP_API_test.cpp ****     }
 934              		.loc 1 143 27 is_stmt 0
 935 0314 93973400 		slli	a5,s1,3
 936 0318 B307FA00 		add	a5,s4,a5
 937 031c 03B50700 		ld	a0,0(a5)
 143:test/ConsumerProducer_CPP_API_test.cpp ****     }
 938              		.loc 1 143 28
 939 0320 E30605FE 		beqz	a0,.L39
 143:test/ConsumerProducer_CPP_API_test.cpp ****     }
 940              		.loc 1 143 27 discriminator 1
 941 0324 83370500 		ld	a5,0(a0)
 942 0328 83B78700 		ld	a5,8(a5)
 943 032c E7800700 		jalr	a5
 944              	.LVL107:
 945 0330 6FF0DFFD 		j	.L39
 946              	.L38:
 947              	.LBE46:
 145:test/ConsumerProducer_CPP_API_test.cpp ****     delete buffer;
 948              		.loc 1 145 5 is_stmt 1
 145:test/ConsumerProducer_CPP_API_test.cpp ****     delete buffer;
 949              		.loc 1 145 20 is_stmt 0
 950 0334 638A0B00 		beqz	s7,.L41
 145:test/ConsumerProducer_CPP_API_test.cpp ****     delete buffer;
 951              		.loc 1 145 12 discriminator 1
 952 0338 83B70B00 		ld	a5,0(s7)
 953 033c 83B78700 		ld	a5,8(a5)
 954 0340 13850B00 		mv	a0,s7
 955 0344 E7800700 		jalr	a5
 956              	.LVL108:
 957              	.L41:
 958              		.loc 1 146 5 is_stmt 1
 959              		.loc 1 146 18 is_stmt 0
 960 0348 638E0A00 		beqz	s5,.L42
 961              		.loc 1 146 12 discriminator 1
 962 034c 13850A00 		mv	a0,s5
 963 0350 97000000 		call	_ZN9BufferCPPD1Ev@plt
 963      E7800000 
 964              	.LVL109:
 965 0358 13850A00 		mv	a0,s5
 966 035c 97000000 		call	_ZdlPv@plt
GAS LISTING /tmp/ccSxCaBq.s 			page 25


 966      E7800000 
 967              	.LVL110:
 968              	.L42:
 969 0364 13010C00 		mv	sp,s8
 970              	.LVL111:
 971              	.L29:
 147:test/ConsumerProducer_CPP_API_test.cpp **** }
 972              		.loc 1 147 1
 973 0368 130104F8 		addi	sp,s0,-128
 974              		.cfi_remember_state
 975              		.cfi_def_cfa 2, 128
 976 036c 83308107 		ld	ra,120(sp)
 977              		.cfi_restore 1
 978 0370 03340107 		ld	s0,112(sp)
 979              		.cfi_restore 8
 980 0374 83348106 		ld	s1,104(sp)
 981              		.cfi_restore 9
 982 0378 03390106 		ld	s2,96(sp)
 983              		.cfi_restore 18
 984 037c 83398105 		ld	s3,88(sp)
 985              		.cfi_restore 19
 986              	.LVL112:
 987 0380 033A0105 		ld	s4,80(sp)
 988              		.cfi_restore 20
 989 0384 833A8104 		ld	s5,72(sp)
 990              		.cfi_restore 21
 991 0388 033B0104 		ld	s6,64(sp)
 992              		.cfi_restore 22
 993 038c 833B8103 		ld	s7,56(sp)
 994              		.cfi_restore 23
 995 0390 033C0103 		ld	s8,48(sp)
 996              		.cfi_restore 24
 997 0394 833C8102 		ld	s9,40(sp)
 998              		.cfi_restore 25
 999 0398 13010108 		addi	sp,sp,128
 1000              		.cfi_def_cfa_offset 0
 1001 039c 67800000 		jr	ra
 1002              	.LVL113:
 1003              	.L49:
 1004              		.cfi_restore_state
 1005 03a0 93040500 		mv	s1,a0
 1006              	.LVL114:
 107:test/ConsumerProducer_CPP_API_test.cpp **** 
 1007              		.loc 1 107 40
 1008 03a4 13850A00 		mv	a0,s5
 1009 03a8 97000000 		call	_ZdlPv@plt
 1009      E7800000 
 1010              	.LVL115:
 1011 03b0 13850400 		mv	a0,s1
 1012 03b4 97000000 		call	_Unwind_Resume@plt
 1012      E7800000 
 1013              	.LVL116:
 1014              	.L50:
 1015 03bc 93040500 		mv	s1,a0
 1016              	.LVL117:
 109:test/ConsumerProducer_CPP_API_test.cpp ****     Thread *producers[threadNum];
 1017              		.loc 1 109 33
GAS LISTING /tmp/ccSxCaBq.s 			page 26


 1018 03c0 13050900 		mv	a0,s2
 1019 03c4 97000000 		call	_ZdlPv@plt
 1019      E7800000 
 1020              	.LVL118:
 1021 03cc 13850400 		mv	a0,s1
 1022 03d0 97000000 		call	_Unwind_Resume@plt
 1022      E7800000 
 1023              	.LVL119:
 1024              	.L51:
 1025 03d8 93040500 		mv	s1,a0
 1026              	.LVL120:
 116:test/ConsumerProducer_CPP_API_test.cpp ****     consumer->start();
 1027              		.loc 1 116 59
 1028 03dc 13850B00 		mv	a0,s7
 1029 03e0 97000000 		call	_ZdlPv@plt
 1029      E7800000 
 1030              	.LVL121:
 1031 03e8 13850400 		mv	a0,s1
 1032 03ec 97000000 		call	_Unwind_Resume@plt
 1032      E7800000 
 1033              	.LVL122:
 1034              	.L52:
 1035 03f4 13090500 		mv	s2,a0
 122:test/ConsumerProducer_CPP_API_test.cpp ****     producers[0]->start();
 1036              		.loc 1 122 55
 1037 03f8 13850400 		mv	a0,s1
 1038 03fc 97000000 		call	_ZdlPv@plt
 1038      E7800000 
 1039              	.LVL123:
 1040 0404 13050900 		mv	a0,s2
 1041 0408 97000000 		call	_Unwind_Resume@plt
 1041      E7800000 
 1042              	.LVL124:
 1043              	.L53:
 1044 0410 93040500 		mv	s1,a0
 1045              	.LVL125:
 1046              	.LBB47:
 130:test/ConsumerProducer_CPP_API_test.cpp ****         producers[i]->start();
 1047              		.loc 1 130 51
 1048 0414 13850C00 		mv	a0,s9
 1049 0418 97000000 		call	_ZdlPv@plt
 1049      E7800000 
 1050              	.LVL126:
 1051 0420 13850400 		mv	a0,s1
 1052 0424 97000000 		call	_Unwind_Resume@plt
 1052      E7800000 
 1053              	.LVL127:
 1054              	.LEHE10:
 1055              	.LBE47:
 1056              		.cfi_endproc
 1057              	.LFE14:
 1058              		.globl	__gxx_personality_v0
 1059              		.section	.gcc_except_table,"a",@progbits
 1060              	.LLSDA14:
 1061 0000 FF       		.byte	0xff
 1062 0001 FF       		.byte	0xff
 1063 0002 03       		.byte	0x3
GAS LISTING /tmp/ccSxCaBq.s 			page 27


 1064 0003 8F01     		.byte	0x8f,0x1
 1065 0005 00000000 		.4byte	.LEHB0-.LFB14
 1066 0009 00000000 		.4byte	.LEHE0-.LEHB0
 1067 000d 00000000 		.4byte	0
 1068 0011 00       		.byte	0
 1069 0012 00000000 		.4byte	.LEHB1-.LFB14
 1070 0016 00000000 		.4byte	.LEHE1-.LEHB1
 1071 001a 00000000 		.4byte	.L49-.LFB14
 1072 001e 00       		.byte	0
 1073 001f 00000000 		.4byte	.LEHB2-.LFB14
 1074 0023 00000000 		.4byte	.LEHE2-.LEHB2
 1075 0027 00000000 		.4byte	0
 1076 002b 00       		.byte	0
 1077 002c 00000000 		.4byte	.LEHB3-.LFB14
 1078 0030 00000000 		.4byte	.LEHE3-.LEHB3
 1079 0034 00000000 		.4byte	.L50-.LFB14
 1080 0038 00       		.byte	0
 1081 0039 00000000 		.4byte	.LEHB4-.LFB14
 1082 003d 00000000 		.4byte	.LEHE4-.LEHB4
 1083 0041 00000000 		.4byte	0
 1084 0045 00       		.byte	0
 1085 0046 00000000 		.4byte	.LEHB5-.LFB14
 1086 004a 00000000 		.4byte	.LEHE5-.LEHB5
 1087 004e 00000000 		.4byte	.L51-.LFB14
 1088 0052 00       		.byte	0
 1089 0053 00000000 		.4byte	.LEHB6-.LFB14
 1090 0057 00000000 		.4byte	.LEHE6-.LEHB6
 1091 005b 00000000 		.4byte	0
 1092 005f 00       		.byte	0
 1093 0060 00000000 		.4byte	.LEHB7-.LFB14
 1094 0064 00000000 		.4byte	.LEHE7-.LEHB7
 1095 0068 00000000 		.4byte	.L52-.LFB14
 1096 006c 00       		.byte	0
 1097 006d 00000000 		.4byte	.LEHB8-.LFB14
 1098 0071 00000000 		.4byte	.LEHE8-.LEHB8
 1099 0075 00000000 		.4byte	0
 1100 0079 00       		.byte	0
 1101 007a 00000000 		.4byte	.LEHB9-.LFB14
 1102 007e 00000000 		.4byte	.LEHE9-.LEHB9
 1103 0082 00000000 		.4byte	.L53-.LFB14
 1104 0086 00       		.byte	0
 1105 0087 00000000 		.4byte	.LEHB10-.LFB14
 1106 008b 00000000 		.4byte	.LEHE10-.LEHB10
 1107 008f 00000000 		.4byte	0
 1108 0093 00       		.byte	0
 1109              		.text
 1111              		.weak	_ZTV16ProducerKeyborad
 1112              		.section	.data.rel.ro.local._ZTV16ProducerKeyborad,"awG",@progbits,_ZTV16ProducerKeyborad,comdat
 1113              		.align	3
 1116              	_ZTV16ProducerKeyborad:
 1117 0000 00000000 		.dword	0
 1117      00000000 
 1118 0008 00000000 		.dword	0
 1118      00000000 
 1119 0010 00000000 		.dword	_ZN16ProducerKeyboradD1Ev
 1119      00000000 
 1120 0018 00000000 		.dword	_ZN16ProducerKeyboradD0Ev
GAS LISTING /tmp/ccSxCaBq.s 			page 28


 1120      00000000 
 1121 0020 00000000 		.dword	_ZN16ProducerKeyborad3runEv
 1121      00000000 
 1122              		.weak	_ZTV8Producer
 1123              		.section	.data.rel.ro.local._ZTV8Producer,"awG",@progbits,_ZTV8Producer,comdat
 1124              		.align	3
 1127              	_ZTV8Producer:
 1128 0000 00000000 		.dword	0
 1128      00000000 
 1129 0008 00000000 		.dword	0
 1129      00000000 
 1130 0010 00000000 		.dword	_ZN8ProducerD1Ev
 1130      00000000 
 1131 0018 00000000 		.dword	_ZN8ProducerD0Ev
 1131      00000000 
 1132 0020 00000000 		.dword	_ZN8Producer3runEv
 1132      00000000 
 1133              		.weak	_ZTV8Consumer
 1134              		.section	.data.rel.ro.local._ZTV8Consumer,"awG",@progbits,_ZTV8Consumer,comdat
 1135              		.align	3
 1138              	_ZTV8Consumer:
 1139 0000 00000000 		.dword	0
 1139      00000000 
 1140 0008 00000000 		.dword	0
 1140      00000000 
 1141 0010 00000000 		.dword	_ZN8ConsumerD1Ev
 1141      00000000 
 1142 0018 00000000 		.dword	_ZN8ConsumerD0Ev
 1142      00000000 
 1143 0020 00000000 		.dword	_ZN8Consumer3runEv
 1143      00000000 
 1144              		.bss
 1145              		.align	3
 1146              		.set	.LANCHOR0,. + 0
 1149              	_ZL9threadEnd:
 1150 0000 00000000 		.zero	4
 1151 0004 00000000 		.zero	4
 1154              	_ZL10waitForAll:
 1155 0008 00000000 		.zero	8
 1155      00000000 
 1156              		.text
 1157              	.Letext0:
 1158              		.file 2 "test/../h/../h/../lib/hw.h"
 1159              		.file 3 "test/../h/syscall_cpp.hpp"
 1160              		.file 4 "test/../h/buffer_CPP_API.hpp"
 1161              		.file 5 "test/../h/../h/syscall_c.h"
 1162              		.file 6 "test/../h/../h/printing.hpp"
 4749              		.align	3
 4752              	DW.ref.__gxx_personality_v0:
 4753 0000 00000000 		.dword	__gxx_personality_v0
 4753      00000000 
 4754              		.ident	"GCC: (Ubuntu 9.4.0-1ubuntu1~20.04) 9.4.0"
 4755              		.section	.note.GNU-stack,"",@progbits
GAS LISTING /tmp/ccSxCaBq.s 			page 29

