GAS LISTING /tmp/cciIGWXT.s 			page 1


   1              		.file	"Threads_CPP_API_test.cpp"
   2              		.option pic
   3              		.option norelax
   4              		.text
   5              	.Ltext0:
   6              		.align	2
   8              	_ZL9fibonaccim:
   9              	.LFB2:
  10              		.file 1 "test/Threads_CPP_API_test.cpp"
   1:test/Threads_CPP_API_test.cpp **** #include "../h/syscall_cpp.hpp"
   2:test/Threads_CPP_API_test.cpp **** #include "../test/Threads_CPP_API_test.hpp"
   3:test/Threads_CPP_API_test.cpp **** 
   4:test/Threads_CPP_API_test.cpp **** #include "../h/printing.hpp"
   5:test/Threads_CPP_API_test.cpp **** 
   6:test/Threads_CPP_API_test.cpp **** static volatile bool finishedA = false;
   7:test/Threads_CPP_API_test.cpp **** static volatile bool finishedB = false;
   8:test/Threads_CPP_API_test.cpp **** static volatile bool finishedC = false;
   9:test/Threads_CPP_API_test.cpp **** static volatile bool finishedD = false;
  10:test/Threads_CPP_API_test.cpp **** 
  11:test/Threads_CPP_API_test.cpp **** static uint64 fibonacci(uint64 n) {
  11              		.loc 1 11 35
  12              		.cfi_startproc
  13              	.LVL0:
  14 0000 130101FE 		addi	sp,sp,-32
  15              		.cfi_def_cfa_offset 32
  16 0004 233C1100 		sd	ra,24(sp)
  17 0008 23388100 		sd	s0,16(sp)
  18 000c 23349100 		sd	s1,8(sp)
  19 0010 23302101 		sd	s2,0(sp)
  20              		.cfi_offset 1, -8
  21              		.cfi_offset 8, -16
  22              		.cfi_offset 9, -24
  23              		.cfi_offset 18, -32
  24 0014 13040102 		addi	s0,sp,32
  25              		.cfi_def_cfa 8, 0
  26 0018 93040500 		mv	s1,a0
  12:test/Threads_CPP_API_test.cpp ****     if (n == 0 || n == 1) { return n; }
  27              		.loc 1 12 5
  28 001c 93071000 		li	a5,1
  29 0020 63F8A702 		bleu	a0,a5,.L1
  13:test/Threads_CPP_API_test.cpp ****     if (n % 10 == 0) { thread_dispatch(); }
  30              		.loc 1 13 5
  31              		.loc 1 13 11 is_stmt 0
  32 0024 9307A000 		li	a5,10
  33 0028 B377F502 		remu	a5,a0,a5
  34              		.loc 1 13 5
  35 002c 638E0702 		beqz	a5,.L6
  36              	.LVL1:
  37              	.L3:
  14:test/Threads_CPP_API_test.cpp ****     return fibonacci(n - 1) + fibonacci(n - 2);
  38              		.loc 1 14 5 is_stmt 1
  39              		.loc 1 14 21 is_stmt 0
  40 0030 1385F4FF 		addi	a0,s1,-1
  41 0034 97000000 		call	_ZL9fibonaccim
  41      E7800000 
  42              	.LVL2:
  43 003c 13090500 		mv	s2,a0
GAS LISTING /tmp/cciIGWXT.s 			page 2


  44              		.loc 1 14 40
  45 0040 1385E4FF 		addi	a0,s1,-2
  46 0044 97000000 		call	_ZL9fibonaccim
  46      E7800000 
  47              	.LVL3:
  48              		.loc 1 14 46
  49 004c 3305A900 		add	a0,s2,a0
  50              	.L1:
  15:test/Threads_CPP_API_test.cpp **** }
  51              		.loc 1 15 1
  52 0050 83308101 		ld	ra,24(sp)
  53              		.cfi_remember_state
  54              		.cfi_restore 1
  55 0054 03340101 		ld	s0,16(sp)
  56              		.cfi_restore 8
  57              		.cfi_def_cfa 2, 32
  58 0058 83348100 		ld	s1,8(sp)
  59              		.cfi_restore 9
  60              	.LVL4:
  61 005c 03390100 		ld	s2,0(sp)
  62              		.cfi_restore 18
  63 0060 13010102 		addi	sp,sp,32
  64              		.cfi_def_cfa_offset 0
  65 0064 67800000 		jr	ra
  66              	.LVL5:
  67              	.L6:
  68              		.cfi_restore_state
  13:test/Threads_CPP_API_test.cpp ****     if (n % 10 == 0) { thread_dispatch(); }
  69              		.loc 1 13 24 is_stmt 1 discriminator 1
  13:test/Threads_CPP_API_test.cpp ****     if (n % 10 == 0) { thread_dispatch(); }
  70              		.loc 1 13 39 is_stmt 0 discriminator 1
  71 0068 97000000 		call	_Z15thread_dispatchv@plt
  71      E7800000 
  72              	.LVL6:
  73 0070 6FF01FFC 		j	.L3
  74              		.cfi_endproc
  75              	.LFE2:
  77              		.section	.text._ZN7WorkerAD2Ev,"axG",@progbits,_ZN7WorkerAD5Ev,comdat
  78              		.align	2
  79              		.weak	_ZN7WorkerAD2Ev
  81              	_ZN7WorkerAD2Ev:
  82              	.LFB37:
  16:test/Threads_CPP_API_test.cpp **** 
  17:test/Threads_CPP_API_test.cpp **** class WorkerA: public Thread {
  83              		.loc 1 17 7 is_stmt 1
  84              		.cfi_startproc
  85              	.LVL7:
  86 0000 130101FF 		addi	sp,sp,-16
  87              		.cfi_def_cfa_offset 16
  88 0004 23341100 		sd	ra,8(sp)
  89 0008 23308100 		sd	s0,0(sp)
  90              		.cfi_offset 1, -8
  91              		.cfi_offset 8, -16
  92 000c 13040101 		addi	s0,sp,16
  93              		.cfi_def_cfa 8, 0
  94              	.LBB28:
  95              		.loc 1 17 7 is_stmt 0
GAS LISTING /tmp/cciIGWXT.s 			page 3


  96 0010 97070000 		lla	a5,_ZTV7WorkerA+16
  96      93870700 
  97 0018 2330F500 		sd	a5,0(a0)
  98 001c 97000000 		call	_ZN6ThreadD2Ev@plt
  98      E7800000 
  99              	.LVL8:
 100              	.LBE28:
 101 0024 83308100 		ld	ra,8(sp)
 102              		.cfi_restore 1
 103 0028 03340100 		ld	s0,0(sp)
 104              		.cfi_restore 8
 105              		.cfi_def_cfa 2, 16
 106 002c 13010101 		addi	sp,sp,16
 107              		.cfi_def_cfa_offset 0
 108 0030 67800000 		jr	ra
 109              		.cfi_endproc
 110              	.LFE37:
 112              		.weak	_ZN7WorkerAD1Ev
 113              		.set	_ZN7WorkerAD1Ev,_ZN7WorkerAD2Ev
 114              		.section	.text._ZN7WorkerAD0Ev,"axG",@progbits,_ZN7WorkerAD5Ev,comdat
 115              		.align	2
 116              		.weak	_ZN7WorkerAD0Ev
 118              	_ZN7WorkerAD0Ev:
 119              	.LFB39:
 120              		.loc 1 17 7 is_stmt 1
 121              		.cfi_startproc
 122              	.LVL9:
 123 0000 130101FE 		addi	sp,sp,-32
 124              		.cfi_def_cfa_offset 32
 125 0004 233C1100 		sd	ra,24(sp)
 126 0008 23388100 		sd	s0,16(sp)
 127 000c 23349100 		sd	s1,8(sp)
 128              		.cfi_offset 1, -8
 129              		.cfi_offset 8, -16
 130              		.cfi_offset 9, -24
 131 0010 13040102 		addi	s0,sp,32
 132              		.cfi_def_cfa 8, 0
 133 0014 93040500 		mv	s1,a0
 134              	.LVL10:
 135              	.LBB29:
 136              	.LBB30:
 137              		.loc 1 17 7 is_stmt 0
 138 0018 97070000 		lla	a5,_ZTV7WorkerA+16
 138      93870700 
 139 0020 2330F500 		sd	a5,0(a0)
 140 0024 97000000 		call	_ZN6ThreadD2Ev@plt
 140      E7800000 
 141              	.LVL11:
 142              	.LBE30:
 143              	.LBE29:
 144 002c 13850400 		mv	a0,s1
 145 0030 97000000 		call	_ZdlPv@plt
 145      E7800000 
 146              	.LVL12:
 147 0038 83308101 		ld	ra,24(sp)
 148              		.cfi_restore 1
 149 003c 03340101 		ld	s0,16(sp)
GAS LISTING /tmp/cciIGWXT.s 			page 4


 150              		.cfi_restore 8
 151              		.cfi_def_cfa 2, 32
 152 0040 83348100 		ld	s1,8(sp)
 153              		.cfi_restore 9
 154              	.LVL13:
 155 0044 13010102 		addi	sp,sp,32
 156              		.cfi_def_cfa_offset 0
 157 0048 67800000 		jr	ra
 158              		.cfi_endproc
 159              	.LFE39:
 161              		.section	.text._ZN7WorkerBD2Ev,"axG",@progbits,_ZN7WorkerBD5Ev,comdat
 162              		.align	2
 163              		.weak	_ZN7WorkerBD2Ev
 165              	_ZN7WorkerBD2Ev:
 166              	.LFB33:
  18:test/Threads_CPP_API_test.cpp ****     void workerBodyA(void* arg);
  19:test/Threads_CPP_API_test.cpp **** public:
  20:test/Threads_CPP_API_test.cpp ****     WorkerA():Thread() {}
  21:test/Threads_CPP_API_test.cpp **** 
  22:test/Threads_CPP_API_test.cpp ****     void run() override {
  23:test/Threads_CPP_API_test.cpp ****         workerBodyA(nullptr);
  24:test/Threads_CPP_API_test.cpp ****     }
  25:test/Threads_CPP_API_test.cpp **** };
  26:test/Threads_CPP_API_test.cpp **** 
  27:test/Threads_CPP_API_test.cpp **** class WorkerB: public Thread {
 167              		.loc 1 27 7 is_stmt 1
 168              		.cfi_startproc
 169              	.LVL14:
 170 0000 130101FF 		addi	sp,sp,-16
 171              		.cfi_def_cfa_offset 16
 172 0004 23341100 		sd	ra,8(sp)
 173 0008 23308100 		sd	s0,0(sp)
 174              		.cfi_offset 1, -8
 175              		.cfi_offset 8, -16
 176 000c 13040101 		addi	s0,sp,16
 177              		.cfi_def_cfa 8, 0
 178              	.LBB31:
 179              		.loc 1 27 7 is_stmt 0
 180 0010 97070000 		lla	a5,_ZTV7WorkerB+16
 180      93870700 
 181 0018 2330F500 		sd	a5,0(a0)
 182 001c 97000000 		call	_ZN6ThreadD2Ev@plt
 182      E7800000 
 183              	.LVL15:
 184              	.LBE31:
 185 0024 83308100 		ld	ra,8(sp)
 186              		.cfi_restore 1
 187 0028 03340100 		ld	s0,0(sp)
 188              		.cfi_restore 8
 189              		.cfi_def_cfa 2, 16
 190 002c 13010101 		addi	sp,sp,16
 191              		.cfi_def_cfa_offset 0
 192 0030 67800000 		jr	ra
 193              		.cfi_endproc
 194              	.LFE33:
 196              		.weak	_ZN7WorkerBD1Ev
 197              		.set	_ZN7WorkerBD1Ev,_ZN7WorkerBD2Ev
GAS LISTING /tmp/cciIGWXT.s 			page 5


 198              		.section	.text._ZN7WorkerBD0Ev,"axG",@progbits,_ZN7WorkerBD5Ev,comdat
 199              		.align	2
 200              		.weak	_ZN7WorkerBD0Ev
 202              	_ZN7WorkerBD0Ev:
 203              	.LFB35:
 204              		.loc 1 27 7 is_stmt 1
 205              		.cfi_startproc
 206              	.LVL16:
 207 0000 130101FE 		addi	sp,sp,-32
 208              		.cfi_def_cfa_offset 32
 209 0004 233C1100 		sd	ra,24(sp)
 210 0008 23388100 		sd	s0,16(sp)
 211 000c 23349100 		sd	s1,8(sp)
 212              		.cfi_offset 1, -8
 213              		.cfi_offset 8, -16
 214              		.cfi_offset 9, -24
 215 0010 13040102 		addi	s0,sp,32
 216              		.cfi_def_cfa 8, 0
 217 0014 93040500 		mv	s1,a0
 218              	.LVL17:
 219              	.LBB32:
 220              	.LBB33:
 221              		.loc 1 27 7 is_stmt 0
 222 0018 97070000 		lla	a5,_ZTV7WorkerB+16
 222      93870700 
 223 0020 2330F500 		sd	a5,0(a0)
 224 0024 97000000 		call	_ZN6ThreadD2Ev@plt
 224      E7800000 
 225              	.LVL18:
 226              	.LBE33:
 227              	.LBE32:
 228 002c 13850400 		mv	a0,s1
 229 0030 97000000 		call	_ZdlPv@plt
 229      E7800000 
 230              	.LVL19:
 231 0038 83308101 		ld	ra,24(sp)
 232              		.cfi_restore 1
 233 003c 03340101 		ld	s0,16(sp)
 234              		.cfi_restore 8
 235              		.cfi_def_cfa 2, 32
 236 0040 83348100 		ld	s1,8(sp)
 237              		.cfi_restore 9
 238              	.LVL20:
 239 0044 13010102 		addi	sp,sp,32
 240              		.cfi_def_cfa_offset 0
 241 0048 67800000 		jr	ra
 242              		.cfi_endproc
 243              	.LFE35:
 245              		.section	.text._ZN7WorkerCD2Ev,"axG",@progbits,_ZN7WorkerCD5Ev,comdat
 246              		.align	2
 247              		.weak	_ZN7WorkerCD2Ev
 249              	_ZN7WorkerCD2Ev:
 250              	.LFB29:
  28:test/Threads_CPP_API_test.cpp ****     void workerBodyB(void* arg);
  29:test/Threads_CPP_API_test.cpp **** public:
  30:test/Threads_CPP_API_test.cpp ****     WorkerB():Thread() {}
  31:test/Threads_CPP_API_test.cpp **** 
GAS LISTING /tmp/cciIGWXT.s 			page 6


  32:test/Threads_CPP_API_test.cpp ****     void run() override {
  33:test/Threads_CPP_API_test.cpp ****         workerBodyB(nullptr);
  34:test/Threads_CPP_API_test.cpp ****     }
  35:test/Threads_CPP_API_test.cpp **** };
  36:test/Threads_CPP_API_test.cpp **** 
  37:test/Threads_CPP_API_test.cpp **** class WorkerC: public Thread {
 251              		.loc 1 37 7 is_stmt 1
 252              		.cfi_startproc
 253              	.LVL21:
 254 0000 130101FF 		addi	sp,sp,-16
 255              		.cfi_def_cfa_offset 16
 256 0004 23341100 		sd	ra,8(sp)
 257 0008 23308100 		sd	s0,0(sp)
 258              		.cfi_offset 1, -8
 259              		.cfi_offset 8, -16
 260 000c 13040101 		addi	s0,sp,16
 261              		.cfi_def_cfa 8, 0
 262              	.LBB34:
 263              		.loc 1 37 7 is_stmt 0
 264 0010 97070000 		lla	a5,_ZTV7WorkerC+16
 264      93870700 
 265 0018 2330F500 		sd	a5,0(a0)
 266 001c 97000000 		call	_ZN6ThreadD2Ev@plt
 266      E7800000 
 267              	.LVL22:
 268              	.LBE34:
 269 0024 83308100 		ld	ra,8(sp)
 270              		.cfi_restore 1
 271 0028 03340100 		ld	s0,0(sp)
 272              		.cfi_restore 8
 273              		.cfi_def_cfa 2, 16
 274 002c 13010101 		addi	sp,sp,16
 275              		.cfi_def_cfa_offset 0
 276 0030 67800000 		jr	ra
 277              		.cfi_endproc
 278              	.LFE29:
 280              		.weak	_ZN7WorkerCD1Ev
 281              		.set	_ZN7WorkerCD1Ev,_ZN7WorkerCD2Ev
 282              		.section	.text._ZN7WorkerCD0Ev,"axG",@progbits,_ZN7WorkerCD5Ev,comdat
 283              		.align	2
 284              		.weak	_ZN7WorkerCD0Ev
 286              	_ZN7WorkerCD0Ev:
 287              	.LFB31:
 288              		.loc 1 37 7 is_stmt 1
 289              		.cfi_startproc
 290              	.LVL23:
 291 0000 130101FE 		addi	sp,sp,-32
 292              		.cfi_def_cfa_offset 32
 293 0004 233C1100 		sd	ra,24(sp)
 294 0008 23388100 		sd	s0,16(sp)
 295 000c 23349100 		sd	s1,8(sp)
 296              		.cfi_offset 1, -8
 297              		.cfi_offset 8, -16
 298              		.cfi_offset 9, -24
 299 0010 13040102 		addi	s0,sp,32
 300              		.cfi_def_cfa 8, 0
 301 0014 93040500 		mv	s1,a0
GAS LISTING /tmp/cciIGWXT.s 			page 7


 302              	.LVL24:
 303              	.LBB35:
 304              	.LBB36:
 305              		.loc 1 37 7 is_stmt 0
 306 0018 97070000 		lla	a5,_ZTV7WorkerC+16
 306      93870700 
 307 0020 2330F500 		sd	a5,0(a0)
 308 0024 97000000 		call	_ZN6ThreadD2Ev@plt
 308      E7800000 
 309              	.LVL25:
 310              	.LBE36:
 311              	.LBE35:
 312 002c 13850400 		mv	a0,s1
 313 0030 97000000 		call	_ZdlPv@plt
 313      E7800000 
 314              	.LVL26:
 315 0038 83308101 		ld	ra,24(sp)
 316              		.cfi_restore 1
 317 003c 03340101 		ld	s0,16(sp)
 318              		.cfi_restore 8
 319              		.cfi_def_cfa 2, 32
 320 0040 83348100 		ld	s1,8(sp)
 321              		.cfi_restore 9
 322              	.LVL27:
 323 0044 13010102 		addi	sp,sp,32
 324              		.cfi_def_cfa_offset 0
 325 0048 67800000 		jr	ra
 326              		.cfi_endproc
 327              	.LFE31:
 329              		.section	.text._ZN7WorkerDD2Ev,"axG",@progbits,_ZN7WorkerDD5Ev,comdat
 330              		.align	2
 331              		.weak	_ZN7WorkerDD2Ev
 333              	_ZN7WorkerDD2Ev:
 334              	.LFB25:
  38:test/Threads_CPP_API_test.cpp ****     void workerBodyC(void* arg);
  39:test/Threads_CPP_API_test.cpp **** public:
  40:test/Threads_CPP_API_test.cpp ****     WorkerC():Thread() {}
  41:test/Threads_CPP_API_test.cpp **** 
  42:test/Threads_CPP_API_test.cpp ****     void run() override {
  43:test/Threads_CPP_API_test.cpp ****         workerBodyC(nullptr);
  44:test/Threads_CPP_API_test.cpp ****     }
  45:test/Threads_CPP_API_test.cpp **** };
  46:test/Threads_CPP_API_test.cpp **** 
  47:test/Threads_CPP_API_test.cpp **** class WorkerD: public Thread {
 335              		.loc 1 47 7 is_stmt 1
 336              		.cfi_startproc
 337              	.LVL28:
 338 0000 130101FF 		addi	sp,sp,-16
 339              		.cfi_def_cfa_offset 16
 340 0004 23341100 		sd	ra,8(sp)
 341 0008 23308100 		sd	s0,0(sp)
 342              		.cfi_offset 1, -8
 343              		.cfi_offset 8, -16
 344 000c 13040101 		addi	s0,sp,16
 345              		.cfi_def_cfa 8, 0
 346              	.LBB37:
 347              		.loc 1 47 7 is_stmt 0
GAS LISTING /tmp/cciIGWXT.s 			page 8


 348 0010 97070000 		lla	a5,_ZTV7WorkerD+16
 348      93870700 
 349 0018 2330F500 		sd	a5,0(a0)
 350 001c 97000000 		call	_ZN6ThreadD2Ev@plt
 350      E7800000 
 351              	.LVL29:
 352              	.LBE37:
 353 0024 83308100 		ld	ra,8(sp)
 354              		.cfi_restore 1
 355 0028 03340100 		ld	s0,0(sp)
 356              		.cfi_restore 8
 357              		.cfi_def_cfa 2, 16
 358 002c 13010101 		addi	sp,sp,16
 359              		.cfi_def_cfa_offset 0
 360 0030 67800000 		jr	ra
 361              		.cfi_endproc
 362              	.LFE25:
 364              		.weak	_ZN7WorkerDD1Ev
 365              		.set	_ZN7WorkerDD1Ev,_ZN7WorkerDD2Ev
 366              		.section	.text._ZN7WorkerDD0Ev,"axG",@progbits,_ZN7WorkerDD5Ev,comdat
 367              		.align	2
 368              		.weak	_ZN7WorkerDD0Ev
 370              	_ZN7WorkerDD0Ev:
 371              	.LFB27:
 372              		.loc 1 47 7 is_stmt 1
 373              		.cfi_startproc
 374              	.LVL30:
 375 0000 130101FE 		addi	sp,sp,-32
 376              		.cfi_def_cfa_offset 32
 377 0004 233C1100 		sd	ra,24(sp)
 378 0008 23388100 		sd	s0,16(sp)
 379 000c 23349100 		sd	s1,8(sp)
 380              		.cfi_offset 1, -8
 381              		.cfi_offset 8, -16
 382              		.cfi_offset 9, -24
 383 0010 13040102 		addi	s0,sp,32
 384              		.cfi_def_cfa 8, 0
 385 0014 93040500 		mv	s1,a0
 386              	.LVL31:
 387              	.LBB38:
 388              	.LBB39:
 389              		.loc 1 47 7 is_stmt 0
 390 0018 97070000 		lla	a5,_ZTV7WorkerD+16
 390      93870700 
 391 0020 2330F500 		sd	a5,0(a0)
 392 0024 97000000 		call	_ZN6ThreadD2Ev@plt
 392      E7800000 
 393              	.LVL32:
 394              	.LBE39:
 395              	.LBE38:
 396 002c 13850400 		mv	a0,s1
 397 0030 97000000 		call	_ZdlPv@plt
 397      E7800000 
 398              	.LVL33:
 399 0038 83308101 		ld	ra,24(sp)
 400              		.cfi_restore 1
 401 003c 03340101 		ld	s0,16(sp)
GAS LISTING /tmp/cciIGWXT.s 			page 9


 402              		.cfi_restore 8
 403              		.cfi_def_cfa 2, 32
 404 0040 83348100 		ld	s1,8(sp)
 405              		.cfi_restore 9
 406              	.LVL34:
 407 0044 13010102 		addi	sp,sp,32
 408              		.cfi_def_cfa_offset 0
 409 0048 67800000 		jr	ra
 410              		.cfi_endproc
 411              	.LFE27:
 413              		.section	.rodata.str1.8,"aMS",@progbits,1
 414              		.align	3
 415              	.LC0:
 416 0000 413A2069 		.string	"A: i="
 416      3D00
 417 0006 0000     		.align	3
 418              	.LC1:
 419 0008 0A00     		.string	"\n"
 420 000a 00000000 		.align	3
 420      0000
 421              	.LC2:
 422 0010 41206669 		.string	"A finished!\n"
 422      6E697368 
 422      6564210A 
 422      00
 423              		.text
 424              		.align	2
 425              		.globl	_ZN7WorkerA11workerBodyAEPv
 427              	_ZN7WorkerA11workerBodyAEPv:
 428              	.LFB19:
  48:test/Threads_CPP_API_test.cpp ****     void workerBodyD(void* arg);
  49:test/Threads_CPP_API_test.cpp **** public:
  50:test/Threads_CPP_API_test.cpp ****     WorkerD():Thread() {}
  51:test/Threads_CPP_API_test.cpp **** 
  52:test/Threads_CPP_API_test.cpp ****     void run() override {
  53:test/Threads_CPP_API_test.cpp ****         workerBodyD(nullptr);
  54:test/Threads_CPP_API_test.cpp ****     }
  55:test/Threads_CPP_API_test.cpp **** };
  56:test/Threads_CPP_API_test.cpp **** 
  57:test/Threads_CPP_API_test.cpp **** void WorkerA::workerBodyA(void *arg) {
 429              		.loc 1 57 38 is_stmt 1
 430              		.cfi_startproc
 431              	.LVL35:
 432 0074 130101FE 		addi	sp,sp,-32
 433              		.cfi_def_cfa_offset 32
 434 0078 233C1100 		sd	ra,24(sp)
 435 007c 23388100 		sd	s0,16(sp)
 436 0080 23349100 		sd	s1,8(sp)
 437 0084 23302101 		sd	s2,0(sp)
 438              		.cfi_offset 1, -8
 439              		.cfi_offset 8, -16
 440              		.cfi_offset 9, -24
 441              		.cfi_offset 18, -32
 442 0088 13040102 		addi	s0,sp,32
 443              		.cfi_def_cfa 8, 0
  58:test/Threads_CPP_API_test.cpp ****     for (uint64 i = 0; i < 10; i++) {
 444              		.loc 1 58 5
GAS LISTING /tmp/cciIGWXT.s 			page 10


 445              	.LVL36:
 446              	.LBB40:
 447              		.loc 1 58 17 is_stmt 0
 448 008c 13090000 		li	s2,0
 449 0090 6F008003 		j	.L29
 450              	.LVL37:
 451              	.L26:
 452              	.LBB41:
 453              	.LBB42:
 454              	.LBB43:
  59:test/Threads_CPP_API_test.cpp ****         printString("A: i="); printInt(i); printString("\n");
  60:test/Threads_CPP_API_test.cpp ****         for (uint64 j = 0; j < 10000; j++) {
  61:test/Threads_CPP_API_test.cpp ****             for (uint64 k = 0; k < 30000; k++) { /* busy wait */ }
  62:test/Threads_CPP_API_test.cpp ****             thread_dispatch();
 455              		.loc 1 62 13 is_stmt 1 discriminator 2
 456              		.loc 1 62 28 is_stmt 0 discriminator 2
 457 0094 97000000 		call	_Z15thread_dispatchv@plt
 457      E7800000 
 458              	.LVL38:
 459              	.LBE43:
  60:test/Threads_CPP_API_test.cpp ****             for (uint64 k = 0; k < 30000; k++) { /* busy wait */ }
 460              		.loc 1 60 9 is_stmt 1 discriminator 2
 461 009c 93841400 		addi	s1,s1,1
 462              	.LVL39:
 463              	.L28:
  60:test/Threads_CPP_API_test.cpp ****             for (uint64 k = 0; k < 30000; k++) { /* busy wait */ }
 464              		.loc 1 60 30 discriminator 1
 465 00a0 B7270000 		li	a5,8192
 466 00a4 9387F770 		addi	a5,a5,1807
 467 00a8 63EE9700 		bgtu	s1,a5,.L25
 468              	.LBB45:
 469              	.LBB44:
  61:test/Threads_CPP_API_test.cpp ****             thread_dispatch();
 470              		.loc 1 61 25 is_stmt 0
 471 00ac 13070000 		li	a4,0
 472              	.L27:
 473              	.LVL40:
  61:test/Threads_CPP_API_test.cpp ****             thread_dispatch();
 474              		.loc 1 61 34 is_stmt 1 discriminator 3
 475 00b0 B7770000 		li	a5,28672
 476 00b4 9387F752 		addi	a5,a5,1327
 477 00b8 E3EEE7FC 		bgtu	a4,a5,.L26
  61:test/Threads_CPP_API_test.cpp ****             thread_dispatch();
 478              		.loc 1 61 13 discriminator 2
 479 00bc 13071700 		addi	a4,a4,1
 480              	.LVL41:
 481 00c0 6FF01FFF 		j	.L27
 482              	.LVL42:
 483              	.L25:
 484              	.LBE44:
 485              	.LBE45:
 486              	.LBE42:
 487              	.LBE41:
  58:test/Threads_CPP_API_test.cpp ****         printString("A: i="); printInt(i); printString("\n");
 488              		.loc 1 58 5 discriminator 2
 489 00c4 13091900 		addi	s2,s2,1
 490              	.LVL43:
GAS LISTING /tmp/cciIGWXT.s 			page 11


 491              	.L29:
  58:test/Threads_CPP_API_test.cpp ****         printString("A: i="); printInt(i); printString("\n");
 492              		.loc 1 58 26 discriminator 1
 493 00c8 93079000 		li	a5,9
 494 00cc 63E02705 		bgtu	s2,a5,.L24
 495              	.LBB47:
  59:test/Threads_CPP_API_test.cpp ****         for (uint64 j = 0; j < 10000; j++) {
 496              		.loc 1 59 9
  59:test/Threads_CPP_API_test.cpp ****         for (uint64 j = 0; j < 10000; j++) {
 497              		.loc 1 59 20 is_stmt 0
 498 00d0 17050000 		lla	a0,.LC0
 498      13050500 
 499 00d8 97000000 		call	_Z11printStringPKc@plt
 499      E7800000 
 500              	.LVL44:
  59:test/Threads_CPP_API_test.cpp ****         for (uint64 j = 0; j < 10000; j++) {
 501              		.loc 1 59 31 is_stmt 1
  59:test/Threads_CPP_API_test.cpp ****         for (uint64 j = 0; j < 10000; j++) {
 502              		.loc 1 59 39 is_stmt 0
 503 00e0 13060000 		li	a2,0
 504 00e4 9305A000 		li	a1,10
 505 00e8 1B050900 		sext.w	a0,s2
 506 00ec 97000000 		call	_Z8printIntiii@plt
 506      E7800000 
 507              	.LVL45:
  59:test/Threads_CPP_API_test.cpp ****         for (uint64 j = 0; j < 10000; j++) {
 508              		.loc 1 59 44 is_stmt 1
  59:test/Threads_CPP_API_test.cpp ****         for (uint64 j = 0; j < 10000; j++) {
 509              		.loc 1 59 55 is_stmt 0
 510 00f4 17050000 		lla	a0,.LC1
 510      13050500 
 511 00fc 97000000 		call	_Z11printStringPKc@plt
 511      E7800000 
 512              	.LVL46:
  60:test/Threads_CPP_API_test.cpp ****             for (uint64 k = 0; k < 30000; k++) { /* busy wait */ }
 513              		.loc 1 60 9 is_stmt 1
 514              	.LBB46:
  60:test/Threads_CPP_API_test.cpp ****             for (uint64 k = 0; k < 30000; k++) { /* busy wait */ }
 515              		.loc 1 60 21 is_stmt 0
 516 0104 93040000 		li	s1,0
 517 0108 6FF09FF9 		j	.L28
 518              	.LVL47:
 519              	.L24:
 520              	.LBE46:
 521              	.LBE47:
 522              	.LBE40:
  63:test/Threads_CPP_API_test.cpp ****         }
  64:test/Threads_CPP_API_test.cpp ****     }
  65:test/Threads_CPP_API_test.cpp ****     printString("A finished!\n");
 523              		.loc 1 65 5 is_stmt 1
 524              		.loc 1 65 16 is_stmt 0
 525 010c 17050000 		lla	a0,.LC2
 525      13050500 
 526 0114 97000000 		call	_Z11printStringPKc@plt
 526      E7800000 
 527              	.LVL48:
  66:test/Threads_CPP_API_test.cpp ****     finishedA = true;
GAS LISTING /tmp/cciIGWXT.s 			page 12


 528              		.loc 1 66 5 is_stmt 1
 529              		.loc 1 66 15 is_stmt 0
 530 011c 93071000 		li	a5,1
 531 0120 17070000 		sb	a5,.LANCHOR0,a4
 531      2300F700 
  67:test/Threads_CPP_API_test.cpp **** }
 532              		.loc 1 67 1
 533 0128 83308101 		ld	ra,24(sp)
 534              		.cfi_restore 1
 535 012c 03340101 		ld	s0,16(sp)
 536              		.cfi_restore 8
 537              		.cfi_def_cfa 2, 32
 538 0130 83348100 		ld	s1,8(sp)
 539              		.cfi_restore 9
 540 0134 03390100 		ld	s2,0(sp)
 541              		.cfi_restore 18
 542              	.LVL49:
 543 0138 13010102 		addi	sp,sp,32
 544              		.cfi_def_cfa_offset 0
 545 013c 67800000 		jr	ra
 546              		.cfi_endproc
 547              	.LFE19:
 549              		.section	.text._ZN7WorkerA3runEv,"axG",@progbits,_ZN7WorkerA3runEv,comdat
 550              		.align	2
 551              		.weak	_ZN7WorkerA3runEv
 553              	_ZN7WorkerA3runEv:
 554              	.LFB6:
  22:test/Threads_CPP_API_test.cpp ****         workerBodyA(nullptr);
 555              		.loc 1 22 10 is_stmt 1
 556              		.cfi_startproc
 557              	.LVL50:
 558 0000 130101FF 		addi	sp,sp,-16
 559              		.cfi_def_cfa_offset 16
 560 0004 23341100 		sd	ra,8(sp)
 561 0008 23308100 		sd	s0,0(sp)
 562              		.cfi_offset 1, -8
 563              		.cfi_offset 8, -16
 564 000c 13040101 		addi	s0,sp,16
 565              		.cfi_def_cfa 8, 0
  23:test/Threads_CPP_API_test.cpp ****     }
 566              		.loc 1 23 9
  23:test/Threads_CPP_API_test.cpp ****     }
 567              		.loc 1 23 20 is_stmt 0
 568 0010 93050000 		li	a1,0
 569 0014 97000000 		call	_ZN7WorkerA11workerBodyAEPv
 569      E7800000 
 570              	.LVL51:
  24:test/Threads_CPP_API_test.cpp **** };
 571              		.loc 1 24 5
 572 001c 83308100 		ld	ra,8(sp)
 573              		.cfi_restore 1
 574 0020 03340100 		ld	s0,0(sp)
 575              		.cfi_restore 8
 576              		.cfi_def_cfa 2, 16
 577 0024 13010101 		addi	sp,sp,16
 578              		.cfi_def_cfa_offset 0
 579 0028 67800000 		jr	ra
GAS LISTING /tmp/cciIGWXT.s 			page 13


 580              		.cfi_endproc
 581              	.LFE6:
 583              		.section	.rodata.str1.8
 584 001d 000000   		.align	3
 585              	.LC3:
 586 0020 423A2069 		.string	"B: i="
 586      3D00
 587 0026 0000     		.align	3
 588              	.LC4:
 589 0028 42206669 		.string	"B finished!\n"
 589      6E697368 
 589      6564210A 
 589      00
 590              		.text
 591              		.align	2
 592              		.globl	_ZN7WorkerB11workerBodyBEPv
 594              	_ZN7WorkerB11workerBodyBEPv:
 595              	.LFB20:
  68:test/Threads_CPP_API_test.cpp **** 
  69:test/Threads_CPP_API_test.cpp **** void WorkerB::workerBodyB(void *arg) {
 596              		.loc 1 69 38 is_stmt 1
 597              		.cfi_startproc
 598              	.LVL52:
 599 0140 130101FE 		addi	sp,sp,-32
 600              		.cfi_def_cfa_offset 32
 601 0144 233C1100 		sd	ra,24(sp)
 602 0148 23388100 		sd	s0,16(sp)
 603 014c 23349100 		sd	s1,8(sp)
 604 0150 23302101 		sd	s2,0(sp)
 605              		.cfi_offset 1, -8
 606              		.cfi_offset 8, -16
 607              		.cfi_offset 9, -24
 608              		.cfi_offset 18, -32
 609 0154 13040102 		addi	s0,sp,32
 610              		.cfi_def_cfa 8, 0
  70:test/Threads_CPP_API_test.cpp ****     for (uint64 i = 0; i < 16; i++) {
 611              		.loc 1 70 5
 612              	.LVL53:
 613              	.LBB48:
 614              		.loc 1 70 17 is_stmt 0
 615 0158 13090000 		li	s2,0
 616 015c 6F008003 		j	.L39
 617              	.LVL54:
 618              	.L36:
 619              	.LBB49:
 620              	.LBB50:
 621              	.LBB51:
  71:test/Threads_CPP_API_test.cpp ****         printString("B: i="); printInt(i); printString("\n");
  72:test/Threads_CPP_API_test.cpp ****         for (uint64 j = 0; j < 10000; j++) {
  73:test/Threads_CPP_API_test.cpp ****             for (uint64 k = 0; k < 30000; k++) { /* busy wait */ }
  74:test/Threads_CPP_API_test.cpp ****             thread_dispatch();
 622              		.loc 1 74 13 is_stmt 1 discriminator 2
 623              		.loc 1 74 28 is_stmt 0 discriminator 2
 624 0160 97000000 		call	_Z15thread_dispatchv@plt
 624      E7800000 
 625              	.LVL55:
 626              	.LBE51:
GAS LISTING /tmp/cciIGWXT.s 			page 14


  72:test/Threads_CPP_API_test.cpp ****             for (uint64 k = 0; k < 30000; k++) { /* busy wait */ }
 627              		.loc 1 72 9 is_stmt 1 discriminator 2
 628 0168 93841400 		addi	s1,s1,1
 629              	.LVL56:
 630              	.L38:
  72:test/Threads_CPP_API_test.cpp ****             for (uint64 k = 0; k < 30000; k++) { /* busy wait */ }
 631              		.loc 1 72 30 discriminator 1
 632 016c B7270000 		li	a5,8192
 633 0170 9387F770 		addi	a5,a5,1807
 634 0174 63EE9700 		bgtu	s1,a5,.L35
 635              	.LBB53:
 636              	.LBB52:
  73:test/Threads_CPP_API_test.cpp ****             thread_dispatch();
 637              		.loc 1 73 25 is_stmt 0
 638 0178 13070000 		li	a4,0
 639              	.L37:
 640              	.LVL57:
  73:test/Threads_CPP_API_test.cpp ****             thread_dispatch();
 641              		.loc 1 73 34 is_stmt 1 discriminator 3
 642 017c B7770000 		li	a5,28672
 643 0180 9387F752 		addi	a5,a5,1327
 644 0184 E3EEE7FC 		bgtu	a4,a5,.L36
  73:test/Threads_CPP_API_test.cpp ****             thread_dispatch();
 645              		.loc 1 73 13 discriminator 2
 646 0188 13071700 		addi	a4,a4,1
 647              	.LVL58:
 648 018c 6FF01FFF 		j	.L37
 649              	.LVL59:
 650              	.L35:
 651              	.LBE52:
 652              	.LBE53:
 653              	.LBE50:
 654              	.LBE49:
  70:test/Threads_CPP_API_test.cpp ****         printString("B: i="); printInt(i); printString("\n");
 655              		.loc 1 70 5 discriminator 2
 656 0190 13091900 		addi	s2,s2,1
 657              	.LVL60:
 658              	.L39:
  70:test/Threads_CPP_API_test.cpp ****         printString("B: i="); printInt(i); printString("\n");
 659              		.loc 1 70 26 discriminator 1
 660 0194 9307F000 		li	a5,15
 661 0198 63E02705 		bgtu	s2,a5,.L34
 662              	.LBB55:
  71:test/Threads_CPP_API_test.cpp ****         for (uint64 j = 0; j < 10000; j++) {
 663              		.loc 1 71 9
  71:test/Threads_CPP_API_test.cpp ****         for (uint64 j = 0; j < 10000; j++) {
 664              		.loc 1 71 20 is_stmt 0
 665 019c 17050000 		lla	a0,.LC3
 665      13050500 
 666 01a4 97000000 		call	_Z11printStringPKc@plt
 666      E7800000 
 667              	.LVL61:
  71:test/Threads_CPP_API_test.cpp ****         for (uint64 j = 0; j < 10000; j++) {
 668              		.loc 1 71 31 is_stmt 1
  71:test/Threads_CPP_API_test.cpp ****         for (uint64 j = 0; j < 10000; j++) {
 669              		.loc 1 71 39 is_stmt 0
 670 01ac 13060000 		li	a2,0
GAS LISTING /tmp/cciIGWXT.s 			page 15


 671 01b0 9305A000 		li	a1,10
 672 01b4 1B050900 		sext.w	a0,s2
 673 01b8 97000000 		call	_Z8printIntiii@plt
 673      E7800000 
 674              	.LVL62:
  71:test/Threads_CPP_API_test.cpp ****         for (uint64 j = 0; j < 10000; j++) {
 675              		.loc 1 71 44 is_stmt 1
  71:test/Threads_CPP_API_test.cpp ****         for (uint64 j = 0; j < 10000; j++) {
 676              		.loc 1 71 55 is_stmt 0
 677 01c0 17050000 		lla	a0,.LC1
 677      13050500 
 678 01c8 97000000 		call	_Z11printStringPKc@plt
 678      E7800000 
 679              	.LVL63:
  72:test/Threads_CPP_API_test.cpp ****             for (uint64 k = 0; k < 30000; k++) { /* busy wait */ }
 680              		.loc 1 72 9 is_stmt 1
 681              	.LBB54:
  72:test/Threads_CPP_API_test.cpp ****             for (uint64 k = 0; k < 30000; k++) { /* busy wait */ }
 682              		.loc 1 72 21 is_stmt 0
 683 01d0 93040000 		li	s1,0
 684 01d4 6FF09FF9 		j	.L38
 685              	.LVL64:
 686              	.L34:
 687              	.LBE54:
 688              	.LBE55:
 689              	.LBE48:
  75:test/Threads_CPP_API_test.cpp ****         }
  76:test/Threads_CPP_API_test.cpp ****     }
  77:test/Threads_CPP_API_test.cpp ****     printString("B finished!\n");
 690              		.loc 1 77 5 is_stmt 1
 691              		.loc 1 77 16 is_stmt 0
 692 01d8 17050000 		lla	a0,.LC4
 692      13050500 
 693 01e0 97000000 		call	_Z11printStringPKc@plt
 693      E7800000 
 694              	.LVL65:
  78:test/Threads_CPP_API_test.cpp ****     finishedB = true;
 695              		.loc 1 78 5 is_stmt 1
 696              		.loc 1 78 15 is_stmt 0
 697 01e8 93071000 		li	a5,1
 698 01ec 17070000 		sb	a5,.LANCHOR0+1,a4
 698      2300F700 
  79:test/Threads_CPP_API_test.cpp ****     thread_dispatch();
 699              		.loc 1 79 5 is_stmt 1
 700              		.loc 1 79 20 is_stmt 0
 701 01f4 97000000 		call	_Z15thread_dispatchv@plt
 701      E7800000 
 702              	.LVL66:
  80:test/Threads_CPP_API_test.cpp **** }
 703              		.loc 1 80 1
 704 01fc 83308101 		ld	ra,24(sp)
 705              		.cfi_restore 1
 706 0200 03340101 		ld	s0,16(sp)
 707              		.cfi_restore 8
 708              		.cfi_def_cfa 2, 32
 709 0204 83348100 		ld	s1,8(sp)
 710              		.cfi_restore 9
GAS LISTING /tmp/cciIGWXT.s 			page 16


 711 0208 03390100 		ld	s2,0(sp)
 712              		.cfi_restore 18
 713              	.LVL67:
 714 020c 13010102 		addi	sp,sp,32
 715              		.cfi_def_cfa_offset 0
 716 0210 67800000 		jr	ra
 717              		.cfi_endproc
 718              	.LFE20:
 720              		.section	.text._ZN7WorkerB3runEv,"axG",@progbits,_ZN7WorkerB3runEv,comdat
 721              		.align	2
 722              		.weak	_ZN7WorkerB3runEv
 724              	_ZN7WorkerB3runEv:
 725              	.LFB10:
  32:test/Threads_CPP_API_test.cpp ****         workerBodyB(nullptr);
 726              		.loc 1 32 10 is_stmt 1
 727              		.cfi_startproc
 728              	.LVL68:
 729 0000 130101FF 		addi	sp,sp,-16
 730              		.cfi_def_cfa_offset 16
 731 0004 23341100 		sd	ra,8(sp)
 732 0008 23308100 		sd	s0,0(sp)
 733              		.cfi_offset 1, -8
 734              		.cfi_offset 8, -16
 735 000c 13040101 		addi	s0,sp,16
 736              		.cfi_def_cfa 8, 0
  33:test/Threads_CPP_API_test.cpp ****     }
 737              		.loc 1 33 9
  33:test/Threads_CPP_API_test.cpp ****     }
 738              		.loc 1 33 20 is_stmt 0
 739 0010 93050000 		li	a1,0
 740 0014 97000000 		call	_ZN7WorkerB11workerBodyBEPv
 740      E7800000 
 741              	.LVL69:
  34:test/Threads_CPP_API_test.cpp **** };
 742              		.loc 1 34 5
 743 001c 83308100 		ld	ra,8(sp)
 744              		.cfi_restore 1
 745 0020 03340100 		ld	s0,0(sp)
 746              		.cfi_restore 8
 747              		.cfi_def_cfa 2, 16
 748 0024 13010101 		addi	sp,sp,16
 749              		.cfi_def_cfa_offset 0
 750 0028 67800000 		jr	ra
 751              		.cfi_endproc
 752              	.LFE10:
 754              		.section	.rodata.str1.8
 755 0035 000000   		.align	3
 756              	.LC5:
 757 0038 433A2069 		.string	"C: i="
 757      3D00
 758 003e 0000     		.align	3
 759              	.LC6:
 760 0040 433A2064 		.string	"C: dispatch\n"
 760      69737061 
 760      7463680A 
 760      00
 761 004d 000000   		.align	3
GAS LISTING /tmp/cciIGWXT.s 			page 17


 762              	.LC7:
 763 0050 433A2074 		.string	"C: t1="
 763      313D00
 764 0057 00       		.align	3
 765              	.LC8:
 766 0058 433A2066 		.string	"C: fibonaci="
 766      69626F6E 
 766      6163693D 
 766      00
 767 0065 000000   		.align	3
 768              	.LC9:
 769 0068 43206669 		.string	"C finished!\n"
 769      6E697368 
 769      6564210A 
 769      00
 770              		.text
 771              		.align	2
 772              		.globl	_ZN7WorkerC11workerBodyCEPv
 774              	_ZN7WorkerC11workerBodyCEPv:
 775              	.LFB21:
  81:test/Threads_CPP_API_test.cpp **** 
  82:test/Threads_CPP_API_test.cpp **** void WorkerC::workerBodyC(void *arg) {
 776              		.loc 1 82 38 is_stmt 1
 777              		.cfi_startproc
 778              	.LVL70:
 779 0214 130101FE 		addi	sp,sp,-32
 780              		.cfi_def_cfa_offset 32
 781 0218 233C1100 		sd	ra,24(sp)
 782 021c 23388100 		sd	s0,16(sp)
 783 0220 23349100 		sd	s1,8(sp)
 784 0224 23302101 		sd	s2,0(sp)
 785              		.cfi_offset 1, -8
 786              		.cfi_offset 8, -16
 787              		.cfi_offset 9, -24
 788              		.cfi_offset 18, -32
 789 0228 13040102 		addi	s0,sp,32
 790              		.cfi_def_cfa 8, 0
  83:test/Threads_CPP_API_test.cpp ****     uint8 i = 0;
 791              		.loc 1 83 5
 792              	.LVL71:
 793              		.loc 1 83 11 is_stmt 0
 794 022c 93040000 		li	s1,0
 795 0230 6F000004 		j	.L45
 796              	.LVL72:
 797              	.L49:
  84:test/Threads_CPP_API_test.cpp ****     for (; i < 3; i++) {
  85:test/Threads_CPP_API_test.cpp ****         printString("C: i="); printInt(i); printString("\n");
 798              		.loc 1 85 9 is_stmt 1 discriminator 1
 799              		.loc 1 85 20 is_stmt 0 discriminator 1
 800 0234 17050000 		lla	a0,.LC5
 800      13050500 
 801 023c 97000000 		call	_Z11printStringPKc@plt
 801      E7800000 
 802              	.LVL73:
 803              		.loc 1 85 31 is_stmt 1 discriminator 1
 804              		.loc 1 85 39 is_stmt 0 discriminator 1
 805 0244 13060000 		li	a2,0
GAS LISTING /tmp/cciIGWXT.s 			page 18


 806 0248 9305A000 		li	a1,10
 807 024c 13850400 		mv	a0,s1
 808 0250 97000000 		call	_Z8printIntiii@plt
 808      E7800000 
 809              	.LVL74:
 810              		.loc 1 85 44 is_stmt 1 discriminator 1
 811              		.loc 1 85 55 is_stmt 0 discriminator 1
 812 0258 17050000 		lla	a0,.LC1
 812      13050500 
 813 0260 97000000 		call	_Z11printStringPKc@plt
 813      E7800000 
 814              	.LVL75:
  84:test/Threads_CPP_API_test.cpp ****     for (; i < 3; i++) {
 815              		.loc 1 84 5 is_stmt 1 discriminator 1
 816 0268 9B841400 		addiw	s1,s1,1
 817              	.LVL76:
 818 026c 93F4F40F 		andi	s1,s1,0xff
 819              	.LVL77:
 820              	.L45:
  84:test/Threads_CPP_API_test.cpp ****     for (; i < 3; i++) {
 821              		.loc 1 84 5 discriminator 2
  84:test/Threads_CPP_API_test.cpp ****     for (; i < 3; i++) {
 822              		.loc 1 84 14 discriminator 2
 823 0270 93072000 		li	a5,2
 824 0274 E3F097FC 		bleu	s1,a5,.L49
  86:test/Threads_CPP_API_test.cpp ****     }
  87:test/Threads_CPP_API_test.cpp **** 
  88:test/Threads_CPP_API_test.cpp ****     printString("C: dispatch\n");
 825              		.loc 1 88 5
 826              		.loc 1 88 16 is_stmt 0
 827 0278 17050000 		lla	a0,.LC6
 827      13050500 
 828 0280 97000000 		call	_Z11printStringPKc@plt
 828      E7800000 
 829              	.LVL78:
  89:test/Threads_CPP_API_test.cpp ****     __asm__ ("li t1, 7");
 830              		.loc 1 89 5 is_stmt 1
 831              		.loc 1 89 25 is_stmt 0
 832              	#APP
 833              	# 89 "test/Threads_CPP_API_test.cpp" 1
  90              	    thread_dispatch();
 834              		li t1, 7
 835              	# 0 "" 2
 836              		.loc 1 90 5 is_stmt 1
 837              		.loc 1 90 20 is_stmt 0
 838              	#NO_APP
 839 028c 97000000 		call	_Z15thread_dispatchv@plt
 839      E7800000 
 840              	.LVL79:
  91:test/Threads_CPP_API_test.cpp **** 
  92:test/Threads_CPP_API_test.cpp ****     uint64 t1 = 0;
 841              		.loc 1 92 5 is_stmt 1
  93:test/Threads_CPP_API_test.cpp ****     __asm__ ("mv %[t1], t1" : [t1] "=r"(t1));
 842              		.loc 1 93 5
 843              		.loc 1 93 45 is_stmt 0
 844              	#APP
 845              	# 93 "test/Threads_CPP_API_test.cpp" 1
GAS LISTING /tmp/cciIGWXT.s 			page 19


  94              	
 846              		mv s2, t1
 847              	# 0 "" 2
 848              	.LVL80:
  95:test/Threads_CPP_API_test.cpp ****     printString("C: t1="); printInt(t1); printString("\n");
 849              		.loc 1 95 5 is_stmt 1
 850              		.loc 1 95 16 is_stmt 0
 851              	#NO_APP
 852 0298 17050000 		lla	a0,.LC7
 852      13050500 
 853 02a0 97000000 		call	_Z11printStringPKc@plt
 853      E7800000 
 854              	.LVL81:
 855              		.loc 1 95 28 is_stmt 1
 856              		.loc 1 95 36 is_stmt 0
 857 02a8 13060000 		li	a2,0
 858 02ac 9305A000 		li	a1,10
 859 02b0 1B050900 		sext.w	a0,s2
 860 02b4 97000000 		call	_Z8printIntiii@plt
 860      E7800000 
 861              	.LVL82:
 862              		.loc 1 95 42 is_stmt 1
 863              		.loc 1 95 53 is_stmt 0
 864 02bc 17050000 		lla	a0,.LC1
 864      13050500 
 865 02c4 97000000 		call	_Z11printStringPKc@plt
 865      E7800000 
 866              	.LVL83:
  96:test/Threads_CPP_API_test.cpp **** 
  97:test/Threads_CPP_API_test.cpp ****     uint64 result = fibonacci(12);
 867              		.loc 1 97 5 is_stmt 1
 868              		.loc 1 97 30 is_stmt 0
 869 02cc 1305C000 		li	a0,12
 870 02d0 97000000 		call	_ZL9fibonaccim
 870      E7800000 
 871              	.LVL84:
 872 02d8 13090500 		mv	s2,a0
 873              	.LVL85:
  98:test/Threads_CPP_API_test.cpp ****     printString("C: fibonaci="); printInt(result); printString("\n");
 874              		.loc 1 98 5 is_stmt 1
 875              		.loc 1 98 16 is_stmt 0
 876 02dc 17050000 		lla	a0,.LC8
 876      13050500 
 877              	.LVL86:
 878 02e4 97000000 		call	_Z11printStringPKc@plt
 878      E7800000 
 879              	.LVL87:
 880              		.loc 1 98 34 is_stmt 1
 881              		.loc 1 98 42 is_stmt 0
 882 02ec 13060000 		li	a2,0
 883 02f0 9305A000 		li	a1,10
 884 02f4 1B050900 		sext.w	a0,s2
 885 02f8 97000000 		call	_Z8printIntiii@plt
 885      E7800000 
 886              	.LVL88:
 887              		.loc 1 98 52 is_stmt 1
 888              		.loc 1 98 63 is_stmt 0
GAS LISTING /tmp/cciIGWXT.s 			page 20


 889 0300 17050000 		lla	a0,.LC1
 889      13050500 
 890 0308 97000000 		call	_Z11printStringPKc@plt
 890      E7800000 
 891              	.LVL89:
 892 0310 6F000004 		j	.L47
 893              	.L50:
  99:test/Threads_CPP_API_test.cpp **** 
 100:test/Threads_CPP_API_test.cpp ****     for (; i < 6; i++) {
 101:test/Threads_CPP_API_test.cpp ****         printString("C: i="); printInt(i); printString("\n");
 894              		.loc 1 101 9 is_stmt 1 discriminator 1
 895              		.loc 1 101 20 is_stmt 0 discriminator 1
 896 0314 17050000 		lla	a0,.LC5
 896      13050500 
 897 031c 97000000 		call	_Z11printStringPKc@plt
 897      E7800000 
 898              	.LVL90:
 899              		.loc 1 101 31 is_stmt 1 discriminator 1
 900              		.loc 1 101 39 is_stmt 0 discriminator 1
 901 0324 13060000 		li	a2,0
 902 0328 9305A000 		li	a1,10
 903 032c 13850400 		mv	a0,s1
 904 0330 97000000 		call	_Z8printIntiii@plt
 904      E7800000 
 905              	.LVL91:
 906              		.loc 1 101 44 is_stmt 1 discriminator 1
 907              		.loc 1 101 55 is_stmt 0 discriminator 1
 908 0338 17050000 		lla	a0,.LC1
 908      13050500 
 909 0340 97000000 		call	_Z11printStringPKc@plt
 909      E7800000 
 910              	.LVL92:
 100:test/Threads_CPP_API_test.cpp ****         printString("C: i="); printInt(i); printString("\n");
 911              		.loc 1 100 5 is_stmt 1 discriminator 1
 912 0348 9B841400 		addiw	s1,s1,1
 913              	.LVL93:
 914 034c 93F4F40F 		andi	s1,s1,0xff
 915              	.LVL94:
 916              	.L47:
 100:test/Threads_CPP_API_test.cpp ****         printString("C: i="); printInt(i); printString("\n");
 917              		.loc 1 100 5 discriminator 2
 100:test/Threads_CPP_API_test.cpp ****         printString("C: i="); printInt(i); printString("\n");
 918              		.loc 1 100 14 discriminator 2
 919 0350 93075000 		li	a5,5
 920 0354 E3F097FC 		bleu	s1,a5,.L50
 102:test/Threads_CPP_API_test.cpp ****     }
 103:test/Threads_CPP_API_test.cpp **** 
 104:test/Threads_CPP_API_test.cpp ****     printString("C finished!\n");
 921              		.loc 1 104 5
 922              		.loc 1 104 16 is_stmt 0
 923 0358 17050000 		lla	a0,.LC9
 923      13050500 
 924 0360 97000000 		call	_Z11printStringPKc@plt
 924      E7800000 
 925              	.LVL95:
 105:test/Threads_CPP_API_test.cpp ****     finishedC = true;
 926              		.loc 1 105 5 is_stmt 1
GAS LISTING /tmp/cciIGWXT.s 			page 21


 927              		.loc 1 105 15 is_stmt 0
 928 0368 93071000 		li	a5,1
 929 036c 17070000 		sb	a5,.LANCHOR0+2,a4
 929      2300F700 
 106:test/Threads_CPP_API_test.cpp ****     thread_dispatch();
 930              		.loc 1 106 5 is_stmt 1
 931              		.loc 1 106 20 is_stmt 0
 932 0374 97000000 		call	_Z15thread_dispatchv@plt
 932      E7800000 
 933              	.LVL96:
 107:test/Threads_CPP_API_test.cpp **** }
 934              		.loc 1 107 1
 935 037c 83308101 		ld	ra,24(sp)
 936              		.cfi_restore 1
 937 0380 03340101 		ld	s0,16(sp)
 938              		.cfi_restore 8
 939              		.cfi_def_cfa 2, 32
 940 0384 83348100 		ld	s1,8(sp)
 941              		.cfi_restore 9
 942              	.LVL97:
 943 0388 03390100 		ld	s2,0(sp)
 944              		.cfi_restore 18
 945              	.LVL98:
 946 038c 13010102 		addi	sp,sp,32
 947              		.cfi_def_cfa_offset 0
 948 0390 67800000 		jr	ra
 949              		.cfi_endproc
 950              	.LFE21:
 952              		.section	.text._ZN7WorkerC3runEv,"axG",@progbits,_ZN7WorkerC3runEv,comdat
 953              		.align	2
 954              		.weak	_ZN7WorkerC3runEv
 956              	_ZN7WorkerC3runEv:
 957              	.LFB14:
  42:test/Threads_CPP_API_test.cpp ****         workerBodyC(nullptr);
 958              		.loc 1 42 10 is_stmt 1
 959              		.cfi_startproc
 960              	.LVL99:
 961 0000 130101FF 		addi	sp,sp,-16
 962              		.cfi_def_cfa_offset 16
 963 0004 23341100 		sd	ra,8(sp)
 964 0008 23308100 		sd	s0,0(sp)
 965              		.cfi_offset 1, -8
 966              		.cfi_offset 8, -16
 967 000c 13040101 		addi	s0,sp,16
 968              		.cfi_def_cfa 8, 0
  43:test/Threads_CPP_API_test.cpp ****     }
 969              		.loc 1 43 9
  43:test/Threads_CPP_API_test.cpp ****     }
 970              		.loc 1 43 20 is_stmt 0
 971 0010 93050000 		li	a1,0
 972 0014 97000000 		call	_ZN7WorkerC11workerBodyCEPv
 972      E7800000 
 973              	.LVL100:
  44:test/Threads_CPP_API_test.cpp **** };
 974              		.loc 1 44 5
 975 001c 83308100 		ld	ra,8(sp)
 976              		.cfi_restore 1
GAS LISTING /tmp/cciIGWXT.s 			page 22


 977 0020 03340100 		ld	s0,0(sp)
 978              		.cfi_restore 8
 979              		.cfi_def_cfa 2, 16
 980 0024 13010101 		addi	sp,sp,16
 981              		.cfi_def_cfa_offset 0
 982 0028 67800000 		jr	ra
 983              		.cfi_endproc
 984              	.LFE14:
 986              		.section	.rodata.str1.8
 987 0075 000000   		.align	3
 988              	.LC10:
 989 0078 443A2069 		.string	"D: i="
 989      3D00
 990 007e 0000     		.align	3
 991              	.LC11:
 992 0080 443A2064 		.string	"D: dispatch\n"
 992      69737061 
 992      7463680A 
 992      00
 993 008d 000000   		.align	3
 994              	.LC12:
 995 0090 443A2066 		.string	"D: fibonaci="
 995      69626F6E 
 995      6163693D 
 995      00
 996 009d 000000   		.align	3
 997              	.LC13:
 998 00a0 44206669 		.string	"D finished!\n"
 998      6E697368 
 998      6564210A 
 998      00
 999              		.text
 1000              		.align	2
 1001              		.globl	_ZN7WorkerD11workerBodyDEPv
 1003              	_ZN7WorkerD11workerBodyDEPv:
 1004              	.LFB22:
 108:test/Threads_CPP_API_test.cpp **** 
 109:test/Threads_CPP_API_test.cpp **** void WorkerD::workerBodyD(void* arg) {
 1005              		.loc 1 109 38 is_stmt 1
 1006              		.cfi_startproc
 1007              	.LVL101:
 1008 0394 130101FE 		addi	sp,sp,-32
 1009              		.cfi_def_cfa_offset 32
 1010 0398 233C1100 		sd	ra,24(sp)
 1011 039c 23388100 		sd	s0,16(sp)
 1012 03a0 23349100 		sd	s1,8(sp)
 1013 03a4 23302101 		sd	s2,0(sp)
 1014              		.cfi_offset 1, -8
 1015              		.cfi_offset 8, -16
 1016              		.cfi_offset 9, -24
 1017              		.cfi_offset 18, -32
 1018 03a8 13040102 		addi	s0,sp,32
 1019              		.cfi_def_cfa 8, 0
 110:test/Threads_CPP_API_test.cpp ****     uint8 i = 10;
 1020              		.loc 1 110 5
 1021              	.LVL102:
 1022              		.loc 1 110 11 is_stmt 0
GAS LISTING /tmp/cciIGWXT.s 			page 23


 1023 03ac 9304A000 		li	s1,10
 1024 03b0 6F000004 		j	.L55
 1025              	.LVL103:
 1026              	.L59:
 111:test/Threads_CPP_API_test.cpp ****     for (; i < 13; i++) {
 112:test/Threads_CPP_API_test.cpp ****         printString("D: i="); printInt(i); printString("\n");
 1027              		.loc 1 112 9 is_stmt 1 discriminator 1
 1028              		.loc 1 112 20 is_stmt 0 discriminator 1
 1029 03b4 17050000 		lla	a0,.LC10
 1029      13050500 
 1030 03bc 97000000 		call	_Z11printStringPKc@plt
 1030      E7800000 
 1031              	.LVL104:
 1032              		.loc 1 112 31 is_stmt 1 discriminator 1
 1033              		.loc 1 112 39 is_stmt 0 discriminator 1
 1034 03c4 13060000 		li	a2,0
 1035 03c8 9305A000 		li	a1,10
 1036 03cc 13850400 		mv	a0,s1
 1037 03d0 97000000 		call	_Z8printIntiii@plt
 1037      E7800000 
 1038              	.LVL105:
 1039              		.loc 1 112 44 is_stmt 1 discriminator 1
 1040              		.loc 1 112 55 is_stmt 0 discriminator 1
 1041 03d8 17050000 		lla	a0,.LC1
 1041      13050500 
 1042 03e0 97000000 		call	_Z11printStringPKc@plt
 1042      E7800000 
 1043              	.LVL106:
 111:test/Threads_CPP_API_test.cpp ****     for (; i < 13; i++) {
 1044              		.loc 1 111 5 is_stmt 1 discriminator 1
 1045 03e8 9B841400 		addiw	s1,s1,1
 1046              	.LVL107:
 1047 03ec 93F4F40F 		andi	s1,s1,0xff
 1048              	.LVL108:
 1049              	.L55:
 111:test/Threads_CPP_API_test.cpp ****     for (; i < 13; i++) {
 1050              		.loc 1 111 5 discriminator 2
 111:test/Threads_CPP_API_test.cpp ****     for (; i < 13; i++) {
 1051              		.loc 1 111 14 discriminator 2
 1052 03f0 9307C000 		li	a5,12
 1053 03f4 E3F097FC 		bleu	s1,a5,.L59
 113:test/Threads_CPP_API_test.cpp ****     }
 114:test/Threads_CPP_API_test.cpp **** 
 115:test/Threads_CPP_API_test.cpp ****     printString("D: dispatch\n");
 1054              		.loc 1 115 5
 1055              		.loc 1 115 16 is_stmt 0
 1056 03f8 17050000 		lla	a0,.LC11
 1056      13050500 
 1057 0400 97000000 		call	_Z11printStringPKc@plt
 1057      E7800000 
 1058              	.LVL109:
 116:test/Threads_CPP_API_test.cpp ****     __asm__ ("li t1, 5");
 1059              		.loc 1 116 5 is_stmt 1
 1060              		.loc 1 116 25 is_stmt 0
 1061              	#APP
 1062              	# 116 "test/Threads_CPP_API_test.cpp" 1
 117              	    thread_dispatch();
GAS LISTING /tmp/cciIGWXT.s 			page 24


 1063              		li t1, 5
 1064              	# 0 "" 2
 1065              		.loc 1 117 5 is_stmt 1
 1066              		.loc 1 117 20 is_stmt 0
 1067              	#NO_APP
 1068 040c 97000000 		call	_Z15thread_dispatchv@plt
 1068      E7800000 
 1069              	.LVL110:
 118:test/Threads_CPP_API_test.cpp **** 
 119:test/Threads_CPP_API_test.cpp ****     uint64 result = fibonacci(16);
 1070              		.loc 1 119 5 is_stmt 1
 1071              		.loc 1 119 30 is_stmt 0
 1072 0414 13050001 		li	a0,16
 1073 0418 97000000 		call	_ZL9fibonaccim
 1073      E7800000 
 1074              	.LVL111:
 1075 0420 13090500 		mv	s2,a0
 1076              	.LVL112:
 120:test/Threads_CPP_API_test.cpp ****     printString("D: fibonaci="); printInt(result); printString("\n");
 1077              		.loc 1 120 5 is_stmt 1
 1078              		.loc 1 120 16 is_stmt 0
 1079 0424 17050000 		lla	a0,.LC12
 1079      13050500 
 1080              	.LVL113:
 1081 042c 97000000 		call	_Z11printStringPKc@plt
 1081      E7800000 
 1082              	.LVL114:
 1083              		.loc 1 120 34 is_stmt 1
 1084              		.loc 1 120 42 is_stmt 0
 1085 0434 13060000 		li	a2,0
 1086 0438 9305A000 		li	a1,10
 1087 043c 1B050900 		sext.w	a0,s2
 1088 0440 97000000 		call	_Z8printIntiii@plt
 1088      E7800000 
 1089              	.LVL115:
 1090              		.loc 1 120 52 is_stmt 1
 1091              		.loc 1 120 63 is_stmt 0
 1092 0448 17050000 		lla	a0,.LC1
 1092      13050500 
 1093 0450 97000000 		call	_Z11printStringPKc@plt
 1093      E7800000 
 1094              	.LVL116:
 1095 0458 6F000004 		j	.L57
 1096              	.L60:
 121:test/Threads_CPP_API_test.cpp **** 
 122:test/Threads_CPP_API_test.cpp ****     for (; i < 16; i++) {
 123:test/Threads_CPP_API_test.cpp ****         printString("D: i="); printInt(i); printString("\n");
 1097              		.loc 1 123 9 is_stmt 1 discriminator 1
 1098              		.loc 1 123 20 is_stmt 0 discriminator 1
 1099 045c 17050000 		lla	a0,.LC10
 1099      13050500 
 1100 0464 97000000 		call	_Z11printStringPKc@plt
 1100      E7800000 
 1101              	.LVL117:
 1102              		.loc 1 123 31 is_stmt 1 discriminator 1
 1103              		.loc 1 123 39 is_stmt 0 discriminator 1
 1104 046c 13060000 		li	a2,0
GAS LISTING /tmp/cciIGWXT.s 			page 25


 1105 0470 9305A000 		li	a1,10
 1106 0474 13850400 		mv	a0,s1
 1107 0478 97000000 		call	_Z8printIntiii@plt
 1107      E7800000 
 1108              	.LVL118:
 1109              		.loc 1 123 44 is_stmt 1 discriminator 1
 1110              		.loc 1 123 55 is_stmt 0 discriminator 1
 1111 0480 17050000 		lla	a0,.LC1
 1111      13050500 
 1112 0488 97000000 		call	_Z11printStringPKc@plt
 1112      E7800000 
 1113              	.LVL119:
 122:test/Threads_CPP_API_test.cpp ****         printString("D: i="); printInt(i); printString("\n");
 1114              		.loc 1 122 5 is_stmt 1 discriminator 1
 1115 0490 9B841400 		addiw	s1,s1,1
 1116              	.LVL120:
 1117 0494 93F4F40F 		andi	s1,s1,0xff
 1118              	.LVL121:
 1119              	.L57:
 122:test/Threads_CPP_API_test.cpp ****         printString("D: i="); printInt(i); printString("\n");
 1120              		.loc 1 122 5 discriminator 2
 122:test/Threads_CPP_API_test.cpp ****         printString("D: i="); printInt(i); printString("\n");
 1121              		.loc 1 122 14 discriminator 2
 1122 0498 9307F000 		li	a5,15
 1123 049c E3F097FC 		bleu	s1,a5,.L60
 124:test/Threads_CPP_API_test.cpp ****     }
 125:test/Threads_CPP_API_test.cpp **** 
 126:test/Threads_CPP_API_test.cpp ****     printString("D finished!\n");
 1124              		.loc 1 126 5
 1125              		.loc 1 126 16 is_stmt 0
 1126 04a0 17050000 		lla	a0,.LC13
 1126      13050500 
 1127 04a8 97000000 		call	_Z11printStringPKc@plt
 1127      E7800000 
 1128              	.LVL122:
 127:test/Threads_CPP_API_test.cpp ****     finishedD = true;
 1129              		.loc 1 127 5 is_stmt 1
 1130              		.loc 1 127 15 is_stmt 0
 1131 04b0 93071000 		li	a5,1
 1132 04b4 17070000 		sb	a5,.LANCHOR0+3,a4
 1132      2300F700 
 128:test/Threads_CPP_API_test.cpp ****     thread_dispatch();
 1133              		.loc 1 128 5 is_stmt 1
 1134              		.loc 1 128 20 is_stmt 0
 1135 04bc 97000000 		call	_Z15thread_dispatchv@plt
 1135      E7800000 
 1136              	.LVL123:
 129:test/Threads_CPP_API_test.cpp **** }
 1137              		.loc 1 129 1
 1138 04c4 83308101 		ld	ra,24(sp)
 1139              		.cfi_restore 1
 1140 04c8 03340101 		ld	s0,16(sp)
 1141              		.cfi_restore 8
 1142              		.cfi_def_cfa 2, 32
 1143 04cc 83348100 		ld	s1,8(sp)
 1144              		.cfi_restore 9
 1145              	.LVL124:
GAS LISTING /tmp/cciIGWXT.s 			page 26


 1146 04d0 03390100 		ld	s2,0(sp)
 1147              		.cfi_restore 18
 1148              	.LVL125:
 1149 04d4 13010102 		addi	sp,sp,32
 1150              		.cfi_def_cfa_offset 0
 1151 04d8 67800000 		jr	ra
 1152              		.cfi_endproc
 1153              	.LFE22:
 1155              		.section	.text._ZN7WorkerD3runEv,"axG",@progbits,_ZN7WorkerD3runEv,comdat
 1156              		.align	2
 1157              		.weak	_ZN7WorkerD3runEv
 1159              	_ZN7WorkerD3runEv:
 1160              	.LFB18:
  52:test/Threads_CPP_API_test.cpp ****         workerBodyD(nullptr);
 1161              		.loc 1 52 10 is_stmt 1
 1162              		.cfi_startproc
 1163              	.LVL126:
 1164 0000 130101FF 		addi	sp,sp,-16
 1165              		.cfi_def_cfa_offset 16
 1166 0004 23341100 		sd	ra,8(sp)
 1167 0008 23308100 		sd	s0,0(sp)
 1168              		.cfi_offset 1, -8
 1169              		.cfi_offset 8, -16
 1170 000c 13040101 		addi	s0,sp,16
 1171              		.cfi_def_cfa 8, 0
  53:test/Threads_CPP_API_test.cpp ****     }
 1172              		.loc 1 53 9
  53:test/Threads_CPP_API_test.cpp ****     }
 1173              		.loc 1 53 20 is_stmt 0
 1174 0010 93050000 		li	a1,0
 1175 0014 97000000 		call	_ZN7WorkerD11workerBodyDEPv
 1175      E7800000 
 1176              	.LVL127:
  54:test/Threads_CPP_API_test.cpp **** };
 1177              		.loc 1 54 5
 1178 001c 83308100 		ld	ra,8(sp)
 1179              		.cfi_restore 1
 1180 0020 03340100 		ld	s0,0(sp)
 1181              		.cfi_restore 8
 1182              		.cfi_def_cfa 2, 16
 1183 0024 13010101 		addi	sp,sp,16
 1184              		.cfi_def_cfa_offset 0
 1185 0028 67800000 		jr	ra
 1186              		.cfi_endproc
 1187              	.LFE18:
 1189              		.section	.rodata.str1.8
 1190 00ad 000000   		.align	3
 1191              	.LC14:
 1192 00b0 54687265 		.string	"ThreadA created\n"
 1192      61644120 
 1192      63726561 
 1192      7465640A 
 1192      00
 1193 00c1 00000000 		.align	3
 1193      000000
 1194              	.LC15:
 1195 00c8 54687265 		.string	"ThreadB created\n"
GAS LISTING /tmp/cciIGWXT.s 			page 27


 1195      61644220 
 1195      63726561 
 1195      7465640A 
 1195      00
 1196 00d9 00000000 		.align	3
 1196      000000
 1197              	.LC16:
 1198 00e0 54687265 		.string	"ThreadC created\n"
 1198      61644320 
 1198      63726561 
 1198      7465640A 
 1198      00
 1199 00f1 00000000 		.align	3
 1199      000000
 1200              	.LC17:
 1201 00f8 54687265 		.string	"ThreadD created\n"
 1201      61644420 
 1201      63726561 
 1201      7465640A 
 1201      00
 1202 0109 00000000 		.align	3
 1202      000000
 1203              	.LC18:
 1204 0110 4F564445 		.string	"OVDE SAM DOSO\n"
 1204      2053414D 
 1204      20444F53 
 1204      4F0A00
 1205 011f 00       		.align	3
 1206              	.LC19:
 1207 0120 4F564445 		.string	"OVDE NISAM DOSO\n"
 1207      204E4953 
 1207      414D2044 
 1207      4F534F0A 
 1207      00
 1208 0131 00000000 		.align	3
 1208      000000
 1209              	.LC20:
 1210 0138 4F564445 		.string	"OVDE NISAM DOSO2.0\n"
 1210      204E4953 
 1210      414D2044 
 1210      4F534F32 
 1210      2E300A00 
 1211              		.text
 1212              		.align	2
 1213              		.globl	_Z20Threads_CPP_API_testv
 1215              	_Z20Threads_CPP_API_testv:
 1216              	.LFB23:
 130:test/Threads_CPP_API_test.cpp **** 
 131:test/Threads_CPP_API_test.cpp **** 
 132:test/Threads_CPP_API_test.cpp **** void Threads_CPP_API_test() {
 1217              		.loc 1 132 29 is_stmt 1
 1218              		.cfi_startproc
 1219              		.cfi_personality 0x9b,DW.ref.__gxx_personality_v0
 1220              		.cfi_lsda 0x1b,.LLSDA23
 1221 04dc 130101FC 		addi	sp,sp,-64
 1222              		.cfi_def_cfa_offset 64
 1223 04e0 233C1102 		sd	ra,56(sp)
GAS LISTING /tmp/cciIGWXT.s 			page 28


 1224 04e4 23388102 		sd	s0,48(sp)
 1225 04e8 23349102 		sd	s1,40(sp)
 1226 04ec 23302103 		sd	s2,32(sp)
 1227              		.cfi_offset 1, -8
 1228              		.cfi_offset 8, -16
 1229              		.cfi_offset 9, -24
 1230              		.cfi_offset 18, -32
 1231 04f0 13040104 		addi	s0,sp,64
 1232              		.cfi_def_cfa 8, 0
 133:test/Threads_CPP_API_test.cpp ****     Thread* threads[4];
 1233              		.loc 1 133 5
 134:test/Threads_CPP_API_test.cpp **** 
 135:test/Threads_CPP_API_test.cpp ****     threads[0] = new WorkerA();
 1234              		.loc 1 135 5
 1235              		.loc 1 135 30 is_stmt 0
 1236 04f4 13050002 		li	a0,32
 1237              	.LEHB0:
 1238 04f8 97000000 		call	_Znwm@plt
 1238      E7800000 
 1239              	.LVL128:
 1240              	.LEHE0:
 1241 0500 93040500 		mv	s1,a0
 1242              	.LVL129:
 1243              	.LEHB1:
 1244              	.LBB56:
 1245              	.LBB57:
  20:test/Threads_CPP_API_test.cpp **** 
 1246              		.loc 1 20 22
 1247 0504 97000000 		call	_ZN6ThreadC2Ev@plt
 1247      E7800000 
 1248              	.LVL130:
 1249              	.LEHE1:
 1250 050c 97070000 		lla	a5,_ZTV7WorkerA+16
 1250      93870700 
 1251 0514 23B0F400 		sd	a5,0(s1)
 1252              	.LVL131:
 1253              	.LBE57:
 1254              	.LBE56:
 1255              		.loc 1 135 16
 1256 0518 233094FC 		sd	s1,-64(s0)
 136:test/Threads_CPP_API_test.cpp ****     printString("ThreadA created\n");
 1257              		.loc 1 136 5 is_stmt 1
 1258              		.loc 1 136 16 is_stmt 0
 1259 051c 17050000 		lla	a0,.LC14
 1259      13050500 
 1260              	.LEHB2:
 1261 0524 97000000 		call	_Z11printStringPKc@plt
 1261      E7800000 
 1262              	.LVL132:
 137:test/Threads_CPP_API_test.cpp **** 
 138:test/Threads_CPP_API_test.cpp ****     threads[1] = new WorkerB();
 1263              		.loc 1 138 5 is_stmt 1
 1264              		.loc 1 138 30 is_stmt 0
 1265 052c 13050002 		li	a0,32
 1266 0530 97000000 		call	_Znwm@plt
 1266      E7800000 
 1267              	.LVL133:
GAS LISTING /tmp/cciIGWXT.s 			page 29


 1268              	.LEHE2:
 1269 0538 93040500 		mv	s1,a0
 1270              	.LVL134:
 1271              	.LEHB3:
 1272              	.LBB58:
 1273              	.LBB59:
  30:test/Threads_CPP_API_test.cpp **** 
 1274              		.loc 1 30 22
 1275 053c 97000000 		call	_ZN6ThreadC2Ev@plt
 1275      E7800000 
 1276              	.LVL135:
 1277              	.LEHE3:
 1278 0544 97070000 		lla	a5,_ZTV7WorkerB+16
 1278      93870700 
 1279 054c 23B0F400 		sd	a5,0(s1)
 1280              	.LVL136:
 1281              	.LBE59:
 1282              	.LBE58:
 1283              		.loc 1 138 16
 1284 0550 233494FC 		sd	s1,-56(s0)
 139:test/Threads_CPP_API_test.cpp ****     printString("ThreadB created\n");
 1285              		.loc 1 139 5 is_stmt 1
 1286              		.loc 1 139 16 is_stmt 0
 1287 0554 17050000 		lla	a0,.LC15
 1287      13050500 
 1288              	.LEHB4:
 1289 055c 97000000 		call	_Z11printStringPKc@plt
 1289      E7800000 
 1290              	.LVL137:
 140:test/Threads_CPP_API_test.cpp **** 
 141:test/Threads_CPP_API_test.cpp ****     threads[2] = new WorkerC();
 1291              		.loc 1 141 5 is_stmt 1
 1292              		.loc 1 141 30 is_stmt 0
 1293 0564 13050002 		li	a0,32
 1294 0568 97000000 		call	_Znwm@plt
 1294      E7800000 
 1295              	.LVL138:
 1296              	.LEHE4:
 1297 0570 93040500 		mv	s1,a0
 1298              	.LVL139:
 1299              	.LEHB5:
 1300              	.LBB60:
 1301              	.LBB61:
  40:test/Threads_CPP_API_test.cpp **** 
 1302              		.loc 1 40 22
 1303 0574 97000000 		call	_ZN6ThreadC2Ev@plt
 1303      E7800000 
 1304              	.LVL140:
 1305              	.LEHE5:
 1306 057c 97070000 		lla	a5,_ZTV7WorkerC+16
 1306      93870700 
 1307 0584 23B0F400 		sd	a5,0(s1)
 1308              	.LVL141:
 1309              	.LBE61:
 1310              	.LBE60:
 1311              		.loc 1 141 16
 1312 0588 233894FC 		sd	s1,-48(s0)
GAS LISTING /tmp/cciIGWXT.s 			page 30


 142:test/Threads_CPP_API_test.cpp ****     printString("ThreadC created\n");
 1313              		.loc 1 142 5 is_stmt 1
 1314              		.loc 1 142 16 is_stmt 0
 1315 058c 17050000 		lla	a0,.LC16
 1315      13050500 
 1316              	.LEHB6:
 1317 0594 97000000 		call	_Z11printStringPKc@plt
 1317      E7800000 
 1318              	.LVL142:
 143:test/Threads_CPP_API_test.cpp **** 
 144:test/Threads_CPP_API_test.cpp ****     threads[3] = new WorkerD();
 1319              		.loc 1 144 5 is_stmt 1
 1320              		.loc 1 144 30 is_stmt 0
 1321 059c 13050002 		li	a0,32
 1322 05a0 97000000 		call	_Znwm@plt
 1322      E7800000 
 1323              	.LVL143:
 1324              	.LEHE6:
 1325 05a8 93040500 		mv	s1,a0
 1326              	.LVL144:
 1327              	.LEHB7:
 1328              	.LBB62:
 1329              	.LBB63:
  50:test/Threads_CPP_API_test.cpp **** 
 1330              		.loc 1 50 22
 1331 05ac 97000000 		call	_ZN6ThreadC2Ev@plt
 1331      E7800000 
 1332              	.LVL145:
 1333              	.LEHE7:
 1334 05b4 97070000 		lla	a5,_ZTV7WorkerD+16
 1334      93870700 
 1335 05bc 23B0F400 		sd	a5,0(s1)
 1336              	.LVL146:
 1337              	.LBE63:
 1338              	.LBE62:
 1339              		.loc 1 144 16
 1340 05c0 233C94FC 		sd	s1,-40(s0)
 145:test/Threads_CPP_API_test.cpp ****     printString("ThreadD created\n");
 1341              		.loc 1 145 5 is_stmt 1
 1342              		.loc 1 145 16 is_stmt 0
 1343 05c4 17050000 		lla	a0,.LC17
 1343      13050500 
 1344              	.LEHB8:
 1345 05cc 97000000 		call	_Z11printStringPKc@plt
 1345      E7800000 
 1346              	.LVL147:
 1347              	.LBB64:
 146:test/Threads_CPP_API_test.cpp **** 
 147:test/Threads_CPP_API_test.cpp ****     for(int i=0; i<4; i++) {
 1348              		.loc 1 147 13
 1349 05d4 93040000 		li	s1,0
 1350              	.L65:
 1351              	.LVL148:
 1352              		.loc 1 147 19 is_stmt 1 discriminator 1
 1353 05d8 93073000 		li	a5,3
 1354 05dc 63C29702 		bgt	s1,a5,.L64
 148:test/Threads_CPP_API_test.cpp ****         threads[i]->start();
GAS LISTING /tmp/cciIGWXT.s 			page 31


 1355              		.loc 1 148 9
 1356              		.loc 1 148 18 is_stmt 0
 1357 05e0 93973400 		slli	a5,s1,3
 1358 05e4 130704FE 		addi	a4,s0,-32
 1359 05e8 B307F700 		add	a5,a4,a5
 1360              		.loc 1 148 26
 1361 05ec 03B507FE 		ld	a0,-32(a5)
 1362 05f0 97000000 		call	_ZN6Thread5startEv@plt
 1362      E7800000 
 1363              	.LVL149:
 147:test/Threads_CPP_API_test.cpp ****         threads[i]->start();
 1364              		.loc 1 147 5 is_stmt 1
 1365 05f8 9B841400 		addiw	s1,s1,1
 1366              	.LVL150:
 1367 05fc 6FF0DFFD 		j	.L65
 1368              	.LVL151:
 1369              	.L64:
 1370              	.LBE64:
 149:test/Threads_CPP_API_test.cpp ****     }
 150:test/Threads_CPP_API_test.cpp ****     printString("OVDE SAM DOSO\n");
 1371              		.loc 1 150 5
 1372              		.loc 1 150 16 is_stmt 0
 1373 0600 17050000 		lla	a0,.LC18
 1373      13050500 
 1374 0608 97000000 		call	_Z11printStringPKc@plt
 1374      E7800000 
 1375              	.LVL152:
 1376 0610 6F00C000 		j	.L68
 1377              	.L66:
 151:test/Threads_CPP_API_test.cpp ****     while (!(finishedA && finishedB && finishedC && finishedD)) {
 152:test/Threads_CPP_API_test.cpp ****         Thread::dispatch();
 1378              		.loc 1 152 9 is_stmt 1
 1379              		.loc 1 152 25 is_stmt 0
 1380 0614 97000000 		call	_ZN6Thread8dispatchEv@plt
 1380      E7800000 
 1381              	.LVL153:
 1382              	.L68:
 151:test/Threads_CPP_API_test.cpp ****     while (!(finishedA && finishedB && finishedC && finishedD)) {
 1383              		.loc 1 151 5 is_stmt 1
 151:test/Threads_CPP_API_test.cpp ****     while (!(finishedA && finishedB && finishedC && finishedD)) {
 1384              		.loc 1 151 12
 151:test/Threads_CPP_API_test.cpp ****     while (!(finishedA && finishedB && finishedC && finishedD)) {
 1385              		.loc 1 151 14 is_stmt 0
 1386 061c 97070000 		lbu	a5,.LANCHOR0
 1386      83C70700 
 151:test/Threads_CPP_API_test.cpp ****     while (!(finishedA && finishedB && finishedC && finishedD)) {
 1387              		.loc 1 151 12
 1388 0624 E38807FE 		beqz	a5,.L66
 151:test/Threads_CPP_API_test.cpp ****     while (!(finishedA && finishedB && finishedC && finishedD)) {
 1389              		.loc 1 151 27 discriminator 2
 1390 0628 97070000 		lbu	a5,.LANCHOR0+1
 1390      83C70700 
 151:test/Threads_CPP_API_test.cpp ****     while (!(finishedA && finishedB && finishedC && finishedD)) {
 1391              		.loc 1 151 24 discriminator 2
 1392 0630 E38207FE 		beqz	a5,.L66
 151:test/Threads_CPP_API_test.cpp ****     while (!(finishedA && finishedB && finishedC && finishedD)) {
 1393              		.loc 1 151 40 discriminator 4
GAS LISTING /tmp/cciIGWXT.s 			page 32


 1394 0634 97070000 		lbu	a5,.LANCHOR0+2
 1394      83C70700 
 151:test/Threads_CPP_API_test.cpp ****     while (!(finishedA && finishedB && finishedC && finishedD)) {
 1395              		.loc 1 151 37 discriminator 4
 1396 063c E38C07FC 		beqz	a5,.L66
 151:test/Threads_CPP_API_test.cpp ****     while (!(finishedA && finishedB && finishedC && finishedD)) {
 1397              		.loc 1 151 53 discriminator 6
 1398 0640 97070000 		lbu	a5,.LANCHOR0+3
 1398      83C70700 
 151:test/Threads_CPP_API_test.cpp ****     while (!(finishedA && finishedB && finishedC && finishedD)) {
 1399              		.loc 1 151 12 discriminator 6
 1400 0648 E38607FC 		beqz	a5,.L66
 153:test/Threads_CPP_API_test.cpp ****     }
 154:test/Threads_CPP_API_test.cpp ****     printString("OVDE NISAM DOSO\n");
 1401              		.loc 1 154 5 is_stmt 1
 1402              		.loc 1 154 16 is_stmt 0
 1403 064c 17050000 		lla	a0,.LC19
 1403      13050500 
 1404 0654 97000000 		call	_Z11printStringPKc@plt
 1404      E7800000 
 1405              	.LVL154:
 1406              	.LBB65:
 155:test/Threads_CPP_API_test.cpp **** 
 156:test/Threads_CPP_API_test.cpp ****     for (auto thread: threads) { delete thread; }
 1407              		.loc 1 156 23
 1408 065c 930404FC 		addi	s1,s0,-64
 1409              	.LVL155:
 1410 0660 6F008000 		j	.L67
 1411              	.LVL156:
 1412              	.L70:
 1413              		.loc 1 156 5 is_stmt 1 discriminator 5
 1414 0664 93848400 		addi	s1,s1,8
 1415              	.LVL157:
 1416              	.L67:
 1417              		.loc 1 156 23 discriminator 6
 1418 0668 930704FE 		addi	a5,s0,-32
 1419 066c 638EF400 		beq	s1,a5,.L69
 1420              		.loc 1 156 15 is_stmt 0 discriminator 2
 1421 0670 03B50400 		ld	a0,0(s1)
 1422              	.LVL158:
 1423              		.loc 1 156 34 is_stmt 1 discriminator 2
 1424              		.loc 1 156 47 is_stmt 0 discriminator 2
 1425 0674 E30805FE 		beqz	a0,.L70
 1426              		.loc 1 156 41 discriminator 3
 1427 0678 83370500 		ld	a5,0(a0)
 1428 067c 83B78700 		ld	a5,8(a5)
 1429 0680 E7800700 		jalr	a5
 1430              	.LVL159:
 1431 0684 6FF01FFE 		j	.L70
 1432              	.L69:
 1433              	.LBE65:
 157:test/Threads_CPP_API_test.cpp ****     printString("OVDE NISAM DOSO2.0\n");
 1434              		.loc 1 157 5 is_stmt 1
 1435              		.loc 1 157 16 is_stmt 0
 1436 0688 17050000 		lla	a0,.LC20
 1436      13050500 
 1437 0690 97000000 		call	_Z11printStringPKc@plt
GAS LISTING /tmp/cciIGWXT.s 			page 33


 1437      E7800000 
 1438              	.LVL160:
 158:test/Threads_CPP_API_test.cpp **** 
 159:test/Threads_CPP_API_test.cpp **** }
 1439              		.loc 1 159 1
 1440 0698 83308103 		ld	ra,56(sp)
 1441              		.cfi_remember_state
 1442              		.cfi_restore 1
 1443 069c 03340103 		ld	s0,48(sp)
 1444              		.cfi_restore 8
 1445              		.cfi_def_cfa 2, 64
 1446 06a0 83348102 		ld	s1,40(sp)
 1447              		.cfi_restore 9
 1448              	.LVL161:
 1449 06a4 03390102 		ld	s2,32(sp)
 1450              		.cfi_restore 18
 1451 06a8 13010104 		addi	sp,sp,64
 1452              		.cfi_def_cfa_offset 0
 1453 06ac 67800000 		jr	ra
 1454              	.LVL162:
 1455              	.L75:
 1456              		.cfi_restore_state
 1457 06b0 13090500 		mv	s2,a0
 135:test/Threads_CPP_API_test.cpp ****     printString("ThreadA created\n");
 1458              		.loc 1 135 30
 1459 06b4 13850400 		mv	a0,s1
 1460 06b8 97000000 		call	_ZdlPv@plt
 1460      E7800000 
 1461              	.LVL163:
 1462 06c0 13050900 		mv	a0,s2
 1463 06c4 97000000 		call	_Unwind_Resume@plt
 1463      E7800000 
 1464              	.LVL164:
 1465              	.L76:
 1466 06cc 13090500 		mv	s2,a0
 138:test/Threads_CPP_API_test.cpp ****     printString("ThreadB created\n");
 1467              		.loc 1 138 30
 1468 06d0 13850400 		mv	a0,s1
 1469 06d4 97000000 		call	_ZdlPv@plt
 1469      E7800000 
 1470              	.LVL165:
 1471 06dc 13050900 		mv	a0,s2
 1472 06e0 97000000 		call	_Unwind_Resume@plt
 1472      E7800000 
 1473              	.LVL166:
 1474              	.L77:
 1475 06e8 13090500 		mv	s2,a0
 141:test/Threads_CPP_API_test.cpp ****     printString("ThreadC created\n");
 1476              		.loc 1 141 30
 1477 06ec 13850400 		mv	a0,s1
 1478 06f0 97000000 		call	_ZdlPv@plt
 1478      E7800000 
 1479              	.LVL167:
 1480 06f8 13050900 		mv	a0,s2
 1481 06fc 97000000 		call	_Unwind_Resume@plt
 1481      E7800000 
 1482              	.LVL168:
GAS LISTING /tmp/cciIGWXT.s 			page 34


 1483              	.L78:
 1484 0704 13090500 		mv	s2,a0
 144:test/Threads_CPP_API_test.cpp ****     printString("ThreadD created\n");
 1485              		.loc 1 144 30
 1486 0708 13850400 		mv	a0,s1
 1487 070c 97000000 		call	_ZdlPv@plt
 1487      E7800000 
 1488              	.LVL169:
 1489 0714 13050900 		mv	a0,s2
 1490 0718 97000000 		call	_Unwind_Resume@plt
 1490      E7800000 
 1491              	.LVL170:
 1492              	.LEHE8:
 1493              		.cfi_endproc
 1494              	.LFE23:
 1495              		.globl	__gxx_personality_v0
 1496              		.section	.gcc_except_table,"a",@progbits
 1497              	.LLSDA23:
 1498 0000 FF       		.byte	0xff
 1499 0001 FF       		.byte	0xff
 1500 0002 03       		.byte	0x3
 1501 0003 75       		.byte	0x75
 1502 0004 00000000 		.4byte	.LEHB0-.LFB23
 1503 0008 00000000 		.4byte	.LEHE0-.LEHB0
 1504 000c 00000000 		.4byte	0
 1505 0010 00       		.byte	0
 1506 0011 00000000 		.4byte	.LEHB1-.LFB23
 1507 0015 00000000 		.4byte	.LEHE1-.LEHB1
 1508 0019 00000000 		.4byte	.L75-.LFB23
 1509 001d 00       		.byte	0
 1510 001e 00000000 		.4byte	.LEHB2-.LFB23
 1511 0022 00000000 		.4byte	.LEHE2-.LEHB2
 1512 0026 00000000 		.4byte	0
 1513 002a 00       		.byte	0
 1514 002b 00000000 		.4byte	.LEHB3-.LFB23
 1515 002f 00000000 		.4byte	.LEHE3-.LEHB3
 1516 0033 00000000 		.4byte	.L76-.LFB23
 1517 0037 00       		.byte	0
 1518 0038 00000000 		.4byte	.LEHB4-.LFB23
 1519 003c 00000000 		.4byte	.LEHE4-.LEHB4
 1520 0040 00000000 		.4byte	0
 1521 0044 00       		.byte	0
 1522 0045 00000000 		.4byte	.LEHB5-.LFB23
 1523 0049 00000000 		.4byte	.LEHE5-.LEHB5
 1524 004d 00000000 		.4byte	.L77-.LFB23
 1525 0051 00       		.byte	0
 1526 0052 00000000 		.4byte	.LEHB6-.LFB23
 1527 0056 00000000 		.4byte	.LEHE6-.LEHB6
 1528 005a 00000000 		.4byte	0
 1529 005e 00       		.byte	0
 1530 005f 00000000 		.4byte	.LEHB7-.LFB23
 1531 0063 00000000 		.4byte	.LEHE7-.LEHB7
 1532 0067 00000000 		.4byte	.L78-.LFB23
 1533 006b 00       		.byte	0
 1534 006c 00000000 		.4byte	.LEHB8-.LFB23
 1535 0070 00000000 		.4byte	.LEHE8-.LEHB8
 1536 0074 00000000 		.4byte	0
GAS LISTING /tmp/cciIGWXT.s 			page 35


 1537 0078 00       		.byte	0
 1538              		.text
 1540              		.weak	_ZTV7WorkerA
 1541              		.section	.data.rel.ro.local._ZTV7WorkerA,"awG",@progbits,_ZTV7WorkerA,comdat
 1542              		.align	3
 1545              	_ZTV7WorkerA:
 1546 0000 00000000 		.dword	0
 1546      00000000 
 1547 0008 00000000 		.dword	0
 1547      00000000 
 1548 0010 00000000 		.dword	_ZN7WorkerAD1Ev
 1548      00000000 
 1549 0018 00000000 		.dword	_ZN7WorkerAD0Ev
 1549      00000000 
 1550 0020 00000000 		.dword	_ZN7WorkerA3runEv
 1550      00000000 
 1551              		.weak	_ZTV7WorkerB
 1552              		.section	.data.rel.ro.local._ZTV7WorkerB,"awG",@progbits,_ZTV7WorkerB,comdat
 1553              		.align	3
 1556              	_ZTV7WorkerB:
 1557 0000 00000000 		.dword	0
 1557      00000000 
 1558 0008 00000000 		.dword	0
 1558      00000000 
 1559 0010 00000000 		.dword	_ZN7WorkerBD1Ev
 1559      00000000 
 1560 0018 00000000 		.dword	_ZN7WorkerBD0Ev
 1560      00000000 
 1561 0020 00000000 		.dword	_ZN7WorkerB3runEv
 1561      00000000 
 1562              		.weak	_ZTV7WorkerC
 1563              		.section	.data.rel.ro.local._ZTV7WorkerC,"awG",@progbits,_ZTV7WorkerC,comdat
 1564              		.align	3
 1567              	_ZTV7WorkerC:
 1568 0000 00000000 		.dword	0
 1568      00000000 
 1569 0008 00000000 		.dword	0
 1569      00000000 
 1570 0010 00000000 		.dword	_ZN7WorkerCD1Ev
 1570      00000000 
 1571 0018 00000000 		.dword	_ZN7WorkerCD0Ev
 1571      00000000 
 1572 0020 00000000 		.dword	_ZN7WorkerC3runEv
 1572      00000000 
 1573              		.weak	_ZTV7WorkerD
 1574              		.section	.data.rel.ro.local._ZTV7WorkerD,"awG",@progbits,_ZTV7WorkerD,comdat
 1575              		.align	3
 1578              	_ZTV7WorkerD:
 1579 0000 00000000 		.dword	0
 1579      00000000 
 1580 0008 00000000 		.dword	0
 1580      00000000 
 1581 0010 00000000 		.dword	_ZN7WorkerDD1Ev
 1581      00000000 
 1582 0018 00000000 		.dword	_ZN7WorkerDD0Ev
 1582      00000000 
 1583 0020 00000000 		.dword	_ZN7WorkerD3runEv
GAS LISTING /tmp/cciIGWXT.s 			page 36


 1583      00000000 
 1584              		.bss
 1585              		.set	.LANCHOR0,. + 0
 1588              	_ZL9finishedA:
 1589 0000 00       		.zero	1
 1592              	_ZL9finishedB:
 1593 0001 00       		.zero	1
 1596              	_ZL9finishedC:
 1597 0002 00       		.zero	1
 1600              	_ZL9finishedD:
 1601 0003 00       		.zero	1
 1602              		.text
 1603              	.Letext0:
 1604              		.file 2 "test/../h/../h/../lib/hw.h"
 1605              		.file 3 "test/../h/syscall_cpp.hpp"
 1606              		.file 4 "test/../h/../h/syscall_c.h"
 1607              		.file 5 "test/../h/printing.hpp"
 5478              		.align	3
 5481              	DW.ref.__gxx_personality_v0:
 5482 0000 00000000 		.dword	__gxx_personality_v0
 5482      00000000 
 5483              		.ident	"GCC: (Ubuntu 9.4.0-1ubuntu1~20.04) 9.4.0"
 5484              		.section	.note.GNU-stack,"",@progbits
GAS LISTING /tmp/cciIGWXT.s 			page 37


DEFINED SYMBOLS
                            *ABS*:0000000000000000 Threads_CPP_API_test.cpp
     /tmp/cciIGWXT.s:8      .text:0000000000000000 _ZL9fibonaccim
     /tmp/cciIGWXT.s:12     .text:0000000000000000 .L0 
     /tmp/cciIGWXT.s:14     .text:0000000000000000 .L0 
     /tmp/cciIGWXT.s:15     .text:0000000000000004 .L0 
     /tmp/cciIGWXT.s:20     .text:0000000000000014 .L0 
     /tmp/cciIGWXT.s:21     .text:0000000000000014 .L0 
     /tmp/cciIGWXT.s:22     .text:0000000000000014 .L0 
     /tmp/cciIGWXT.s:23     .text:0000000000000014 .L0 
     /tmp/cciIGWXT.s:25     .text:0000000000000018 .L0 
     /tmp/cciIGWXT.s:28     .text:000000000000001c .L0 
     /tmp/cciIGWXT.s:31     .text:0000000000000024 .L0 
     /tmp/cciIGWXT.s:32     .text:0000000000000024 .L0 
     /tmp/cciIGWXT.s:35     .text:000000000000002c .L0 
     /tmp/cciIGWXT.s:39     .text:0000000000000030 .L0 
     /tmp/cciIGWXT.s:40     .text:0000000000000030 .L0 
     /tmp/cciIGWXT.s:45     .text:0000000000000040 .L0 
     /tmp/cciIGWXT.s:49     .text:000000000000004c .L0 
     /tmp/cciIGWXT.s:52     .text:0000000000000050 .L0 
     /tmp/cciIGWXT.s:53     .text:0000000000000054 .L0 
     /tmp/cciIGWXT.s:54     .text:0000000000000054 .L0 
     /tmp/cciIGWXT.s:56     .text:0000000000000058 .L0 
     /tmp/cciIGWXT.s:57     .text:0000000000000058 .L0 
     /tmp/cciIGWXT.s:59     .text:000000000000005c .L0 
     /tmp/cciIGWXT.s:62     .text:0000000000000060 .L0 
     /tmp/cciIGWXT.s:64     .text:0000000000000064 .L0 
     /tmp/cciIGWXT.s:68     .text:0000000000000068 .L0 
     /tmp/cciIGWXT.s:70     .text:0000000000000068 .L0 
     /tmp/cciIGWXT.s:71     .text:0000000000000068 .L0 
     /tmp/cciIGWXT.s:74     .text:0000000000000074 .L0 
     /tmp/cciIGWXT.s:81     .text._ZN7WorkerAD2Ev:0000000000000000 _ZN7WorkerAD2Ev
     /tmp/cciIGWXT.s:84     .text._ZN7WorkerAD2Ev:0000000000000000 .L0 
     /tmp/cciIGWXT.s:86     .text._ZN7WorkerAD2Ev:0000000000000000 .L0 
     /tmp/cciIGWXT.s:87     .text._ZN7WorkerAD2Ev:0000000000000004 .L0 
     /tmp/cciIGWXT.s:90     .text._ZN7WorkerAD2Ev:000000000000000c .L0 
     /tmp/cciIGWXT.s:91     .text._ZN7WorkerAD2Ev:000000000000000c .L0 
     /tmp/cciIGWXT.s:93     .text._ZN7WorkerAD2Ev:0000000000000010 .L0 
     /tmp/cciIGWXT.s:1545   .data.rel.ro.local._ZTV7WorkerA:0000000000000000 _ZTV7WorkerA
     /tmp/cciIGWXT.s:96     .text._ZN7WorkerAD2Ev:0000000000000010 .L0 
     /tmp/cciIGWXT.s:102    .text._ZN7WorkerAD2Ev:0000000000000028 .L0 
     /tmp/cciIGWXT.s:104    .text._ZN7WorkerAD2Ev:000000000000002c .L0 
     /tmp/cciIGWXT.s:105    .text._ZN7WorkerAD2Ev:000000000000002c .L0 
     /tmp/cciIGWXT.s:107    .text._ZN7WorkerAD2Ev:0000000000000030 .L0 
     /tmp/cciIGWXT.s:109    .text._ZN7WorkerAD2Ev:0000000000000034 .L0 
     /tmp/cciIGWXT.s:81     .text._ZN7WorkerAD2Ev:0000000000000000 _ZN7WorkerAD1Ev
     /tmp/cciIGWXT.s:118    .text._ZN7WorkerAD0Ev:0000000000000000 _ZN7WorkerAD0Ev
     /tmp/cciIGWXT.s:121    .text._ZN7WorkerAD0Ev:0000000000000000 .L0 
     /tmp/cciIGWXT.s:123    .text._ZN7WorkerAD0Ev:0000000000000000 .L0 
     /tmp/cciIGWXT.s:124    .text._ZN7WorkerAD0Ev:0000000000000004 .L0 
     /tmp/cciIGWXT.s:128    .text._ZN7WorkerAD0Ev:0000000000000010 .L0 
     /tmp/cciIGWXT.s:129    .text._ZN7WorkerAD0Ev:0000000000000010 .L0 
     /tmp/cciIGWXT.s:130    .text._ZN7WorkerAD0Ev:0000000000000010 .L0 
     /tmp/cciIGWXT.s:132    .text._ZN7WorkerAD0Ev:0000000000000014 .L0 
     /tmp/cciIGWXT.s:138    .text._ZN7WorkerAD0Ev:0000000000000018 .L0 
     /tmp/cciIGWXT.s:148    .text._ZN7WorkerAD0Ev:000000000000003c .L0 
     /tmp/cciIGWXT.s:150    .text._ZN7WorkerAD0Ev:0000000000000040 .L0 
GAS LISTING /tmp/cciIGWXT.s 			page 38


     /tmp/cciIGWXT.s:151    .text._ZN7WorkerAD0Ev:0000000000000040 .L0 
     /tmp/cciIGWXT.s:153    .text._ZN7WorkerAD0Ev:0000000000000044 .L0 
     /tmp/cciIGWXT.s:156    .text._ZN7WorkerAD0Ev:0000000000000048 .L0 
     /tmp/cciIGWXT.s:158    .text._ZN7WorkerAD0Ev:000000000000004c .L0 
     /tmp/cciIGWXT.s:165    .text._ZN7WorkerBD2Ev:0000000000000000 _ZN7WorkerBD2Ev
     /tmp/cciIGWXT.s:168    .text._ZN7WorkerBD2Ev:0000000000000000 .L0 
     /tmp/cciIGWXT.s:170    .text._ZN7WorkerBD2Ev:0000000000000000 .L0 
     /tmp/cciIGWXT.s:171    .text._ZN7WorkerBD2Ev:0000000000000004 .L0 
     /tmp/cciIGWXT.s:174    .text._ZN7WorkerBD2Ev:000000000000000c .L0 
     /tmp/cciIGWXT.s:175    .text._ZN7WorkerBD2Ev:000000000000000c .L0 
     /tmp/cciIGWXT.s:177    .text._ZN7WorkerBD2Ev:0000000000000010 .L0 
     /tmp/cciIGWXT.s:1556   .data.rel.ro.local._ZTV7WorkerB:0000000000000000 _ZTV7WorkerB
     /tmp/cciIGWXT.s:180    .text._ZN7WorkerBD2Ev:0000000000000010 .L0 
     /tmp/cciIGWXT.s:186    .text._ZN7WorkerBD2Ev:0000000000000028 .L0 
     /tmp/cciIGWXT.s:188    .text._ZN7WorkerBD2Ev:000000000000002c .L0 
     /tmp/cciIGWXT.s:189    .text._ZN7WorkerBD2Ev:000000000000002c .L0 
     /tmp/cciIGWXT.s:191    .text._ZN7WorkerBD2Ev:0000000000000030 .L0 
     /tmp/cciIGWXT.s:193    .text._ZN7WorkerBD2Ev:0000000000000034 .L0 
     /tmp/cciIGWXT.s:165    .text._ZN7WorkerBD2Ev:0000000000000000 _ZN7WorkerBD1Ev
     /tmp/cciIGWXT.s:202    .text._ZN7WorkerBD0Ev:0000000000000000 _ZN7WorkerBD0Ev
     /tmp/cciIGWXT.s:205    .text._ZN7WorkerBD0Ev:0000000000000000 .L0 
     /tmp/cciIGWXT.s:207    .text._ZN7WorkerBD0Ev:0000000000000000 .L0 
     /tmp/cciIGWXT.s:208    .text._ZN7WorkerBD0Ev:0000000000000004 .L0 
     /tmp/cciIGWXT.s:212    .text._ZN7WorkerBD0Ev:0000000000000010 .L0 
     /tmp/cciIGWXT.s:213    .text._ZN7WorkerBD0Ev:0000000000000010 .L0 
     /tmp/cciIGWXT.s:214    .text._ZN7WorkerBD0Ev:0000000000000010 .L0 
     /tmp/cciIGWXT.s:216    .text._ZN7WorkerBD0Ev:0000000000000014 .L0 
     /tmp/cciIGWXT.s:222    .text._ZN7WorkerBD0Ev:0000000000000018 .L0 
     /tmp/cciIGWXT.s:232    .text._ZN7WorkerBD0Ev:000000000000003c .L0 
     /tmp/cciIGWXT.s:234    .text._ZN7WorkerBD0Ev:0000000000000040 .L0 
     /tmp/cciIGWXT.s:235    .text._ZN7WorkerBD0Ev:0000000000000040 .L0 
     /tmp/cciIGWXT.s:237    .text._ZN7WorkerBD0Ev:0000000000000044 .L0 
     /tmp/cciIGWXT.s:240    .text._ZN7WorkerBD0Ev:0000000000000048 .L0 
     /tmp/cciIGWXT.s:242    .text._ZN7WorkerBD0Ev:000000000000004c .L0 
     /tmp/cciIGWXT.s:249    .text._ZN7WorkerCD2Ev:0000000000000000 _ZN7WorkerCD2Ev
     /tmp/cciIGWXT.s:252    .text._ZN7WorkerCD2Ev:0000000000000000 .L0 
     /tmp/cciIGWXT.s:254    .text._ZN7WorkerCD2Ev:0000000000000000 .L0 
     /tmp/cciIGWXT.s:255    .text._ZN7WorkerCD2Ev:0000000000000004 .L0 
     /tmp/cciIGWXT.s:258    .text._ZN7WorkerCD2Ev:000000000000000c .L0 
     /tmp/cciIGWXT.s:259    .text._ZN7WorkerCD2Ev:000000000000000c .L0 
     /tmp/cciIGWXT.s:261    .text._ZN7WorkerCD2Ev:0000000000000010 .L0 
     /tmp/cciIGWXT.s:1567   .data.rel.ro.local._ZTV7WorkerC:0000000000000000 _ZTV7WorkerC
     /tmp/cciIGWXT.s:264    .text._ZN7WorkerCD2Ev:0000000000000010 .L0 
     /tmp/cciIGWXT.s:270    .text._ZN7WorkerCD2Ev:0000000000000028 .L0 
     /tmp/cciIGWXT.s:272    .text._ZN7WorkerCD2Ev:000000000000002c .L0 
     /tmp/cciIGWXT.s:273    .text._ZN7WorkerCD2Ev:000000000000002c .L0 
     /tmp/cciIGWXT.s:275    .text._ZN7WorkerCD2Ev:0000000000000030 .L0 
     /tmp/cciIGWXT.s:277    .text._ZN7WorkerCD2Ev:0000000000000034 .L0 
     /tmp/cciIGWXT.s:249    .text._ZN7WorkerCD2Ev:0000000000000000 _ZN7WorkerCD1Ev
     /tmp/cciIGWXT.s:286    .text._ZN7WorkerCD0Ev:0000000000000000 _ZN7WorkerCD0Ev
     /tmp/cciIGWXT.s:289    .text._ZN7WorkerCD0Ev:0000000000000000 .L0 
     /tmp/cciIGWXT.s:291    .text._ZN7WorkerCD0Ev:0000000000000000 .L0 
     /tmp/cciIGWXT.s:292    .text._ZN7WorkerCD0Ev:0000000000000004 .L0 
     /tmp/cciIGWXT.s:296    .text._ZN7WorkerCD0Ev:0000000000000010 .L0 
     /tmp/cciIGWXT.s:297    .text._ZN7WorkerCD0Ev:0000000000000010 .L0 
     /tmp/cciIGWXT.s:298    .text._ZN7WorkerCD0Ev:0000000000000010 .L0 
     /tmp/cciIGWXT.s:300    .text._ZN7WorkerCD0Ev:0000000000000014 .L0 
GAS LISTING /tmp/cciIGWXT.s 			page 39


     /tmp/cciIGWXT.s:306    .text._ZN7WorkerCD0Ev:0000000000000018 .L0 
     /tmp/cciIGWXT.s:316    .text._ZN7WorkerCD0Ev:000000000000003c .L0 
     /tmp/cciIGWXT.s:318    .text._ZN7WorkerCD0Ev:0000000000000040 .L0 
     /tmp/cciIGWXT.s:319    .text._ZN7WorkerCD0Ev:0000000000000040 .L0 
     /tmp/cciIGWXT.s:321    .text._ZN7WorkerCD0Ev:0000000000000044 .L0 
     /tmp/cciIGWXT.s:324    .text._ZN7WorkerCD0Ev:0000000000000048 .L0 
     /tmp/cciIGWXT.s:326    .text._ZN7WorkerCD0Ev:000000000000004c .L0 
     /tmp/cciIGWXT.s:333    .text._ZN7WorkerDD2Ev:0000000000000000 _ZN7WorkerDD2Ev
     /tmp/cciIGWXT.s:336    .text._ZN7WorkerDD2Ev:0000000000000000 .L0 
     /tmp/cciIGWXT.s:338    .text._ZN7WorkerDD2Ev:0000000000000000 .L0 
     /tmp/cciIGWXT.s:339    .text._ZN7WorkerDD2Ev:0000000000000004 .L0 
     /tmp/cciIGWXT.s:342    .text._ZN7WorkerDD2Ev:000000000000000c .L0 
     /tmp/cciIGWXT.s:343    .text._ZN7WorkerDD2Ev:000000000000000c .L0 
     /tmp/cciIGWXT.s:345    .text._ZN7WorkerDD2Ev:0000000000000010 .L0 
     /tmp/cciIGWXT.s:1578   .data.rel.ro.local._ZTV7WorkerD:0000000000000000 _ZTV7WorkerD
     /tmp/cciIGWXT.s:348    .text._ZN7WorkerDD2Ev:0000000000000010 .L0 
     /tmp/cciIGWXT.s:354    .text._ZN7WorkerDD2Ev:0000000000000028 .L0 
     /tmp/cciIGWXT.s:356    .text._ZN7WorkerDD2Ev:000000000000002c .L0 
     /tmp/cciIGWXT.s:357    .text._ZN7WorkerDD2Ev:000000000000002c .L0 
     /tmp/cciIGWXT.s:359    .text._ZN7WorkerDD2Ev:0000000000000030 .L0 
     /tmp/cciIGWXT.s:361    .text._ZN7WorkerDD2Ev:0000000000000034 .L0 
     /tmp/cciIGWXT.s:333    .text._ZN7WorkerDD2Ev:0000000000000000 _ZN7WorkerDD1Ev
     /tmp/cciIGWXT.s:370    .text._ZN7WorkerDD0Ev:0000000000000000 _ZN7WorkerDD0Ev
     /tmp/cciIGWXT.s:373    .text._ZN7WorkerDD0Ev:0000000000000000 .L0 
     /tmp/cciIGWXT.s:375    .text._ZN7WorkerDD0Ev:0000000000000000 .L0 
     /tmp/cciIGWXT.s:376    .text._ZN7WorkerDD0Ev:0000000000000004 .L0 
     /tmp/cciIGWXT.s:380    .text._ZN7WorkerDD0Ev:0000000000000010 .L0 
     /tmp/cciIGWXT.s:381    .text._ZN7WorkerDD0Ev:0000000000000010 .L0 
     /tmp/cciIGWXT.s:382    .text._ZN7WorkerDD0Ev:0000000000000010 .L0 
     /tmp/cciIGWXT.s:384    .text._ZN7WorkerDD0Ev:0000000000000014 .L0 
     /tmp/cciIGWXT.s:390    .text._ZN7WorkerDD0Ev:0000000000000018 .L0 
     /tmp/cciIGWXT.s:400    .text._ZN7WorkerDD0Ev:000000000000003c .L0 
     /tmp/cciIGWXT.s:402    .text._ZN7WorkerDD0Ev:0000000000000040 .L0 
     /tmp/cciIGWXT.s:403    .text._ZN7WorkerDD0Ev:0000000000000040 .L0 
     /tmp/cciIGWXT.s:405    .text._ZN7WorkerDD0Ev:0000000000000044 .L0 
     /tmp/cciIGWXT.s:408    .text._ZN7WorkerDD0Ev:0000000000000048 .L0 
     /tmp/cciIGWXT.s:410    .text._ZN7WorkerDD0Ev:000000000000004c .L0 
     /tmp/cciIGWXT.s:427    .text:0000000000000074 _ZN7WorkerA11workerBodyAEPv
     /tmp/cciIGWXT.s:430    .text:0000000000000074 .L0 
     /tmp/cciIGWXT.s:432    .text:0000000000000074 .L0 
     /tmp/cciIGWXT.s:433    .text:0000000000000078 .L0 
     /tmp/cciIGWXT.s:438    .text:0000000000000088 .L0 
     /tmp/cciIGWXT.s:439    .text:0000000000000088 .L0 
     /tmp/cciIGWXT.s:440    .text:0000000000000088 .L0 
     /tmp/cciIGWXT.s:441    .text:0000000000000088 .L0 
     /tmp/cciIGWXT.s:443    .text:000000000000008c .L0 
     /tmp/cciIGWXT.s:447    .text:000000000000008c .L0 
     /tmp/cciIGWXT.s:448    .text:000000000000008c .L0 
     /tmp/cciIGWXT.s:456    .text:0000000000000094 .L0 
     /tmp/cciIGWXT.s:457    .text:0000000000000094 .L0 
     /tmp/cciIGWXT.s:461    .text:000000000000009c .L0 
     /tmp/cciIGWXT.s:465    .text:00000000000000a0 .L0 
     /tmp/cciIGWXT.s:471    .text:00000000000000ac .L0 
     /tmp/cciIGWXT.s:475    .text:00000000000000b0 .L0 
     /tmp/cciIGWXT.s:479    .text:00000000000000bc .L0 
     /tmp/cciIGWXT.s:489    .text:00000000000000c4 .L0 
     /tmp/cciIGWXT.s:493    .text:00000000000000c8 .L0 
GAS LISTING /tmp/cciIGWXT.s 			page 40


     /tmp/cciIGWXT.s:497    .text:00000000000000d0 .L0 
     /tmp/cciIGWXT.s:498    .text:00000000000000d0 .L0 
     /tmp/cciIGWXT.s:502    .text:00000000000000e0 .L0 
     /tmp/cciIGWXT.s:503    .text:00000000000000e0 .L0 
     /tmp/cciIGWXT.s:509    .text:00000000000000f4 .L0 
     /tmp/cciIGWXT.s:510    .text:00000000000000f4 .L0 
     /tmp/cciIGWXT.s:515    .text:0000000000000104 .L0 
     /tmp/cciIGWXT.s:516    .text:0000000000000104 .L0 
     /tmp/cciIGWXT.s:524    .text:000000000000010c .L0 
     /tmp/cciIGWXT.s:525    .text:000000000000010c .L0 
     /tmp/cciIGWXT.s:529    .text:000000000000011c .L0 
     /tmp/cciIGWXT.s:530    .text:000000000000011c .L0 
     /tmp/cciIGWXT.s:533    .text:0000000000000128 .L0 
     /tmp/cciIGWXT.s:534    .text:000000000000012c .L0 
     /tmp/cciIGWXT.s:536    .text:0000000000000130 .L0 
     /tmp/cciIGWXT.s:537    .text:0000000000000130 .L0 
     /tmp/cciIGWXT.s:539    .text:0000000000000134 .L0 
     /tmp/cciIGWXT.s:541    .text:0000000000000138 .L0 
     /tmp/cciIGWXT.s:544    .text:000000000000013c .L0 
     /tmp/cciIGWXT.s:546    .text:0000000000000140 .L0 
     /tmp/cciIGWXT.s:553    .text._ZN7WorkerA3runEv:0000000000000000 _ZN7WorkerA3runEv
     /tmp/cciIGWXT.s:556    .text._ZN7WorkerA3runEv:0000000000000000 .L0 
     /tmp/cciIGWXT.s:558    .text._ZN7WorkerA3runEv:0000000000000000 .L0 
     /tmp/cciIGWXT.s:559    .text._ZN7WorkerA3runEv:0000000000000004 .L0 
     /tmp/cciIGWXT.s:562    .text._ZN7WorkerA3runEv:000000000000000c .L0 
     /tmp/cciIGWXT.s:563    .text._ZN7WorkerA3runEv:000000000000000c .L0 
     /tmp/cciIGWXT.s:565    .text._ZN7WorkerA3runEv:0000000000000010 .L0 
     /tmp/cciIGWXT.s:567    .text._ZN7WorkerA3runEv:0000000000000010 .L0 
     /tmp/cciIGWXT.s:568    .text._ZN7WorkerA3runEv:0000000000000010 .L0 
     /tmp/cciIGWXT.s:572    .text._ZN7WorkerA3runEv:000000000000001c .L0 
     /tmp/cciIGWXT.s:573    .text._ZN7WorkerA3runEv:0000000000000020 .L0 
     /tmp/cciIGWXT.s:575    .text._ZN7WorkerA3runEv:0000000000000024 .L0 
     /tmp/cciIGWXT.s:576    .text._ZN7WorkerA3runEv:0000000000000024 .L0 
     /tmp/cciIGWXT.s:578    .text._ZN7WorkerA3runEv:0000000000000028 .L0 
     /tmp/cciIGWXT.s:580    .text._ZN7WorkerA3runEv:000000000000002c .L0 
     /tmp/cciIGWXT.s:594    .text:0000000000000140 _ZN7WorkerB11workerBodyBEPv
     /tmp/cciIGWXT.s:597    .text:0000000000000140 .L0 
     /tmp/cciIGWXT.s:599    .text:0000000000000140 .L0 
     /tmp/cciIGWXT.s:600    .text:0000000000000144 .L0 
     /tmp/cciIGWXT.s:605    .text:0000000000000154 .L0 
     /tmp/cciIGWXT.s:606    .text:0000000000000154 .L0 
     /tmp/cciIGWXT.s:607    .text:0000000000000154 .L0 
     /tmp/cciIGWXT.s:608    .text:0000000000000154 .L0 
     /tmp/cciIGWXT.s:610    .text:0000000000000158 .L0 
     /tmp/cciIGWXT.s:614    .text:0000000000000158 .L0 
     /tmp/cciIGWXT.s:615    .text:0000000000000158 .L0 
     /tmp/cciIGWXT.s:623    .text:0000000000000160 .L0 
     /tmp/cciIGWXT.s:624    .text:0000000000000160 .L0 
     /tmp/cciIGWXT.s:628    .text:0000000000000168 .L0 
     /tmp/cciIGWXT.s:632    .text:000000000000016c .L0 
     /tmp/cciIGWXT.s:638    .text:0000000000000178 .L0 
     /tmp/cciIGWXT.s:642    .text:000000000000017c .L0 
     /tmp/cciIGWXT.s:646    .text:0000000000000188 .L0 
     /tmp/cciIGWXT.s:656    .text:0000000000000190 .L0 
     /tmp/cciIGWXT.s:660    .text:0000000000000194 .L0 
     /tmp/cciIGWXT.s:664    .text:000000000000019c .L0 
     /tmp/cciIGWXT.s:665    .text:000000000000019c .L0 
GAS LISTING /tmp/cciIGWXT.s 			page 41


     /tmp/cciIGWXT.s:669    .text:00000000000001ac .L0 
     /tmp/cciIGWXT.s:670    .text:00000000000001ac .L0 
     /tmp/cciIGWXT.s:676    .text:00000000000001c0 .L0 
     /tmp/cciIGWXT.s:677    .text:00000000000001c0 .L0 
     /tmp/cciIGWXT.s:682    .text:00000000000001d0 .L0 
     /tmp/cciIGWXT.s:683    .text:00000000000001d0 .L0 
     /tmp/cciIGWXT.s:691    .text:00000000000001d8 .L0 
     /tmp/cciIGWXT.s:692    .text:00000000000001d8 .L0 
     /tmp/cciIGWXT.s:696    .text:00000000000001e8 .L0 
     /tmp/cciIGWXT.s:697    .text:00000000000001e8 .L0 
     /tmp/cciIGWXT.s:700    .text:00000000000001f4 .L0 
     /tmp/cciIGWXT.s:701    .text:00000000000001f4 .L0 
     /tmp/cciIGWXT.s:704    .text:00000000000001fc .L0 
     /tmp/cciIGWXT.s:705    .text:0000000000000200 .L0 
     /tmp/cciIGWXT.s:707    .text:0000000000000204 .L0 
     /tmp/cciIGWXT.s:708    .text:0000000000000204 .L0 
     /tmp/cciIGWXT.s:710    .text:0000000000000208 .L0 
     /tmp/cciIGWXT.s:712    .text:000000000000020c .L0 
     /tmp/cciIGWXT.s:715    .text:0000000000000210 .L0 
     /tmp/cciIGWXT.s:717    .text:0000000000000214 .L0 
     /tmp/cciIGWXT.s:724    .text._ZN7WorkerB3runEv:0000000000000000 _ZN7WorkerB3runEv
     /tmp/cciIGWXT.s:727    .text._ZN7WorkerB3runEv:0000000000000000 .L0 
     /tmp/cciIGWXT.s:729    .text._ZN7WorkerB3runEv:0000000000000000 .L0 
     /tmp/cciIGWXT.s:730    .text._ZN7WorkerB3runEv:0000000000000004 .L0 
     /tmp/cciIGWXT.s:733    .text._ZN7WorkerB3runEv:000000000000000c .L0 
     /tmp/cciIGWXT.s:734    .text._ZN7WorkerB3runEv:000000000000000c .L0 
     /tmp/cciIGWXT.s:736    .text._ZN7WorkerB3runEv:0000000000000010 .L0 
     /tmp/cciIGWXT.s:738    .text._ZN7WorkerB3runEv:0000000000000010 .L0 
     /tmp/cciIGWXT.s:739    .text._ZN7WorkerB3runEv:0000000000000010 .L0 
     /tmp/cciIGWXT.s:743    .text._ZN7WorkerB3runEv:000000000000001c .L0 
     /tmp/cciIGWXT.s:744    .text._ZN7WorkerB3runEv:0000000000000020 .L0 
     /tmp/cciIGWXT.s:746    .text._ZN7WorkerB3runEv:0000000000000024 .L0 
     /tmp/cciIGWXT.s:747    .text._ZN7WorkerB3runEv:0000000000000024 .L0 
     /tmp/cciIGWXT.s:749    .text._ZN7WorkerB3runEv:0000000000000028 .L0 
     /tmp/cciIGWXT.s:751    .text._ZN7WorkerB3runEv:000000000000002c .L0 
     /tmp/cciIGWXT.s:774    .text:0000000000000214 _ZN7WorkerC11workerBodyCEPv
     /tmp/cciIGWXT.s:777    .text:0000000000000214 .L0 
     /tmp/cciIGWXT.s:779    .text:0000000000000214 .L0 
     /tmp/cciIGWXT.s:780    .text:0000000000000218 .L0 
     /tmp/cciIGWXT.s:785    .text:0000000000000228 .L0 
     /tmp/cciIGWXT.s:786    .text:0000000000000228 .L0 
     /tmp/cciIGWXT.s:787    .text:0000000000000228 .L0 
     /tmp/cciIGWXT.s:788    .text:0000000000000228 .L0 
     /tmp/cciIGWXT.s:790    .text:000000000000022c .L0 
     /tmp/cciIGWXT.s:793    .text:000000000000022c .L0 
     /tmp/cciIGWXT.s:794    .text:000000000000022c .L0 
     /tmp/cciIGWXT.s:799    .text:0000000000000234 .L0 
     /tmp/cciIGWXT.s:800    .text:0000000000000234 .L0 
     /tmp/cciIGWXT.s:804    .text:0000000000000244 .L0 
     /tmp/cciIGWXT.s:805    .text:0000000000000244 .L0 
     /tmp/cciIGWXT.s:811    .text:0000000000000258 .L0 
     /tmp/cciIGWXT.s:812    .text:0000000000000258 .L0 
     /tmp/cciIGWXT.s:816    .text:0000000000000268 .L0 
     /tmp/cciIGWXT.s:822    .text:0000000000000270 .L0 
     /tmp/cciIGWXT.s:823    .text:0000000000000270 .L0 
     /tmp/cciIGWXT.s:826    .text:0000000000000278 .L0 
     /tmp/cciIGWXT.s:827    .text:0000000000000278 .L0 
GAS LISTING /tmp/cciIGWXT.s 			page 42


     /tmp/cciIGWXT.s:831    .text:0000000000000288 .L0 
test/Threads_CPP_API_test.cpp:89     .text:0000000000000288 .L0 
     /tmp/cciIGWXT.s:837    .text:000000000000028c .L0 
     /tmp/cciIGWXT.s:839    .text:000000000000028c .L0 
     /tmp/cciIGWXT.s:842    .text:0000000000000294 .L0 
     /tmp/cciIGWXT.s:843    .text:0000000000000294 .L0 
test/Threads_CPP_API_test.cpp:93     .text:0000000000000294 .L0 
     /tmp/cciIGWXT.s:850    .text:0000000000000298 .L0 
     /tmp/cciIGWXT.s:852    .text:0000000000000298 .L0 
     /tmp/cciIGWXT.s:856    .text:00000000000002a8 .L0 
     /tmp/cciIGWXT.s:857    .text:00000000000002a8 .L0 
     /tmp/cciIGWXT.s:863    .text:00000000000002bc .L0 
     /tmp/cciIGWXT.s:864    .text:00000000000002bc .L0 
     /tmp/cciIGWXT.s:868    .text:00000000000002cc .L0 
     /tmp/cciIGWXT.s:869    .text:00000000000002cc .L0 
     /tmp/cciIGWXT.s:875    .text:00000000000002dc .L0 
     /tmp/cciIGWXT.s:876    .text:00000000000002dc .L0 
     /tmp/cciIGWXT.s:881    .text:00000000000002ec .L0 
     /tmp/cciIGWXT.s:882    .text:00000000000002ec .L0 
     /tmp/cciIGWXT.s:888    .text:0000000000000300 .L0 
     /tmp/cciIGWXT.s:889    .text:0000000000000300 .L0 
     /tmp/cciIGWXT.s:895    .text:0000000000000314 .L0 
     /tmp/cciIGWXT.s:896    .text:0000000000000314 .L0 
     /tmp/cciIGWXT.s:900    .text:0000000000000324 .L0 
     /tmp/cciIGWXT.s:901    .text:0000000000000324 .L0 
     /tmp/cciIGWXT.s:907    .text:0000000000000338 .L0 
     /tmp/cciIGWXT.s:908    .text:0000000000000338 .L0 
     /tmp/cciIGWXT.s:912    .text:0000000000000348 .L0 
     /tmp/cciIGWXT.s:918    .text:0000000000000350 .L0 
     /tmp/cciIGWXT.s:919    .text:0000000000000350 .L0 
     /tmp/cciIGWXT.s:922    .text:0000000000000358 .L0 
     /tmp/cciIGWXT.s:923    .text:0000000000000358 .L0 
     /tmp/cciIGWXT.s:927    .text:0000000000000368 .L0 
     /tmp/cciIGWXT.s:928    .text:0000000000000368 .L0 
     /tmp/cciIGWXT.s:931    .text:0000000000000374 .L0 
     /tmp/cciIGWXT.s:932    .text:0000000000000374 .L0 
     /tmp/cciIGWXT.s:935    .text:000000000000037c .L0 
     /tmp/cciIGWXT.s:936    .text:0000000000000380 .L0 
     /tmp/cciIGWXT.s:938    .text:0000000000000384 .L0 
     /tmp/cciIGWXT.s:939    .text:0000000000000384 .L0 
     /tmp/cciIGWXT.s:941    .text:0000000000000388 .L0 
     /tmp/cciIGWXT.s:944    .text:000000000000038c .L0 
     /tmp/cciIGWXT.s:947    .text:0000000000000390 .L0 
     /tmp/cciIGWXT.s:949    .text:0000000000000394 .L0 
     /tmp/cciIGWXT.s:956    .text._ZN7WorkerC3runEv:0000000000000000 _ZN7WorkerC3runEv
     /tmp/cciIGWXT.s:959    .text._ZN7WorkerC3runEv:0000000000000000 .L0 
     /tmp/cciIGWXT.s:961    .text._ZN7WorkerC3runEv:0000000000000000 .L0 
     /tmp/cciIGWXT.s:962    .text._ZN7WorkerC3runEv:0000000000000004 .L0 
     /tmp/cciIGWXT.s:965    .text._ZN7WorkerC3runEv:000000000000000c .L0 
     /tmp/cciIGWXT.s:966    .text._ZN7WorkerC3runEv:000000000000000c .L0 
     /tmp/cciIGWXT.s:968    .text._ZN7WorkerC3runEv:0000000000000010 .L0 
     /tmp/cciIGWXT.s:970    .text._ZN7WorkerC3runEv:0000000000000010 .L0 
     /tmp/cciIGWXT.s:971    .text._ZN7WorkerC3runEv:0000000000000010 .L0 
     /tmp/cciIGWXT.s:975    .text._ZN7WorkerC3runEv:000000000000001c .L0 
     /tmp/cciIGWXT.s:976    .text._ZN7WorkerC3runEv:0000000000000020 .L0 
     /tmp/cciIGWXT.s:978    .text._ZN7WorkerC3runEv:0000000000000024 .L0 
     /tmp/cciIGWXT.s:979    .text._ZN7WorkerC3runEv:0000000000000024 .L0 
GAS LISTING /tmp/cciIGWXT.s 			page 43


     /tmp/cciIGWXT.s:981    .text._ZN7WorkerC3runEv:0000000000000028 .L0 
     /tmp/cciIGWXT.s:983    .text._ZN7WorkerC3runEv:000000000000002c .L0 
     /tmp/cciIGWXT.s:1003   .text:0000000000000394 _ZN7WorkerD11workerBodyDEPv
     /tmp/cciIGWXT.s:1006   .text:0000000000000394 .L0 
     /tmp/cciIGWXT.s:1008   .text:0000000000000394 .L0 
     /tmp/cciIGWXT.s:1009   .text:0000000000000398 .L0 
     /tmp/cciIGWXT.s:1014   .text:00000000000003a8 .L0 
     /tmp/cciIGWXT.s:1015   .text:00000000000003a8 .L0 
     /tmp/cciIGWXT.s:1016   .text:00000000000003a8 .L0 
     /tmp/cciIGWXT.s:1017   .text:00000000000003a8 .L0 
     /tmp/cciIGWXT.s:1019   .text:00000000000003ac .L0 
     /tmp/cciIGWXT.s:1022   .text:00000000000003ac .L0 
     /tmp/cciIGWXT.s:1023   .text:00000000000003ac .L0 
     /tmp/cciIGWXT.s:1028   .text:00000000000003b4 .L0 
     /tmp/cciIGWXT.s:1029   .text:00000000000003b4 .L0 
     /tmp/cciIGWXT.s:1033   .text:00000000000003c4 .L0 
     /tmp/cciIGWXT.s:1034   .text:00000000000003c4 .L0 
     /tmp/cciIGWXT.s:1040   .text:00000000000003d8 .L0 
     /tmp/cciIGWXT.s:1041   .text:00000000000003d8 .L0 
     /tmp/cciIGWXT.s:1045   .text:00000000000003e8 .L0 
     /tmp/cciIGWXT.s:1051   .text:00000000000003f0 .L0 
     /tmp/cciIGWXT.s:1052   .text:00000000000003f0 .L0 
     /tmp/cciIGWXT.s:1055   .text:00000000000003f8 .L0 
     /tmp/cciIGWXT.s:1056   .text:00000000000003f8 .L0 
     /tmp/cciIGWXT.s:1060   .text:0000000000000408 .L0 
test/Threads_CPP_API_test.cpp:116    .text:0000000000000408 .L0 
     /tmp/cciIGWXT.s:1066   .text:000000000000040c .L0 
     /tmp/cciIGWXT.s:1068   .text:000000000000040c .L0 
     /tmp/cciIGWXT.s:1071   .text:0000000000000414 .L0 
     /tmp/cciIGWXT.s:1072   .text:0000000000000414 .L0 
     /tmp/cciIGWXT.s:1078   .text:0000000000000424 .L0 
     /tmp/cciIGWXT.s:1079   .text:0000000000000424 .L0 
     /tmp/cciIGWXT.s:1084   .text:0000000000000434 .L0 
     /tmp/cciIGWXT.s:1085   .text:0000000000000434 .L0 
     /tmp/cciIGWXT.s:1091   .text:0000000000000448 .L0 
     /tmp/cciIGWXT.s:1092   .text:0000000000000448 .L0 
     /tmp/cciIGWXT.s:1098   .text:000000000000045c .L0 
     /tmp/cciIGWXT.s:1099   .text:000000000000045c .L0 
     /tmp/cciIGWXT.s:1103   .text:000000000000046c .L0 
     /tmp/cciIGWXT.s:1104   .text:000000000000046c .L0 
     /tmp/cciIGWXT.s:1110   .text:0000000000000480 .L0 
     /tmp/cciIGWXT.s:1111   .text:0000000000000480 .L0 
     /tmp/cciIGWXT.s:1115   .text:0000000000000490 .L0 
     /tmp/cciIGWXT.s:1121   .text:0000000000000498 .L0 
     /tmp/cciIGWXT.s:1122   .text:0000000000000498 .L0 
     /tmp/cciIGWXT.s:1125   .text:00000000000004a0 .L0 
     /tmp/cciIGWXT.s:1126   .text:00000000000004a0 .L0 
     /tmp/cciIGWXT.s:1130   .text:00000000000004b0 .L0 
     /tmp/cciIGWXT.s:1131   .text:00000000000004b0 .L0 
     /tmp/cciIGWXT.s:1134   .text:00000000000004bc .L0 
     /tmp/cciIGWXT.s:1135   .text:00000000000004bc .L0 
     /tmp/cciIGWXT.s:1138   .text:00000000000004c4 .L0 
     /tmp/cciIGWXT.s:1139   .text:00000000000004c8 .L0 
     /tmp/cciIGWXT.s:1141   .text:00000000000004cc .L0 
     /tmp/cciIGWXT.s:1142   .text:00000000000004cc .L0 
     /tmp/cciIGWXT.s:1144   .text:00000000000004d0 .L0 
     /tmp/cciIGWXT.s:1147   .text:00000000000004d4 .L0 
GAS LISTING /tmp/cciIGWXT.s 			page 44


     /tmp/cciIGWXT.s:1150   .text:00000000000004d8 .L0 
     /tmp/cciIGWXT.s:1152   .text:00000000000004dc .L0 
     /tmp/cciIGWXT.s:1159   .text._ZN7WorkerD3runEv:0000000000000000 _ZN7WorkerD3runEv
     /tmp/cciIGWXT.s:1162   .text._ZN7WorkerD3runEv:0000000000000000 .L0 
     /tmp/cciIGWXT.s:1164   .text._ZN7WorkerD3runEv:0000000000000000 .L0 
     /tmp/cciIGWXT.s:1165   .text._ZN7WorkerD3runEv:0000000000000004 .L0 
     /tmp/cciIGWXT.s:1168   .text._ZN7WorkerD3runEv:000000000000000c .L0 
     /tmp/cciIGWXT.s:1169   .text._ZN7WorkerD3runEv:000000000000000c .L0 
     /tmp/cciIGWXT.s:1171   .text._ZN7WorkerD3runEv:0000000000000010 .L0 
     /tmp/cciIGWXT.s:1173   .text._ZN7WorkerD3runEv:0000000000000010 .L0 
     /tmp/cciIGWXT.s:1174   .text._ZN7WorkerD3runEv:0000000000000010 .L0 
     /tmp/cciIGWXT.s:1178   .text._ZN7WorkerD3runEv:000000000000001c .L0 
     /tmp/cciIGWXT.s:1179   .text._ZN7WorkerD3runEv:0000000000000020 .L0 
     /tmp/cciIGWXT.s:1181   .text._ZN7WorkerD3runEv:0000000000000024 .L0 
     /tmp/cciIGWXT.s:1182   .text._ZN7WorkerD3runEv:0000000000000024 .L0 
     /tmp/cciIGWXT.s:1184   .text._ZN7WorkerD3runEv:0000000000000028 .L0 
     /tmp/cciIGWXT.s:1186   .text._ZN7WorkerD3runEv:000000000000002c .L0 
     /tmp/cciIGWXT.s:1215   .text:00000000000004dc _Z20Threads_CPP_API_testv
     /tmp/cciIGWXT.s:1218   .text:00000000000004dc .L0 
     /tmp/cciIGWXT.s:5481   .data.rel.local.DW.ref.__gxx_personality_v0:0000000000000000 DW.ref.__gxx_personality_v0
     /tmp/cciIGWXT.s:1221   .text:00000000000004dc .L0 
     /tmp/cciIGWXT.s:1222   .text:00000000000004e0 .L0 
     /tmp/cciIGWXT.s:1227   .text:00000000000004f0 .L0 
     /tmp/cciIGWXT.s:1228   .text:00000000000004f0 .L0 
     /tmp/cciIGWXT.s:1229   .text:00000000000004f0 .L0 
     /tmp/cciIGWXT.s:1230   .text:00000000000004f0 .L0 
     /tmp/cciIGWXT.s:1232   .text:00000000000004f4 .L0 
     /tmp/cciIGWXT.s:1234   .text:00000000000004f4 .L0 
     /tmp/cciIGWXT.s:1235   .text:00000000000004f4 .L0 
     /tmp/cciIGWXT.s:1236   .text:00000000000004f4 .L0 
     /tmp/cciIGWXT.s:1247   .text:0000000000000504 .L0 
     /tmp/cciIGWXT.s:1256   .text:0000000000000518 .L0 
     /tmp/cciIGWXT.s:1258   .text:000000000000051c .L0 
     /tmp/cciIGWXT.s:1259   .text:000000000000051c .L0 
     /tmp/cciIGWXT.s:1264   .text:000000000000052c .L0 
     /tmp/cciIGWXT.s:1265   .text:000000000000052c .L0 
     /tmp/cciIGWXT.s:1275   .text:000000000000053c .L0 
     /tmp/cciIGWXT.s:1284   .text:0000000000000550 .L0 
     /tmp/cciIGWXT.s:1286   .text:0000000000000554 .L0 
     /tmp/cciIGWXT.s:1287   .text:0000000000000554 .L0 
     /tmp/cciIGWXT.s:1292   .text:0000000000000564 .L0 
     /tmp/cciIGWXT.s:1293   .text:0000000000000564 .L0 
     /tmp/cciIGWXT.s:1303   .text:0000000000000574 .L0 
     /tmp/cciIGWXT.s:1312   .text:0000000000000588 .L0 
     /tmp/cciIGWXT.s:1314   .text:000000000000058c .L0 
     /tmp/cciIGWXT.s:1315   .text:000000000000058c .L0 
     /tmp/cciIGWXT.s:1320   .text:000000000000059c .L0 
     /tmp/cciIGWXT.s:1321   .text:000000000000059c .L0 
     /tmp/cciIGWXT.s:1331   .text:00000000000005ac .L0 
     /tmp/cciIGWXT.s:1340   .text:00000000000005c0 .L0 
     /tmp/cciIGWXT.s:1342   .text:00000000000005c4 .L0 
     /tmp/cciIGWXT.s:1343   .text:00000000000005c4 .L0 
     /tmp/cciIGWXT.s:1349   .text:00000000000005d4 .L0 
     /tmp/cciIGWXT.s:1353   .text:00000000000005d8 .L0 
     /tmp/cciIGWXT.s:1356   .text:00000000000005e0 .L0 
     /tmp/cciIGWXT.s:1357   .text:00000000000005e0 .L0 
     /tmp/cciIGWXT.s:1361   .text:00000000000005ec .L0 
GAS LISTING /tmp/cciIGWXT.s 			page 45


     /tmp/cciIGWXT.s:1365   .text:00000000000005f8 .L0 
     /tmp/cciIGWXT.s:1372   .text:0000000000000600 .L0 
     /tmp/cciIGWXT.s:1373   .text:0000000000000600 .L0 
     /tmp/cciIGWXT.s:1379   .text:0000000000000614 .L0 
     /tmp/cciIGWXT.s:1380   .text:0000000000000614 .L0 
     /tmp/cciIGWXT.s:1384   .text:000000000000061c .L0 
     /tmp/cciIGWXT.s:1385   .text:000000000000061c .L0 
     /tmp/cciIGWXT.s:1386   .text:000000000000061c .L0 
     /tmp/cciIGWXT.s:1388   .text:0000000000000624 .L0 
     /tmp/cciIGWXT.s:1390   .text:0000000000000628 .L0 
     /tmp/cciIGWXT.s:1392   .text:0000000000000630 .L0 
     /tmp/cciIGWXT.s:1394   .text:0000000000000634 .L0 
     /tmp/cciIGWXT.s:1396   .text:000000000000063c .L0 
     /tmp/cciIGWXT.s:1398   .text:0000000000000640 .L0 
     /tmp/cciIGWXT.s:1400   .text:0000000000000648 .L0 
     /tmp/cciIGWXT.s:1402   .text:000000000000064c .L0 
     /tmp/cciIGWXT.s:1403   .text:000000000000064c .L0 
     /tmp/cciIGWXT.s:1408   .text:000000000000065c .L0 
     /tmp/cciIGWXT.s:1414   .text:0000000000000664 .L0 
     /tmp/cciIGWXT.s:1418   .text:0000000000000668 .L0 
     /tmp/cciIGWXT.s:1421   .text:0000000000000670 .L0 
     /tmp/cciIGWXT.s:1424   .text:0000000000000674 .L0 
     /tmp/cciIGWXT.s:1425   .text:0000000000000674 .L0 
     /tmp/cciIGWXT.s:1427   .text:0000000000000678 .L0 
     /tmp/cciIGWXT.s:1435   .text:0000000000000688 .L0 
     /tmp/cciIGWXT.s:1436   .text:0000000000000688 .L0 
     /tmp/cciIGWXT.s:1440   .text:0000000000000698 .L0 
     /tmp/cciIGWXT.s:1441   .text:000000000000069c .L0 
     /tmp/cciIGWXT.s:1442   .text:000000000000069c .L0 
     /tmp/cciIGWXT.s:1444   .text:00000000000006a0 .L0 
     /tmp/cciIGWXT.s:1445   .text:00000000000006a0 .L0 
     /tmp/cciIGWXT.s:1447   .text:00000000000006a4 .L0 
     /tmp/cciIGWXT.s:1450   .text:00000000000006a8 .L0 
     /tmp/cciIGWXT.s:1452   .text:00000000000006ac .L0 
     /tmp/cciIGWXT.s:1456   .text:00000000000006b0 .L0 
     /tmp/cciIGWXT.s:1459   .text:00000000000006b4 .L0 
     /tmp/cciIGWXT.s:1468   .text:00000000000006d0 .L0 
     /tmp/cciIGWXT.s:1477   .text:00000000000006ec .L0 
     /tmp/cciIGWXT.s:1486   .text:0000000000000708 .L0 
     /tmp/cciIGWXT.s:1493   .text:0000000000000720 .L0 
     /tmp/cciIGWXT.s:1585   .bss:0000000000000000 .LANCHOR0
     /tmp/cciIGWXT.s:1588   .bss:0000000000000000 _ZL9finishedA
     /tmp/cciIGWXT.s:1592   .bss:0000000000000001 _ZL9finishedB
     /tmp/cciIGWXT.s:1596   .bss:0000000000000002 _ZL9finishedC
     /tmp/cciIGWXT.s:1600   .bss:0000000000000003 _ZL9finishedD
     /tmp/cciIGWXT.s:1608   .text:0000000000000720 .L0 
     /tmp/cciIGWXT.s:114    .text._ZN7WorkerAD2Ev:0000000000000034 .L0 
     /tmp/cciIGWXT.s:161    .text._ZN7WorkerAD0Ev:000000000000004c .L0 
     /tmp/cciIGWXT.s:198    .text._ZN7WorkerBD2Ev:0000000000000034 .L0 
     /tmp/cciIGWXT.s:245    .text._ZN7WorkerBD0Ev:000000000000004c .L0 
     /tmp/cciIGWXT.s:282    .text._ZN7WorkerCD2Ev:0000000000000034 .L0 
     /tmp/cciIGWXT.s:329    .text._ZN7WorkerCD0Ev:000000000000004c .L0 
     /tmp/cciIGWXT.s:366    .text._ZN7WorkerDD2Ev:0000000000000034 .L0 
     /tmp/cciIGWXT.s:413    .text._ZN7WorkerDD0Ev:000000000000004c .L0 
     /tmp/cciIGWXT.s:583    .text._ZN7WorkerA3runEv:000000000000002c .L0 
     /tmp/cciIGWXT.s:754    .text._ZN7WorkerB3runEv:000000000000002c .L0 
     /tmp/cciIGWXT.s:986    .text._ZN7WorkerC3runEv:000000000000002c .L0 
GAS LISTING /tmp/cciIGWXT.s 			page 46


     /tmp/cciIGWXT.s:1189   .text._ZN7WorkerD3runEv:000000000000002c .L0 
     /tmp/cciIGWXT.s:415    .rodata.str1.8:0000000000000000 .LC0
     /tmp/cciIGWXT.s:498    .text:00000000000000d0 .L0 
     /tmp/cciIGWXT.s:418    .rodata.str1.8:0000000000000008 .LC1
     /tmp/cciIGWXT.s:510    .text:00000000000000f4 .L0 
     /tmp/cciIGWXT.s:421    .rodata.str1.8:0000000000000010 .LC2
     /tmp/cciIGWXT.s:525    .text:000000000000010c .L0 
     /tmp/cciIGWXT.s:531    .text:0000000000000120 .L0 
     /tmp/cciIGWXT.s:585    .rodata.str1.8:0000000000000020 .LC3
     /tmp/cciIGWXT.s:665    .text:000000000000019c .L0 
     /tmp/cciIGWXT.s:677    .text:00000000000001c0 .L0 
     /tmp/cciIGWXT.s:588    .rodata.str1.8:0000000000000028 .LC4
     /tmp/cciIGWXT.s:692    .text:00000000000001d8 .L0 
     /tmp/cciIGWXT.s:698    .text:00000000000001ec .L0 
     /tmp/cciIGWXT.s:756    .rodata.str1.8:0000000000000038 .LC5
     /tmp/cciIGWXT.s:800    .text:0000000000000234 .L0 
     /tmp/cciIGWXT.s:812    .text:0000000000000258 .L0 
     /tmp/cciIGWXT.s:759    .rodata.str1.8:0000000000000040 .LC6
     /tmp/cciIGWXT.s:827    .text:0000000000000278 .L0 
     /tmp/cciIGWXT.s:762    .rodata.str1.8:0000000000000050 .LC7
     /tmp/cciIGWXT.s:852    .text:0000000000000298 .L0 
     /tmp/cciIGWXT.s:864    .text:00000000000002bc .L0 
     /tmp/cciIGWXT.s:765    .rodata.str1.8:0000000000000058 .LC8
     /tmp/cciIGWXT.s:876    .text:00000000000002dc .L0 
     /tmp/cciIGWXT.s:889    .text:0000000000000300 .L0 
     /tmp/cciIGWXT.s:896    .text:0000000000000314 .L0 
     /tmp/cciIGWXT.s:908    .text:0000000000000338 .L0 
     /tmp/cciIGWXT.s:768    .rodata.str1.8:0000000000000068 .LC9
     /tmp/cciIGWXT.s:923    .text:0000000000000358 .L0 
     /tmp/cciIGWXT.s:929    .text:000000000000036c .L0 
     /tmp/cciIGWXT.s:988    .rodata.str1.8:0000000000000078 .LC10
     /tmp/cciIGWXT.s:1029   .text:00000000000003b4 .L0 
     /tmp/cciIGWXT.s:1041   .text:00000000000003d8 .L0 
     /tmp/cciIGWXT.s:991    .rodata.str1.8:0000000000000080 .LC11
     /tmp/cciIGWXT.s:1056   .text:00000000000003f8 .L0 
     /tmp/cciIGWXT.s:994    .rodata.str1.8:0000000000000090 .LC12
     /tmp/cciIGWXT.s:1079   .text:0000000000000424 .L0 
     /tmp/cciIGWXT.s:1092   .text:0000000000000448 .L0 
     /tmp/cciIGWXT.s:1099   .text:000000000000045c .L0 
     /tmp/cciIGWXT.s:1111   .text:0000000000000480 .L0 
     /tmp/cciIGWXT.s:997    .rodata.str1.8:00000000000000a0 .LC13
     /tmp/cciIGWXT.s:1126   .text:00000000000004a0 .L0 
     /tmp/cciIGWXT.s:1132   .text:00000000000004b4 .L0 
     /tmp/cciIGWXT.s:1250   .text:000000000000050c .L0 
     /tmp/cciIGWXT.s:1191   .rodata.str1.8:00000000000000b0 .LC14
     /tmp/cciIGWXT.s:1259   .text:000000000000051c .L0 
     /tmp/cciIGWXT.s:1278   .text:0000000000000544 .L0 
     /tmp/cciIGWXT.s:1194   .rodata.str1.8:00000000000000c8 .LC15
     /tmp/cciIGWXT.s:1287   .text:0000000000000554 .L0 
     /tmp/cciIGWXT.s:1306   .text:000000000000057c .L0 
     /tmp/cciIGWXT.s:1197   .rodata.str1.8:00000000000000e0 .LC16
     /tmp/cciIGWXT.s:1315   .text:000000000000058c .L0 
     /tmp/cciIGWXT.s:1334   .text:00000000000005b4 .L0 
     /tmp/cciIGWXT.s:1200   .rodata.str1.8:00000000000000f8 .LC17
     /tmp/cciIGWXT.s:1343   .text:00000000000005c4 .L0 
     /tmp/cciIGWXT.s:1203   .rodata.str1.8:0000000000000110 .LC18
     /tmp/cciIGWXT.s:1373   .text:0000000000000600 .L0 
GAS LISTING /tmp/cciIGWXT.s 			page 47


     /tmp/cciIGWXT.s:1386   .text:000000000000061c .L0 
     /tmp/cciIGWXT.s:1390   .text:0000000000000628 .L0 
     /tmp/cciIGWXT.s:1394   .text:0000000000000634 .L0 
     /tmp/cciIGWXT.s:1398   .text:0000000000000640 .L0 
     /tmp/cciIGWXT.s:1206   .rodata.str1.8:0000000000000120 .LC19
     /tmp/cciIGWXT.s:1403   .text:000000000000064c .L0 
     /tmp/cciIGWXT.s:1209   .rodata.str1.8:0000000000000138 .LC20
     /tmp/cciIGWXT.s:1436   .text:0000000000000688 .L0 
     /tmp/cciIGWXT.s:50     .text:0000000000000050 .L1
     /tmp/cciIGWXT.s:67     .text:0000000000000068 .L6
     /tmp/cciIGWXT.s:37     .text:0000000000000030 .L3
     /tmp/cciIGWXT.s:491    .text:00000000000000c8 .L29
     /tmp/cciIGWXT.s:483    .text:00000000000000c4 .L25
     /tmp/cciIGWXT.s:451    .text:0000000000000094 .L26
     /tmp/cciIGWXT.s:472    .text:00000000000000b0 .L27
     /tmp/cciIGWXT.s:519    .text:000000000000010c .L24
     /tmp/cciIGWXT.s:463    .text:00000000000000a0 .L28
     /tmp/cciIGWXT.s:658    .text:0000000000000194 .L39
     /tmp/cciIGWXT.s:650    .text:0000000000000190 .L35
     /tmp/cciIGWXT.s:618    .text:0000000000000160 .L36
     /tmp/cciIGWXT.s:639    .text:000000000000017c .L37
     /tmp/cciIGWXT.s:686    .text:00000000000001d8 .L34
     /tmp/cciIGWXT.s:630    .text:000000000000016c .L38
     /tmp/cciIGWXT.s:820    .text:0000000000000270 .L45
     /tmp/cciIGWXT.s:797    .text:0000000000000234 .L49
     /tmp/cciIGWXT.s:916    .text:0000000000000350 .L47
     /tmp/cciIGWXT.s:893    .text:0000000000000314 .L50
     /tmp/cciIGWXT.s:1049   .text:00000000000003f0 .L55
     /tmp/cciIGWXT.s:1026   .text:00000000000003b4 .L59
     /tmp/cciIGWXT.s:1119   .text:0000000000000498 .L57
     /tmp/cciIGWXT.s:1096   .text:000000000000045c .L60
     /tmp/cciIGWXT.s:1369   .text:0000000000000600 .L64
     /tmp/cciIGWXT.s:1350   .text:00000000000005d8 .L65
     /tmp/cciIGWXT.s:1382   .text:000000000000061c .L68
     /tmp/cciIGWXT.s:1377   .text:0000000000000614 .L66
     /tmp/cciIGWXT.s:1416   .text:0000000000000668 .L67
     /tmp/cciIGWXT.s:1432   .text:0000000000000688 .L69
     /tmp/cciIGWXT.s:1412   .text:0000000000000664 .L70
     /tmp/cciIGWXT.s:96     .text._ZN7WorkerAD2Ev:0000000000000010 .L0 
     /tmp/cciIGWXT.s:138    .text._ZN7WorkerAD0Ev:0000000000000018 .L0 
     /tmp/cciIGWXT.s:180    .text._ZN7WorkerBD2Ev:0000000000000010 .L0 
     /tmp/cciIGWXT.s:222    .text._ZN7WorkerBD0Ev:0000000000000018 .L0 
     /tmp/cciIGWXT.s:264    .text._ZN7WorkerCD2Ev:0000000000000010 .L0 
     /tmp/cciIGWXT.s:306    .text._ZN7WorkerCD0Ev:0000000000000018 .L0 
     /tmp/cciIGWXT.s:348    .text._ZN7WorkerDD2Ev:0000000000000010 .L0 
     /tmp/cciIGWXT.s:390    .text._ZN7WorkerDD0Ev:0000000000000018 .L0 
     /tmp/cciIGWXT.s:1237   .text:00000000000004f8 .LEHB0
     /tmp/cciIGWXT.s:1216   .text:00000000000004dc .LFB23
     /tmp/cciIGWXT.s:1240   .text:0000000000000500 .LEHE0
     /tmp/cciIGWXT.s:1243   .text:0000000000000504 .LEHB1
     /tmp/cciIGWXT.s:1249   .text:000000000000050c .LEHE1
     /tmp/cciIGWXT.s:1455   .text:00000000000006b0 .L75
     /tmp/cciIGWXT.s:1260   .text:0000000000000524 .LEHB2
     /tmp/cciIGWXT.s:1268   .text:0000000000000538 .LEHE2
     /tmp/cciIGWXT.s:1271   .text:000000000000053c .LEHB3
     /tmp/cciIGWXT.s:1277   .text:0000000000000544 .LEHE3
     /tmp/cciIGWXT.s:1465   .text:00000000000006cc .L76
GAS LISTING /tmp/cciIGWXT.s 			page 48


     /tmp/cciIGWXT.s:1288   .text:000000000000055c .LEHB4
     /tmp/cciIGWXT.s:1296   .text:0000000000000570 .LEHE4
     /tmp/cciIGWXT.s:1299   .text:0000000000000574 .LEHB5
     /tmp/cciIGWXT.s:1305   .text:000000000000057c .LEHE5
     /tmp/cciIGWXT.s:1474   .text:00000000000006e8 .L77
     /tmp/cciIGWXT.s:1316   .text:0000000000000594 .LEHB6
     /tmp/cciIGWXT.s:1324   .text:00000000000005a8 .LEHE6
     /tmp/cciIGWXT.s:1327   .text:00000000000005ac .LEHB7
     /tmp/cciIGWXT.s:1333   .text:00000000000005b4 .LEHE7
     /tmp/cciIGWXT.s:1483   .text:0000000000000704 .L78
     /tmp/cciIGWXT.s:1344   .text:00000000000005cc .LEHB8
     /tmp/cciIGWXT.s:1492   .text:0000000000000720 .LEHE8
     /tmp/cciIGWXT.s:3851   .debug_abbrev:0000000000000000 .Ldebug_abbrev0
     /tmp/cciIGWXT.s:5435   .debug_str:00000000000004cb .LASF95
     /tmp/cciIGWXT.s:5293   .debug_str:00000000000000b6 .LASF96
     /tmp/cciIGWXT.s:5439   .debug_str:000000000000059f .LASF97
     /tmp/cciIGWXT.s:5225   .debug_ranges:0000000000000000 .Ldebug_ranges0
     /tmp/cciIGWXT.s:5267   .debug_line:0000000000000000 .Ldebug_line0
     /tmp/cciIGWXT.s:5383   .debug_str:000000000000035c .LASF0
     /tmp/cciIGWXT.s:5391   .debug_str:000000000000038c .LASF1
     /tmp/cciIGWXT.s:5373   .debug_str:0000000000000307 .LASF2
     /tmp/cciIGWXT.s:5315   .debug_str:000000000000015b .LASF3
     /tmp/cciIGWXT.s:5351   .debug_str:0000000000000271 .LASF4
     /tmp/cciIGWXT.s:5425   .debug_str:0000000000000482 .LASF5
     /tmp/cciIGWXT.s:5289   .debug_str:000000000000009f .LASF6
     /tmp/cciIGWXT.s:5395   .debug_str:00000000000003ae .LASF7
     /tmp/cciIGWXT.s:5381   .debug_str:0000000000000349 .LASF8
     /tmp/cciIGWXT.s:5443   .debug_str:00000000000005bc .LASF9
     /tmp/cciIGWXT.s:5333   .debug_str:00000000000001fa .LASF10
     /tmp/cciIGWXT.s:5409   .debug_str:0000000000000411 .LASF11
     /tmp/cciIGWXT.s:5397   .debug_str:00000000000003c1 .LASF12
     /tmp/cciIGWXT.s:5291   .debug_str:00000000000000a6 .LASF13
     /tmp/cciIGWXT.s:5277   .debug_str:000000000000003b .LASF14
     /tmp/cciIGWXT.s:5305   .debug_str:0000000000000101 .LASF15
     /tmp/cciIGWXT.s:5419   .debug_str:0000000000000450 .LASF16
     /tmp/cciIGWXT.s:5313   .debug_str:0000000000000145 .LASF17
     /tmp/cciIGWXT.s:5399   .debug_str:00000000000003d0 .LASF18
     /tmp/cciIGWXT.s:5347   .debug_str:000000000000025d .LASF19
     /tmp/cciIGWXT.s:5323   .debug_str:000000000000019d .LASF20
     /tmp/cciIGWXT.s:5349   .debug_str:0000000000000267 .LASF21
     /tmp/cciIGWXT.s:5279   .debug_str:000000000000004b .LASF22
     /tmp/cciIGWXT.s:5353   .debug_str:0000000000000278 .LASF23
     /tmp/cciIGWXT.s:5411   .debug_str:0000000000000420 .LASF24
     /tmp/cciIGWXT.s:5377   .debug_str:0000000000000325 .LASF25
     /tmp/cciIGWXT.s:5343   .debug_str:0000000000000240 .LASF26
     /tmp/cciIGWXT.s:5387   .debug_str:0000000000000379 .LASF27
     /tmp/cciIGWXT.s:5281   .debug_str:0000000000000055 .LASF37
     /tmp/cciIGWXT.s:5317   .debug_str:0000000000000161 .LASF39
     /tmp/cciIGWXT.s:5283   .debug_str:0000000000000071 .LASF41
     /tmp/cciIGWXT.s:5301   .debug_str:00000000000000ef .LASF28
     /tmp/cciIGWXT.s:5375   .debug_str:0000000000000315 .LASF44
     /tmp/cciIGWXT.s:5441   .debug_str:00000000000005b5 .LASF98
     /tmp/cciIGWXT.s:5331   .debug_str:00000000000001e7 .LASF29
     /tmp/cciIGWXT.s:5339   .debug_str:000000000000022b .LASF31
     /tmp/cciIGWXT.s:5327   .debug_str:00000000000001b7 .LASF30
     /tmp/cciIGWXT.s:5461   .debug_str:0000000000000631 .LASF32
     /tmp/cciIGWXT.s:5451   .debug_str:00000000000005f0 .LASF33
GAS LISTING /tmp/cciIGWXT.s 			page 49


     /tmp/cciIGWXT.s:5469   .debug_str:0000000000000679 .LASF34
     /tmp/cciIGWXT.s:5275   .debug_str:0000000000000028 .LASF35
     /tmp/cciIGWXT.s:5285   .debug_str:0000000000000083 .LASF36
     /tmp/cciIGWXT.s:5319   .debug_str:0000000000000171 .LASF38
     /tmp/cciIGWXT.s:5453   .debug_str:00000000000005f8 .LASF40
     /tmp/cciIGWXT.s:5379   .debug_str:0000000000000337 .LASF42
     /tmp/cciIGWXT.s:5299   .debug_str:00000000000000e6 .LASF43
     /tmp/cciIGWXT.s:5307   .debug_str:000000000000010d .LASF45
     /tmp/cciIGWXT.s:5407   .debug_str:0000000000000409 .LASF46
     /tmp/cciIGWXT.s:5363   .debug_str:00000000000002b8 .LASF47
     /tmp/cciIGWXT.s:5413   .debug_str:0000000000000428 .LASF48
     /tmp/cciIGWXT.s:5273   .debug_str:000000000000001c .LASF49
     /tmp/cciIGWXT.s:5467   .debug_str:000000000000065d .LASF50
     /tmp/cciIGWXT.s:5385   .debug_str:0000000000000369 .LASF51
     /tmp/cciIGWXT.s:5471   .debug_str:000000000000068b .LASF52
     /tmp/cciIGWXT.s:5297   .debug_str:00000000000000dd .LASF53
     /tmp/cciIGWXT.s:5433   .debug_str:00000000000004bb .LASF54
     /tmp/cciIGWXT.s:5405   .debug_str:0000000000000401 .LASF55
     /tmp/cciIGWXT.s:5449   .debug_str:00000000000005de .LASF56
     /tmp/cciIGWXT.s:5337   .debug_str:0000000000000218 .LASF57
     /tmp/cciIGWXT.s:5271   .debug_str:0000000000000010 .LASF58
     /tmp/cciIGWXT.s:5403   .debug_str:00000000000003e5 .LASF59
     /tmp/cciIGWXT.s:5437   .debug_str:000000000000058f .LASF60
     /tmp/cciIGWXT.s:5365   .debug_str:00000000000002ca .LASF61
     /tmp/cciIGWXT.s:5295   .debug_str:00000000000000d4 .LASF62
     /tmp/cciIGWXT.s:5371   .debug_str:00000000000002f7 .LASF63
     /tmp/cciIGWXT.s:5415   .debug_str:000000000000043b .LASF64
     /tmp/cciIGWXT.s:5345   .debug_str:0000000000000253 .LASF65
     /tmp/cciIGWXT.s:5457   .debug_str:0000000000000615 .LASF66
     /tmp/cciIGWXT.s:119    .text._ZN7WorkerAD0Ev:0000000000000000 .LFB39
     /tmp/cciIGWXT.s:159    .text._ZN7WorkerAD0Ev:000000000000004c .LFE39
     /tmp/cciIGWXT.s:4617   .debug_loc:0000000000000000 .LLST2
     /tmp/cciIGWXT.s:135    .text._ZN7WorkerAD0Ev:0000000000000018 .LBB29
     /tmp/cciIGWXT.s:143    .text._ZN7WorkerAD0Ev:000000000000002c .LBE29
     /tmp/cciIGWXT.s:4635   .debug_loc:000000000000004c .LLST3
     /tmp/cciIGWXT.s:141    .text._ZN7WorkerAD0Ev:000000000000002c .LVL11
     /tmp/cciIGWXT.s:146    .text._ZN7WorkerAD0Ev:0000000000000038 .LVL12
     /tmp/cciIGWXT.s:5417   .debug_str:0000000000000440 .LASF67
     /tmp/cciIGWXT.s:82     .text._ZN7WorkerAD2Ev:0000000000000000 .LFB37
     /tmp/cciIGWXT.s:110    .text._ZN7WorkerAD2Ev:0000000000000034 .LFE37
     /tmp/cciIGWXT.s:4646   .debug_loc:0000000000000082 .LLST1
     /tmp/cciIGWXT.s:99     .text._ZN7WorkerAD2Ev:0000000000000024 .LVL8
     /tmp/cciIGWXT.s:5321   .debug_str:000000000000018d .LASF68
     /tmp/cciIGWXT.s:203    .text._ZN7WorkerBD0Ev:0000000000000000 .LFB35
     /tmp/cciIGWXT.s:243    .text._ZN7WorkerBD0Ev:000000000000004c .LFE35
     /tmp/cciIGWXT.s:4660   .debug_loc:00000000000000bb .LLST5
     /tmp/cciIGWXT.s:219    .text._ZN7WorkerBD0Ev:0000000000000018 .LBB32
     /tmp/cciIGWXT.s:227    .text._ZN7WorkerBD0Ev:000000000000002c .LBE32
     /tmp/cciIGWXT.s:4678   .debug_loc:0000000000000107 .LLST6
     /tmp/cciIGWXT.s:225    .text._ZN7WorkerBD0Ev:000000000000002c .LVL18
     /tmp/cciIGWXT.s:230    .text._ZN7WorkerBD0Ev:0000000000000038 .LVL19
     /tmp/cciIGWXT.s:5335   .debug_str:0000000000000208 .LASF69
     /tmp/cciIGWXT.s:166    .text._ZN7WorkerBD2Ev:0000000000000000 .LFB33
     /tmp/cciIGWXT.s:194    .text._ZN7WorkerBD2Ev:0000000000000034 .LFE33
     /tmp/cciIGWXT.s:4689   .debug_loc:000000000000013d .LLST4
     /tmp/cciIGWXT.s:183    .text._ZN7WorkerBD2Ev:0000000000000024 .LVL15
     /tmp/cciIGWXT.s:5359   .debug_str:000000000000029e .LASF70
GAS LISTING /tmp/cciIGWXT.s 			page 50


     /tmp/cciIGWXT.s:287    .text._ZN7WorkerCD0Ev:0000000000000000 .LFB31
     /tmp/cciIGWXT.s:327    .text._ZN7WorkerCD0Ev:000000000000004c .LFE31
     /tmp/cciIGWXT.s:4703   .debug_loc:0000000000000176 .LLST8
     /tmp/cciIGWXT.s:303    .text._ZN7WorkerCD0Ev:0000000000000018 .LBB35
     /tmp/cciIGWXT.s:311    .text._ZN7WorkerCD0Ev:000000000000002c .LBE35
     /tmp/cciIGWXT.s:4721   .debug_loc:00000000000001c2 .LLST9
     /tmp/cciIGWXT.s:309    .text._ZN7WorkerCD0Ev:000000000000002c .LVL25
     /tmp/cciIGWXT.s:314    .text._ZN7WorkerCD0Ev:0000000000000038 .LVL26
     /tmp/cciIGWXT.s:5355   .debug_str:0000000000000282 .LASF71
     /tmp/cciIGWXT.s:250    .text._ZN7WorkerCD2Ev:0000000000000000 .LFB29
     /tmp/cciIGWXT.s:278    .text._ZN7WorkerCD2Ev:0000000000000034 .LFE29
     /tmp/cciIGWXT.s:4732   .debug_loc:00000000000001f8 .LLST7
     /tmp/cciIGWXT.s:267    .text._ZN7WorkerCD2Ev:0000000000000024 .LVL22
     /tmp/cciIGWXT.s:5465   .debug_str:000000000000064d .LASF72
     /tmp/cciIGWXT.s:371    .text._ZN7WorkerDD0Ev:0000000000000000 .LFB27
     /tmp/cciIGWXT.s:411    .text._ZN7WorkerDD0Ev:000000000000004c .LFE27
     /tmp/cciIGWXT.s:4746   .debug_loc:0000000000000231 .LLST11
     /tmp/cciIGWXT.s:387    .text._ZN7WorkerDD0Ev:0000000000000018 .LBB38
     /tmp/cciIGWXT.s:395    .text._ZN7WorkerDD0Ev:000000000000002c .LBE38
     /tmp/cciIGWXT.s:4764   .debug_loc:000000000000027d .LLST12
     /tmp/cciIGWXT.s:393    .text._ZN7WorkerDD0Ev:000000000000002c .LVL32
     /tmp/cciIGWXT.s:398    .text._ZN7WorkerDD0Ev:0000000000000038 .LVL33
     /tmp/cciIGWXT.s:5423   .debug_str:0000000000000472 .LASF73
     /tmp/cciIGWXT.s:334    .text._ZN7WorkerDD2Ev:0000000000000000 .LFB25
     /tmp/cciIGWXT.s:362    .text._ZN7WorkerDD2Ev:0000000000000034 .LFE25
     /tmp/cciIGWXT.s:4775   .debug_loc:00000000000002b3 .LLST10
     /tmp/cciIGWXT.s:351    .text._ZN7WorkerDD2Ev:0000000000000024 .LVL29
     /tmp/cciIGWXT.s:5369   .debug_str:00000000000002e2 .LASF99
     /tmp/cciIGWXT.s:5329   .debug_str:00000000000001cd .LASF100
     /tmp/cciIGWXT.s:1494   .text:0000000000000720 .LFE23
     /tmp/cciIGWXT.s:5447   .debug_str:00000000000005d6 .LASF74
     /tmp/cciIGWXT.s:1347   .text:00000000000005d4 .LBB64
     /tmp/cciIGWXT.s:1370   .text:0000000000000600 .LBE64
     /tmp/cciIGWXT.s:4789   .debug_loc:00000000000002ec .LLST40
     /tmp/cciIGWXT.s:1363   .text:00000000000005f8 .LVL149
     /tmp/cciIGWXT.s:1406   .text:000000000000065c .LBB65
     /tmp/cciIGWXT.s:1433   .text:0000000000000688 .LBE65
     /tmp/cciIGWXT.s:5389   .debug_str:0000000000000385 .LASF75
     /tmp/cciIGWXT.s:4800   .debug_loc:0000000000000322 .LLST41
     /tmp/cciIGWXT.s:5459   .debug_str:0000000000000625 .LASF76
     /tmp/cciIGWXT.s:5421   .debug_str:0000000000000466 .LASF101
     /tmp/cciIGWXT.s:4807   .debug_loc:0000000000000345 .LLST42
     /tmp/cciIGWXT.s:5361   .debug_str:00000000000002ae .LASF77
     /tmp/cciIGWXT.s:1244   .text:0000000000000504 .LBB56
     /tmp/cciIGWXT.s:1254   .text:0000000000000518 .LBE56
     /tmp/cciIGWXT.s:4814   .debug_loc:0000000000000368 .LLST36
     /tmp/cciIGWXT.s:1248   .text:000000000000050c .LVL130
     /tmp/cciIGWXT.s:1272   .text:000000000000053c .LBB58
     /tmp/cciIGWXT.s:1282   .text:0000000000000550 .LBE58
     /tmp/cciIGWXT.s:4825   .debug_loc:000000000000039e .LLST37
     /tmp/cciIGWXT.s:1276   .text:0000000000000544 .LVL135
     /tmp/cciIGWXT.s:1300   .text:0000000000000574 .LBB60
     /tmp/cciIGWXT.s:1310   .text:0000000000000588 .LBE60
     /tmp/cciIGWXT.s:4836   .debug_loc:00000000000003d4 .LLST38
     /tmp/cciIGWXT.s:1304   .text:000000000000057c .LVL140
     /tmp/cciIGWXT.s:1328   .text:00000000000005ac .LBB62
     /tmp/cciIGWXT.s:1338   .text:00000000000005c0 .LBE62
GAS LISTING /tmp/cciIGWXT.s 			page 51


     /tmp/cciIGWXT.s:4847   .debug_loc:000000000000040a .LLST39
     /tmp/cciIGWXT.s:1332   .text:00000000000005b4 .LVL145
     /tmp/cciIGWXT.s:1239   .text:0000000000000500 .LVL128
     /tmp/cciIGWXT.s:1262   .text:000000000000052c .LVL132
     /tmp/cciIGWXT.s:1267   .text:0000000000000538 .LVL133
     /tmp/cciIGWXT.s:1290   .text:0000000000000564 .LVL137
     /tmp/cciIGWXT.s:1295   .text:0000000000000570 .LVL138
     /tmp/cciIGWXT.s:1318   .text:000000000000059c .LVL142
     /tmp/cciIGWXT.s:1323   .text:00000000000005a8 .LVL143
     /tmp/cciIGWXT.s:1346   .text:00000000000005d4 .LVL147
     /tmp/cciIGWXT.s:1375   .text:0000000000000610 .LVL152
     /tmp/cciIGWXT.s:1381   .text:000000000000061c .LVL153
     /tmp/cciIGWXT.s:1405   .text:000000000000065c .LVL154
     /tmp/cciIGWXT.s:1438   .text:0000000000000698 .LVL160
     /tmp/cciIGWXT.s:1461   .text:00000000000006c0 .LVL163
     /tmp/cciIGWXT.s:1464   .text:00000000000006cc .LVL164
     /tmp/cciIGWXT.s:1470   .text:00000000000006dc .LVL165
     /tmp/cciIGWXT.s:1473   .text:00000000000006e8 .LVL166
     /tmp/cciIGWXT.s:1479   .text:00000000000006f8 .LVL167
     /tmp/cciIGWXT.s:1482   .text:0000000000000704 .LVL168
     /tmp/cciIGWXT.s:1488   .text:0000000000000714 .LVL169
     /tmp/cciIGWXT.s:1491   .text:0000000000000720 .LVL170
     /tmp/cciIGWXT.s:1004   .text:0000000000000394 .LFB22
     /tmp/cciIGWXT.s:1153   .text:00000000000004dc .LFE22
     /tmp/cciIGWXT.s:4858   .debug_loc:0000000000000440 .LLST31
     /tmp/cciIGWXT.s:4872   .debug_loc:0000000000000479 .LLST32
     /tmp/cciIGWXT.s:4886   .debug_loc:00000000000004b2 .LLST33
     /tmp/cciIGWXT.s:5427   .debug_str:0000000000000494 .LASF78
     /tmp/cciIGWXT.s:4906   .debug_loc:000000000000050f .LLST34
     /tmp/cciIGWXT.s:1031   .text:00000000000003c4 .LVL104
     /tmp/cciIGWXT.s:1038   .text:00000000000003d8 .LVL105
     /tmp/cciIGWXT.s:1043   .text:00000000000003e8 .LVL106
     /tmp/cciIGWXT.s:1058   .text:0000000000000408 .LVL109
     /tmp/cciIGWXT.s:1069   .text:0000000000000414 .LVL110
     /tmp/cciIGWXT.s:1074   .text:0000000000000420 .LVL111
     /tmp/cciIGWXT.s:1082   .text:0000000000000434 .LVL114
     /tmp/cciIGWXT.s:1089   .text:0000000000000448 .LVL115
     /tmp/cciIGWXT.s:1094   .text:0000000000000458 .LVL116
     /tmp/cciIGWXT.s:1101   .text:000000000000046c .LVL117
     /tmp/cciIGWXT.s:1108   .text:0000000000000480 .LVL118
     /tmp/cciIGWXT.s:1113   .text:0000000000000490 .LVL119
     /tmp/cciIGWXT.s:1128   .text:00000000000004b0 .LVL122
     /tmp/cciIGWXT.s:1136   .text:00000000000004c4 .LVL123
     /tmp/cciIGWXT.s:775    .text:0000000000000214 .LFB21
     /tmp/cciIGWXT.s:950    .text:0000000000000394 .LFE21
     /tmp/cciIGWXT.s:4917   .debug_loc:0000000000000545 .LLST25
     /tmp/cciIGWXT.s:4931   .debug_loc:000000000000057e .LLST26
     /tmp/cciIGWXT.s:4945   .debug_loc:00000000000005b7 .LLST27
     /tmp/cciIGWXT.s:4965   .debug_loc:0000000000000614 .LLST28
     /tmp/cciIGWXT.s:4973   .debug_loc:0000000000000638 .LLST29
     /tmp/cciIGWXT.s:802    .text:0000000000000244 .LVL73
     /tmp/cciIGWXT.s:809    .text:0000000000000258 .LVL74
     /tmp/cciIGWXT.s:814    .text:0000000000000268 .LVL75
     /tmp/cciIGWXT.s:829    .text:0000000000000288 .LVL78
     /tmp/cciIGWXT.s:840    .text:0000000000000294 .LVL79
     /tmp/cciIGWXT.s:854    .text:00000000000002a8 .LVL81
     /tmp/cciIGWXT.s:861    .text:00000000000002bc .LVL82
GAS LISTING /tmp/cciIGWXT.s 			page 52


     /tmp/cciIGWXT.s:866    .text:00000000000002cc .LVL83
     /tmp/cciIGWXT.s:871    .text:00000000000002d8 .LVL84
     /tmp/cciIGWXT.s:879    .text:00000000000002ec .LVL87
     /tmp/cciIGWXT.s:886    .text:0000000000000300 .LVL88
     /tmp/cciIGWXT.s:891    .text:0000000000000310 .LVL89
     /tmp/cciIGWXT.s:898    .text:0000000000000324 .LVL90
     /tmp/cciIGWXT.s:905    .text:0000000000000338 .LVL91
     /tmp/cciIGWXT.s:910    .text:0000000000000348 .LVL92
     /tmp/cciIGWXT.s:925    .text:0000000000000368 .LVL95
     /tmp/cciIGWXT.s:933    .text:000000000000037c .LVL96
     /tmp/cciIGWXT.s:595    .text:0000000000000140 .LFB20
     /tmp/cciIGWXT.s:718    .text:0000000000000214 .LFE20
     /tmp/cciIGWXT.s:4984   .debug_loc:000000000000066e .LLST19
     /tmp/cciIGWXT.s:4998   .debug_loc:00000000000006a7 .LLST20
     /tmp/cciIGWXT.s:613    .text:0000000000000158 .LBB48
     /tmp/cciIGWXT.s:689    .text:00000000000001d8 .LBE48
     /tmp/cciIGWXT.s:5012   .debug_loc:00000000000006e0 .LLST21
     /tmp/cciIGWXT.s:5024   .debug_loc:0000000000000717 .LLST22
     /tmp/cciIGWXT.s:636    .text:0000000000000178 .LBB52
     /tmp/cciIGWXT.s:651    .text:0000000000000190 .LBE52
     /tmp/cciIGWXT.s:5036   .debug_loc:000000000000074e .LLST23
     /tmp/cciIGWXT.s:625    .text:0000000000000168 .LVL55
     /tmp/cciIGWXT.s:667    .text:00000000000001ac .LVL61
     /tmp/cciIGWXT.s:674    .text:00000000000001c0 .LVL62
     /tmp/cciIGWXT.s:679    .text:00000000000001d0 .LVL63
     /tmp/cciIGWXT.s:694    .text:00000000000001e8 .LVL65
     /tmp/cciIGWXT.s:702    .text:00000000000001fc .LVL66
     /tmp/cciIGWXT.s:428    .text:0000000000000074 .LFB19
     /tmp/cciIGWXT.s:547    .text:0000000000000140 .LFE19
     /tmp/cciIGWXT.s:5047   .debug_loc:0000000000000784 .LLST13
     /tmp/cciIGWXT.s:5061   .debug_loc:00000000000007bd .LLST14
     /tmp/cciIGWXT.s:446    .text:000000000000008c .LBB40
     /tmp/cciIGWXT.s:522    .text:000000000000010c .LBE40
     /tmp/cciIGWXT.s:5075   .debug_loc:00000000000007f6 .LLST15
     /tmp/cciIGWXT.s:5087   .debug_loc:000000000000082d .LLST16
     /tmp/cciIGWXT.s:469    .text:00000000000000ac .LBB44
     /tmp/cciIGWXT.s:484    .text:00000000000000c4 .LBE44
     /tmp/cciIGWXT.s:5099   .debug_loc:0000000000000864 .LLST17
     /tmp/cciIGWXT.s:458    .text:000000000000009c .LVL38
     /tmp/cciIGWXT.s:500    .text:00000000000000e0 .LVL44
     /tmp/cciIGWXT.s:507    .text:00000000000000f4 .LVL45
     /tmp/cciIGWXT.s:512    .text:0000000000000104 .LVL46
     /tmp/cciIGWXT.s:527    .text:000000000000011c .LVL48
     /tmp/cciIGWXT.s:1160   .text._ZN7WorkerD3runEv:0000000000000000 .LFB18
     /tmp/cciIGWXT.s:1187   .text._ZN7WorkerD3runEv:000000000000002c .LFE18
     /tmp/cciIGWXT.s:5110   .debug_loc:000000000000089a .LLST35
     /tmp/cciIGWXT.s:1176   .text._ZN7WorkerD3runEv:000000000000001c .LVL127
     /tmp/cciIGWXT.s:5401   .debug_str:00000000000003d5 .LASF79
     /tmp/cciIGWXT.s:957    .text._ZN7WorkerC3runEv:0000000000000000 .LFB14
     /tmp/cciIGWXT.s:984    .text._ZN7WorkerC3runEv:000000000000002c .LFE14
     /tmp/cciIGWXT.s:5124   .debug_loc:00000000000008d3 .LLST30
     /tmp/cciIGWXT.s:973    .text._ZN7WorkerC3runEv:000000000000001c .LVL100
     /tmp/cciIGWXT.s:5287   .debug_str:000000000000008f .LASF80
     /tmp/cciIGWXT.s:725    .text._ZN7WorkerB3runEv:0000000000000000 .LFB10
     /tmp/cciIGWXT.s:752    .text._ZN7WorkerB3runEv:000000000000002c .LFE10
     /tmp/cciIGWXT.s:5138   .debug_loc:000000000000090c .LLST24
     /tmp/cciIGWXT.s:741    .text._ZN7WorkerB3runEv:000000000000001c .LVL69
GAS LISTING /tmp/cciIGWXT.s 			page 53


     /tmp/cciIGWXT.s:5431   .debug_str:00000000000004ab .LASF81
     /tmp/cciIGWXT.s:554    .text._ZN7WorkerA3runEv:0000000000000000 .LFB6
     /tmp/cciIGWXT.s:581    .text._ZN7WorkerA3runEv:000000000000002c .LFE6
     /tmp/cciIGWXT.s:5152   .debug_loc:0000000000000945 .LLST18
     /tmp/cciIGWXT.s:570    .text._ZN7WorkerA3runEv:000000000000001c .LVL51
     /tmp/cciIGWXT.s:5269   .debug_str:0000000000000000 .LASF82
     /tmp/cciIGWXT.s:5445   .debug_str:00000000000005cc .LASF102
     /tmp/cciIGWXT.s:9      .text:0000000000000000 .LFB2
     /tmp/cciIGWXT.s:75     .text:0000000000000074 .LFE2
     /tmp/cciIGWXT.s:5166   .debug_loc:000000000000097e .LLST0
     /tmp/cciIGWXT.s:42     .text:000000000000003c .LVL2
     /tmp/cciIGWXT.s:47     .text:000000000000004c .LVL3
     /tmp/cciIGWXT.s:72     .text:0000000000000070 .LVL6
     /tmp/cciIGWXT.s:5473   .debug_str:000000000000069d .LASF83
     /tmp/cciIGWXT.s:5429   .debug_str:000000000000049b .LASF85
     /tmp/cciIGWXT.s:5367   .debug_str:00000000000002dc .LASF84
     /tmp/cciIGWXT.s:5455   .debug_str:0000000000000608 .LASF86
     /tmp/cciIGWXT.s:5463   .debug_str:000000000000063a .LASF87
     /tmp/cciIGWXT.s:5357   .debug_str:0000000000000292 .LASF88
     /tmp/cciIGWXT.s:5341   .debug_str:0000000000000231 .LASF89
     /tmp/cciIGWXT.s:5311   .debug_str:000000000000012d .LASF90
     /tmp/cciIGWXT.s:5393   .debug_str:000000000000039f .LASF91
     /tmp/cciIGWXT.s:5303   .debug_str:00000000000000f8 .LASF92
     /tmp/cciIGWXT.s:5325   .debug_str:00000000000001a2 .LASF93
     /tmp/cciIGWXT.s:5309   .debug_str:000000000000011d .LASF94
     /tmp/cciIGWXT.s:122    .text._ZN7WorkerAD0Ev:0000000000000000 .LVL9
     /tmp/cciIGWXT.s:154    .text._ZN7WorkerAD0Ev:0000000000000044 .LVL13
     /tmp/cciIGWXT.s:134    .text._ZN7WorkerAD0Ev:0000000000000018 .LVL10
     /tmp/cciIGWXT.s:85     .text._ZN7WorkerAD2Ev:0000000000000000 .LVL7
     /tmp/cciIGWXT.s:206    .text._ZN7WorkerBD0Ev:0000000000000000 .LVL16
     /tmp/cciIGWXT.s:238    .text._ZN7WorkerBD0Ev:0000000000000044 .LVL20
     /tmp/cciIGWXT.s:218    .text._ZN7WorkerBD0Ev:0000000000000018 .LVL17
     /tmp/cciIGWXT.s:169    .text._ZN7WorkerBD2Ev:0000000000000000 .LVL14
     /tmp/cciIGWXT.s:290    .text._ZN7WorkerCD0Ev:0000000000000000 .LVL23
     /tmp/cciIGWXT.s:322    .text._ZN7WorkerCD0Ev:0000000000000044 .LVL27
     /tmp/cciIGWXT.s:302    .text._ZN7WorkerCD0Ev:0000000000000018 .LVL24
     /tmp/cciIGWXT.s:253    .text._ZN7WorkerCD2Ev:0000000000000000 .LVL21
     /tmp/cciIGWXT.s:374    .text._ZN7WorkerDD0Ev:0000000000000000 .LVL30
     /tmp/cciIGWXT.s:406    .text._ZN7WorkerDD0Ev:0000000000000044 .LVL34
     /tmp/cciIGWXT.s:386    .text._ZN7WorkerDD0Ev:0000000000000018 .LVL31
     /tmp/cciIGWXT.s:337    .text._ZN7WorkerDD2Ev:0000000000000000 .LVL28
     /tmp/cciIGWXT.s:1351   .text:00000000000005d8 .LVL148
     /tmp/cciIGWXT.s:1366   .text:00000000000005fc .LVL150
     /tmp/cciIGWXT.s:1368   .text:0000000000000600 .LVL151
     /tmp/cciIGWXT.s:1409   .text:0000000000000660 .LVL155
     /tmp/cciIGWXT.s:1422   .text:0000000000000674 .LVL158
     /tmp/cciIGWXT.s:1430   .text:0000000000000684 .LVL159
     /tmp/cciIGWXT.s:1411   .text:0000000000000664 .LVL156
     /tmp/cciIGWXT.s:1448   .text:00000000000006a4 .LVL161
     /tmp/cciIGWXT.s:1242   .text:0000000000000504 .LVL129
     /tmp/cciIGWXT.s:1252   .text:0000000000000518 .LVL131
     /tmp/cciIGWXT.s:1454   .text:00000000000006b0 .LVL162
     /tmp/cciIGWXT.s:1270   .text:000000000000053c .LVL134
     /tmp/cciIGWXT.s:1280   .text:0000000000000550 .LVL136
     /tmp/cciIGWXT.s:1298   .text:0000000000000574 .LVL139
     /tmp/cciIGWXT.s:1308   .text:0000000000000588 .LVL141
     /tmp/cciIGWXT.s:1326   .text:00000000000005ac .LVL144
GAS LISTING /tmp/cciIGWXT.s 			page 54


     /tmp/cciIGWXT.s:1336   .text:00000000000005c0 .LVL146
     /tmp/cciIGWXT.s:1007   .text:0000000000000394 .LVL101
     /tmp/cciIGWXT.s:1025   .text:00000000000003b4 .LVL103
     /tmp/cciIGWXT.s:1021   .text:00000000000003ac .LVL102
     /tmp/cciIGWXT.s:1046   .text:00000000000003ec .LVL107
     /tmp/cciIGWXT.s:1048   .text:00000000000003f0 .LVL108
     /tmp/cciIGWXT.s:1116   .text:0000000000000494 .LVL120
     /tmp/cciIGWXT.s:1118   .text:0000000000000498 .LVL121
     /tmp/cciIGWXT.s:1145   .text:00000000000004d0 .LVL124
     /tmp/cciIGWXT.s:1076   .text:0000000000000424 .LVL112
     /tmp/cciIGWXT.s:1080   .text:000000000000042c .LVL113
     /tmp/cciIGWXT.s:1148   .text:00000000000004d4 .LVL125
     /tmp/cciIGWXT.s:778    .text:0000000000000214 .LVL70
     /tmp/cciIGWXT.s:796    .text:0000000000000234 .LVL72
     /tmp/cciIGWXT.s:792    .text:000000000000022c .LVL71
     /tmp/cciIGWXT.s:817    .text:000000000000026c .LVL76
     /tmp/cciIGWXT.s:819    .text:0000000000000270 .LVL77
     /tmp/cciIGWXT.s:913    .text:000000000000034c .LVL93
     /tmp/cciIGWXT.s:915    .text:0000000000000350 .LVL94
     /tmp/cciIGWXT.s:942    .text:0000000000000388 .LVL97
     /tmp/cciIGWXT.s:848    .text:0000000000000298 .LVL80
     /tmp/cciIGWXT.s:873    .text:00000000000002dc .LVL85
     /tmp/cciIGWXT.s:877    .text:00000000000002e4 .LVL86
     /tmp/cciIGWXT.s:945    .text:000000000000038c .LVL98
     /tmp/cciIGWXT.s:598    .text:0000000000000140 .LVL52
     /tmp/cciIGWXT.s:617    .text:0000000000000160 .LVL54
     /tmp/cciIGWXT.s:612    .text:0000000000000158 .LVL53
     /tmp/cciIGWXT.s:713    .text:000000000000020c .LVL67
     /tmp/cciIGWXT.s:657    .text:0000000000000194 .LVL60
     /tmp/cciIGWXT.s:685    .text:00000000000001d8 .LVL64
     /tmp/cciIGWXT.s:640    .text:000000000000017c .LVL57
     /tmp/cciIGWXT.s:649    .text:0000000000000190 .LVL59
     /tmp/cciIGWXT.s:431    .text:0000000000000074 .LVL35
     /tmp/cciIGWXT.s:450    .text:0000000000000094 .LVL37
     /tmp/cciIGWXT.s:445    .text:000000000000008c .LVL36
     /tmp/cciIGWXT.s:542    .text:0000000000000138 .LVL49
     /tmp/cciIGWXT.s:490    .text:00000000000000c8 .LVL43
     /tmp/cciIGWXT.s:518    .text:000000000000010c .LVL47
     /tmp/cciIGWXT.s:473    .text:00000000000000b0 .LVL40
     /tmp/cciIGWXT.s:482    .text:00000000000000c4 .LVL42
     /tmp/cciIGWXT.s:1163   .text._ZN7WorkerD3runEv:0000000000000000 .LVL126
     /tmp/cciIGWXT.s:960    .text._ZN7WorkerC3runEv:0000000000000000 .LVL99
     /tmp/cciIGWXT.s:728    .text._ZN7WorkerB3runEv:0000000000000000 .LVL68
     /tmp/cciIGWXT.s:557    .text._ZN7WorkerA3runEv:0000000000000000 .LVL50
     /tmp/cciIGWXT.s:13     .text:0000000000000000 .LVL0
     /tmp/cciIGWXT.s:36     .text:0000000000000030 .LVL1
     /tmp/cciIGWXT.s:60     .text:000000000000005c .LVL4
     /tmp/cciIGWXT.s:66     .text:0000000000000068 .LVL5
     /tmp/cciIGWXT.s:1609   .debug_info:0000000000000000 .Ldebug_info0
     /tmp/cciIGWXT.s:5      .text:0000000000000000 .Ltext0
     /tmp/cciIGWXT.s:1603   .text:0000000000000720 .Letext0
     /tmp/cciIGWXT.s:453    .text:0000000000000094 .LBB42
     /tmp/cciIGWXT.s:486    .text:00000000000000c4 .LBE42
     /tmp/cciIGWXT.s:514    .text:0000000000000104 .LBB46
     /tmp/cciIGWXT.s:520    .text:000000000000010c .LBE46
     /tmp/cciIGWXT.s:620    .text:0000000000000160 .LBB50
     /tmp/cciIGWXT.s:653    .text:0000000000000190 .LBE50
GAS LISTING /tmp/cciIGWXT.s 			page 55


     /tmp/cciIGWXT.s:681    .text:00000000000001d0 .LBB54
     /tmp/cciIGWXT.s:687    .text:00000000000001d8 .LBE54
     /tmp/cciIGWXT.s:1497   .gcc_except_table:0000000000000000 .LLSDA23
                           .group:0000000000000000 _ZN7WorkerAD5Ev
                           .group:0000000000000000 _ZN7WorkerBD5Ev
                           .group:0000000000000000 _ZN7WorkerCD5Ev
                           .group:0000000000000000 _ZN7WorkerDD5Ev

UNDEFINED SYMBOLS
_Z15thread_dispatchv
_ZN6ThreadD2Ev
_ZdlPv
_Z11printStringPKc
_Z8printIntiii
_Znwm
_ZN6ThreadC2Ev
_ZN6Thread5startEv
_ZN6Thread8dispatchEv
_Unwind_Resume
__gxx_personality_v0
