GAS LISTING /tmp/ccN2Sb8W.s 			page 1


   1              		.file	"Threads_C_API_test.cpp"
   2              		.option pic
   3              		.option norelax
   4              		.text
   5              	.Ltext0:
   6              		.align	2
   8              	_ZL9fibonaccim:
   9              	.LFB19:
  10              		.file 1 "test/Threads_C_API_test.cpp"
   1:test/Threads_C_API_test.cpp **** 
   2:test/Threads_C_API_test.cpp **** #include "../h/syscall_c.h"
   3:test/Threads_C_API_test.cpp **** #include "../test/Threads_C_API_test.hpp"
   4:test/Threads_C_API_test.cpp **** #include "../h/ccb.hpp"
   5:test/Threads_C_API_test.cpp **** #include "../h/printing.hpp"
   6:test/Threads_C_API_test.cpp **** 
   7:test/Threads_C_API_test.cpp **** static volatile bool finishedA = false;
   8:test/Threads_C_API_test.cpp **** static volatile bool finishedB = false;
   9:test/Threads_C_API_test.cpp **** static volatile bool finishedC = false;
  10:test/Threads_C_API_test.cpp **** static volatile bool finishedD = false;
  11:test/Threads_C_API_test.cpp **** 
  12:test/Threads_C_API_test.cpp **** static uint64 fibonacci(uint64 n) {
  11              		.loc 1 12 35
  12              		.cfi_startproc
  13              	.LVL0:
  14 0000 130101FE 		addi	sp,sp,-32
  15              		.cfi_def_cfa_offset 32
  16 0004 233C1100 		sd	ra,24(sp)
  17 0008 23388100 		sd	s0,16(sp)
  18 000c 23349100 		sd	s1,8(sp)
  19 0010 23302101 		sd	s2,0(sp)
  20              		.cfi_offset 1, -8
  21              		.cfi_offset 8, -16
  22              		.cfi_offset 9, -24
  23              		.cfi_offset 18, -32
  24 0014 13040102 		addi	s0,sp,32
  25              		.cfi_def_cfa 8, 0
  26 0018 93040500 		mv	s1,a0
  13:test/Threads_C_API_test.cpp ****     if (n == 0 || n == 1) { return n; }
  27              		.loc 1 13 5
  28 001c 93071000 		li	a5,1
  29 0020 63F8A702 		bleu	a0,a5,.L1
  14:test/Threads_C_API_test.cpp **** 
  15:test/Threads_C_API_test.cpp ****     if (n % 10 == 0) { thread_dispatch(); }
  30              		.loc 1 15 5
  31              		.loc 1 15 11 is_stmt 0
  32 0024 9307A000 		li	a5,10
  33 0028 B377F502 		remu	a5,a0,a5
  34              		.loc 1 15 5
  35 002c 638E0702 		beqz	a5,.L6
  36              	.LVL1:
  37              	.L3:
  16:test/Threads_C_API_test.cpp **** 
  17:test/Threads_C_API_test.cpp ****     return fibonacci(n - 1) + fibonacci(n - 2);
  38              		.loc 1 17 5 is_stmt 1
  39              		.loc 1 17 21 is_stmt 0
  40 0030 1385F4FF 		addi	a0,s1,-1
  41 0034 97000000 		call	_ZL9fibonaccim
GAS LISTING /tmp/ccN2Sb8W.s 			page 2


  41      E7800000 
  42              	.LVL2:
  43 003c 13090500 		mv	s2,a0
  44              		.loc 1 17 40
  45 0040 1385E4FF 		addi	a0,s1,-2
  46 0044 97000000 		call	_ZL9fibonaccim
  46      E7800000 
  47              	.LVL3:
  48              		.loc 1 17 46
  49 004c 3305A900 		add	a0,s2,a0
  50              	.L1:
  18:test/Threads_C_API_test.cpp **** }
  51              		.loc 1 18 1
  52 0050 83308101 		ld	ra,24(sp)
  53              		.cfi_remember_state
  54              		.cfi_restore 1
  55 0054 03340101 		ld	s0,16(sp)
  56              		.cfi_restore 8
  57              		.cfi_def_cfa 2, 32
  58 0058 83348100 		ld	s1,8(sp)
  59              		.cfi_restore 9
  60              	.LVL4:
  61 005c 03390100 		ld	s2,0(sp)
  62              		.cfi_restore 18
  63 0060 13010102 		addi	sp,sp,32
  64              		.cfi_def_cfa_offset 0
  65 0064 67800000 		jr	ra
  66              	.LVL5:
  67              	.L6:
  68              		.cfi_restore_state
  15:test/Threads_C_API_test.cpp **** 
  69              		.loc 1 15 24 is_stmt 1 discriminator 1
  15:test/Threads_C_API_test.cpp **** 
  70              		.loc 1 15 39 is_stmt 0 discriminator 1
  71 0068 97000000 		call	_Z15thread_dispatchv@plt
  71      E7800000 
  72              	.LVL6:
  73 0070 6FF01FFC 		j	.L3
  74              		.cfi_endproc
  75              	.LFE19:
  77              		.section	.rodata.str1.8,"aMS",@progbits,1
  78              		.align	3
  79              	.LC0:
  80 0000 4E495420 		.string	"NIT D "
  80      442000
  81 0007 00       		.align	3
  82              	.LC1:
  83 0008 0A00     		.string	"\n"
  84 000a 00000000 		.align	3
  84      0000
  85              	.LC2:
  86 0010 443A2069 		.string	"D: i="
  86      3D00
  87 0016 0000     		.align	3
  88              	.LC3:
  89 0018 443A2064 		.string	"D: dispatch\n"
  89      69737061 
GAS LISTING /tmp/ccN2Sb8W.s 			page 3


  89      7463680A 
  89      00
  90 0025 000000   		.align	3
  91              	.LC4:
  92 0028 55204420 		.string	"U D SAM\n"
  92      53414D0A 
  92      00
  93 0031 00000000 		.align	3
  93      000000
  94              	.LC5:
  95 0038 55204420 		.string	"U D SAM 2\n"
  95      53414D20 
  95      320A00
  96 0043 00000000 		.align	3
  96      00
  97              	.LC6:
  98 0048 443A2066 		.string	"D: fibonaci="
  98      69626F6E 
  98      6163693D 
  98      00
  99 0055 000000   		.align	3
 100              	.LC7:
 101 0058 44206669 		.string	"D finished!\n"
 101      6E697368 
 101      6564210A 
 101      00
 102              		.text
 103              		.align	2
 105              	_ZL11workerBodyDPv:
 106              	.LFB23:
  19:test/Threads_C_API_test.cpp **** 
  20:test/Threads_C_API_test.cpp **** static void workerBodyA(void* arg) {
  21:test/Threads_C_API_test.cpp **** 
  22:test/Threads_C_API_test.cpp ****     printString("NIT A ");
  23:test/Threads_C_API_test.cpp ****     printInt(_thread :: running->retID());
  24:test/Threads_C_API_test.cpp ****     printString("\n");
  25:test/Threads_C_API_test.cpp ****     for (uint64 i = 0; i < 10; i++) {
  26:test/Threads_C_API_test.cpp ****         printString("A: i="); printInt(i); printString("\n");
  27:test/Threads_C_API_test.cpp ****         for (uint64 j = 0; j < 10000; j++) {
  28:test/Threads_C_API_test.cpp ****             for (uint64 k = 0; k < 30000; k++) { /* busy wait */ }
  29:test/Threads_C_API_test.cpp ****             //printString("U A SAM PRE DISP\n");
  30:test/Threads_C_API_test.cpp ****             thread_dispatch();
  31:test/Threads_C_API_test.cpp ****             //printString("U A SAM POSLE DISP\n");
  32:test/Threads_C_API_test.cpp ****         }
  33:test/Threads_C_API_test.cpp ****     }
  34:test/Threads_C_API_test.cpp ****     printString("A finished!\n");
  35:test/Threads_C_API_test.cpp ****     finishedA = true;
  36:test/Threads_C_API_test.cpp **** }
  37:test/Threads_C_API_test.cpp **** 
  38:test/Threads_C_API_test.cpp **** static void workerBodyB(void* arg) {
  39:test/Threads_C_API_test.cpp ****     printString("NIT B ");
  40:test/Threads_C_API_test.cpp ****     printInt(_thread :: running->retID());
  41:test/Threads_C_API_test.cpp ****     printString("\n");
  42:test/Threads_C_API_test.cpp ****     for (uint64 i = 0; i < 16; i++) {
  43:test/Threads_C_API_test.cpp ****         printString("B: i="); printInt(i); printString("\n");
  44:test/Threads_C_API_test.cpp ****         for (uint64 j = 0; j < 10000; j++) {
  45:test/Threads_C_API_test.cpp ****             for (uint64 k = 0; k < 30000; k++) { /* busy wait */ }
GAS LISTING /tmp/ccN2Sb8W.s 			page 4


  46:test/Threads_C_API_test.cpp ****             //printString("U B SAM PRE DISP\n");
  47:test/Threads_C_API_test.cpp ****             thread_dispatch();
  48:test/Threads_C_API_test.cpp ****             //printString("U B SAM POSLE DISP\n");
  49:test/Threads_C_API_test.cpp ****         }
  50:test/Threads_C_API_test.cpp ****     }
  51:test/Threads_C_API_test.cpp ****     printString("B finished!\n");
  52:test/Threads_C_API_test.cpp ****     finishedB = true;
  53:test/Threads_C_API_test.cpp ****     thread_dispatch();
  54:test/Threads_C_API_test.cpp **** }
  55:test/Threads_C_API_test.cpp **** 
  56:test/Threads_C_API_test.cpp **** static void workerBodyC(void* arg) {
  57:test/Threads_C_API_test.cpp ****     printString("NIT C ");
  58:test/Threads_C_API_test.cpp ****     printInt(_thread :: running->retID());
  59:test/Threads_C_API_test.cpp ****     printString("\n");
  60:test/Threads_C_API_test.cpp ****     uint8 i = 0;
  61:test/Threads_C_API_test.cpp ****     for (; i < 3; i++) {
  62:test/Threads_C_API_test.cpp ****         printString("C: i="); printInt(i); printString("\n");
  63:test/Threads_C_API_test.cpp ****     }
  64:test/Threads_C_API_test.cpp **** 
  65:test/Threads_C_API_test.cpp ****     printString("C: dispatch\n");
  66:test/Threads_C_API_test.cpp ****     __asm__ ("li t1, 7");
  67:test/Threads_C_API_test.cpp ****     thread_dispatch();
  68:test/Threads_C_API_test.cpp **** 
  69:test/Threads_C_API_test.cpp ****     uint64 t1 = 0;
  70:test/Threads_C_API_test.cpp ****     __asm__ ("mv %[t1], t1" : [t1] "=r"(t1));
  71:test/Threads_C_API_test.cpp **** 
  72:test/Threads_C_API_test.cpp ****     printString("C: t1="); printInt(t1); printString("\n");
  73:test/Threads_C_API_test.cpp **** 
  74:test/Threads_C_API_test.cpp ****     uint64 result = fibonacci(12);
  75:test/Threads_C_API_test.cpp ****     printString("C: fibonaci="); printInt(result); printString("\n");
  76:test/Threads_C_API_test.cpp **** 
  77:test/Threads_C_API_test.cpp ****     for (; i < 6; i++) {
  78:test/Threads_C_API_test.cpp ****         printString("C: i="); printInt(i); printString("\n");
  79:test/Threads_C_API_test.cpp ****     }
  80:test/Threads_C_API_test.cpp **** 
  81:test/Threads_C_API_test.cpp ****     printString("C finished!\n");
  82:test/Threads_C_API_test.cpp ****     finishedC = true;
  83:test/Threads_C_API_test.cpp ****     thread_dispatch();
  84:test/Threads_C_API_test.cpp ****     printString("C finished NUMERO DOS!\n");
  85:test/Threads_C_API_test.cpp **** }
  86:test/Threads_C_API_test.cpp **** 
  87:test/Threads_C_API_test.cpp **** static void workerBodyD(void* arg) {
 107              		.loc 1 87 36 is_stmt 1
 108              		.cfi_startproc
 109              	.LVL7:
 110 0074 130101FE 		addi	sp,sp,-32
 111              		.cfi_def_cfa_offset 32
 112 0078 233C1100 		sd	ra,24(sp)
 113 007c 23388100 		sd	s0,16(sp)
 114 0080 23349100 		sd	s1,8(sp)
 115 0084 23302101 		sd	s2,0(sp)
 116              		.cfi_offset 1, -8
 117              		.cfi_offset 8, -16
 118              		.cfi_offset 9, -24
 119              		.cfi_offset 18, -32
 120 0088 13040102 		addi	s0,sp,32
 121              		.cfi_def_cfa 8, 0
GAS LISTING /tmp/ccN2Sb8W.s 			page 5


  88:test/Threads_C_API_test.cpp ****     printString("NIT D ");
 122              		.loc 1 88 5
 123              		.loc 1 88 16 is_stmt 0
 124 008c 17050000 		lla	a0,.LC0
 124      13050500 
 125              	.LVL8:
 126 0094 97000000 		call	_Z11printStringPKc@plt
 126      E7800000 
 127              	.LVL9:
  89:test/Threads_C_API_test.cpp ****     printInt(_thread :: running->retID());
 128              		.loc 1 89 5 is_stmt 1
 129              		.loc 1 89 39 is_stmt 0
 130 009c 97070000 		la	a5,_ZN7_thread7runningE
 130      83B70700 
 131 00a4 83B70700 		ld	a5,0(a5)
 132              	.LVL10:
 133              	.LBB20:
 134              	.LBB21:
 135              		.file 2 "test/../h/ccb.hpp"
   1:test/../h/ccb.hpp **** //
   2:test/../h/ccb.hpp **** // Created by marko on 20.4.22..
   3:test/../h/ccb.hpp **** //
   4:test/../h/ccb.hpp **** 
   5:test/../h/ccb.hpp **** #ifndef OS1_VEZBE07_RISCV_CONTEXT_SWITCH_1_SYNCHRONOUS_CCB_HPP
   6:test/../h/ccb.hpp **** #define OS1_VEZBE07_RISCV_CONTEXT_SWITCH_1_SYNCHRONOUS_CCB_HPP
   7:test/../h/ccb.hpp **** 
   8:test/../h/ccb.hpp **** #include "../lib/hw.h"
   9:test/../h/ccb.hpp **** #include "scheduler.hpp"
  10:test/../h/ccb.hpp **** 
  11:test/../h/ccb.hpp **** //#include "../h/_sem.hpp"
  12:test/../h/ccb.hpp **** 
  13:test/../h/ccb.hpp **** // Coroutine Control Block
  14:test/../h/ccb.hpp **** class  _thread
  15:test/../h/ccb.hpp **** {
  16:test/../h/ccb.hpp **** public:
  17:test/../h/ccb.hpp **** 
  18:test/../h/ccb.hpp ****     //novo
  19:test/../h/ccb.hpp ****     static void join(thread_t* handle);
  20:test/../h/ccb.hpp ****     bool isblk(){return blk;}
  21:test/../h/ccb.hpp ****     void setblk(bool val){blk = val;}
  22:test/../h/ccb.hpp ****     uint64 retID(){return this->id;}
 136              		.loc 2 22 20 is_stmt 1
 137              	.LBE21:
 138              	.LBE20:
 139              		.loc 1 89 13 is_stmt 0
 140 00a8 13060000 		li	a2,0
 141 00ac 9305A000 		li	a1,10
 142 00b0 03A58701 		lw	a0,24(a5)
 143 00b4 97000000 		call	_Z8printIntiii@plt
 143      E7800000 
 144              	.LVL11:
  90:test/Threads_C_API_test.cpp ****     printString("\n");
 145              		.loc 1 90 5 is_stmt 1
 146              		.loc 1 90 16 is_stmt 0
 147 00bc 17050000 		lla	a0,.LC1
 147      13050500 
 148 00c4 97000000 		call	_Z11printStringPKc@plt
GAS LISTING /tmp/ccN2Sb8W.s 			page 6


 148      E7800000 
 149              	.LVL12:
  91:test/Threads_C_API_test.cpp ****     uint8 i = 10;
 150              		.loc 1 91 5 is_stmt 1
 151              		.loc 1 91 11 is_stmt 0
 152 00cc 9304A000 		li	s1,10
 153 00d0 6F000004 		j	.L9
 154              	.LVL13:
 155              	.L13:
  92:test/Threads_C_API_test.cpp ****     for (; i < 13; i++) {
  93:test/Threads_C_API_test.cpp ****         printString("D: i="); printInt(i); printString("\n");
 156              		.loc 1 93 9 is_stmt 1 discriminator 1
 157              		.loc 1 93 20 is_stmt 0 discriminator 1
 158 00d4 17050000 		lla	a0,.LC2
 158      13050500 
 159 00dc 97000000 		call	_Z11printStringPKc@plt
 159      E7800000 
 160              	.LVL14:
 161              		.loc 1 93 31 is_stmt 1 discriminator 1
 162              		.loc 1 93 39 is_stmt 0 discriminator 1
 163 00e4 13060000 		li	a2,0
 164 00e8 9305A000 		li	a1,10
 165 00ec 13850400 		mv	a0,s1
 166 00f0 97000000 		call	_Z8printIntiii@plt
 166      E7800000 
 167              	.LVL15:
 168              		.loc 1 93 44 is_stmt 1 discriminator 1
 169              		.loc 1 93 55 is_stmt 0 discriminator 1
 170 00f8 17050000 		lla	a0,.LC1
 170      13050500 
 171 0100 97000000 		call	_Z11printStringPKc@plt
 171      E7800000 
 172              	.LVL16:
  92:test/Threads_C_API_test.cpp ****     for (; i < 13; i++) {
 173              		.loc 1 92 5 is_stmt 1 discriminator 1
 174 0108 9B841400 		addiw	s1,s1,1
 175              	.LVL17:
 176 010c 93F4F40F 		andi	s1,s1,0xff
 177              	.LVL18:
 178              	.L9:
  92:test/Threads_C_API_test.cpp ****     for (; i < 13; i++) {
 179              		.loc 1 92 5 discriminator 2
  92:test/Threads_C_API_test.cpp ****     for (; i < 13; i++) {
 180              		.loc 1 92 14 discriminator 2
 181 0110 9307C000 		li	a5,12
 182 0114 E3F097FC 		bleu	s1,a5,.L13
  94:test/Threads_C_API_test.cpp ****     }
  95:test/Threads_C_API_test.cpp **** 
  96:test/Threads_C_API_test.cpp ****     printString("D: dispatch\n");
 183              		.loc 1 96 5
 184              		.loc 1 96 16 is_stmt 0
 185 0118 17050000 		lla	a0,.LC3
 185      13050500 
 186 0120 97000000 		call	_Z11printStringPKc@plt
 186      E7800000 
 187              	.LVL19:
  97:test/Threads_C_API_test.cpp ****     __asm__ ("li t1, 5");
GAS LISTING /tmp/ccN2Sb8W.s 			page 7


 188              		.loc 1 97 5 is_stmt 1
 189              		.loc 1 97 25 is_stmt 0
 190              	#APP
 191              	# 97 "test/Threads_C_API_test.cpp" 1
  98              	    thread_dispatch();
 192              		li t1, 5
 193              	# 0 "" 2
 194              		.loc 1 98 5 is_stmt 1
 195              		.loc 1 98 20 is_stmt 0
 196              	#NO_APP
 197 012c 97000000 		call	_Z15thread_dispatchv@plt
 197      E7800000 
 198              	.LVL20:
  99:test/Threads_C_API_test.cpp ****     printString("U D SAM\n");
 199              		.loc 1 99 5 is_stmt 1
 200              		.loc 1 99 16 is_stmt 0
 201 0134 17050000 		lla	a0,.LC4
 201      13050500 
 202 013c 97000000 		call	_Z11printStringPKc@plt
 202      E7800000 
 203              	.LVL21:
 100:test/Threads_C_API_test.cpp ****     uint64 result = fibonacci(16);
 204              		.loc 1 100 5 is_stmt 1
 205              		.loc 1 100 30 is_stmt 0
 206 0144 13050001 		li	a0,16
 207 0148 97000000 		call	_ZL9fibonaccim
 207      E7800000 
 208              	.LVL22:
 209 0150 13090500 		mv	s2,a0
 210              	.LVL23:
 101:test/Threads_C_API_test.cpp ****     printString("U D SAM 2\n");
 211              		.loc 1 101 5 is_stmt 1
 212              		.loc 1 101 16 is_stmt 0
 213 0154 17050000 		lla	a0,.LC5
 213      13050500 
 214              	.LVL24:
 215 015c 97000000 		call	_Z11printStringPKc@plt
 215      E7800000 
 216              	.LVL25:
 102:test/Threads_C_API_test.cpp **** 
 103:test/Threads_C_API_test.cpp ****     printString("D: fibonaci="); printInt(result); printString("\n");
 217              		.loc 1 103 5 is_stmt 1
 218              		.loc 1 103 16 is_stmt 0
 219 0164 17050000 		lla	a0,.LC6
 219      13050500 
 220 016c 97000000 		call	_Z11printStringPKc@plt
 220      E7800000 
 221              	.LVL26:
 222              		.loc 1 103 34 is_stmt 1
 223              		.loc 1 103 42 is_stmt 0
 224 0174 13060000 		li	a2,0
 225 0178 9305A000 		li	a1,10
 226 017c 1B050900 		sext.w	a0,s2
 227 0180 97000000 		call	_Z8printIntiii@plt
 227      E7800000 
 228              	.LVL27:
 229              		.loc 1 103 52 is_stmt 1
GAS LISTING /tmp/ccN2Sb8W.s 			page 8


 230              		.loc 1 103 63 is_stmt 0
 231 0188 17050000 		lla	a0,.LC1
 231      13050500 
 232 0190 97000000 		call	_Z11printStringPKc@plt
 232      E7800000 
 233              	.LVL28:
 234 0198 6F000004 		j	.L11
 235              	.L14:
 104:test/Threads_C_API_test.cpp **** 
 105:test/Threads_C_API_test.cpp ****     for (; i < 16; i++) {
 106:test/Threads_C_API_test.cpp ****         printString("D: i="); printInt(i); printString("\n");
 236              		.loc 1 106 9 is_stmt 1 discriminator 1
 237              		.loc 1 106 20 is_stmt 0 discriminator 1
 238 019c 17050000 		lla	a0,.LC2
 238      13050500 
 239 01a4 97000000 		call	_Z11printStringPKc@plt
 239      E7800000 
 240              	.LVL29:
 241              		.loc 1 106 31 is_stmt 1 discriminator 1
 242              		.loc 1 106 39 is_stmt 0 discriminator 1
 243 01ac 13060000 		li	a2,0
 244 01b0 9305A000 		li	a1,10
 245 01b4 13850400 		mv	a0,s1
 246 01b8 97000000 		call	_Z8printIntiii@plt
 246      E7800000 
 247              	.LVL30:
 248              		.loc 1 106 44 is_stmt 1 discriminator 1
 249              		.loc 1 106 55 is_stmt 0 discriminator 1
 250 01c0 17050000 		lla	a0,.LC1
 250      13050500 
 251 01c8 97000000 		call	_Z11printStringPKc@plt
 251      E7800000 
 252              	.LVL31:
 105:test/Threads_C_API_test.cpp ****         printString("D: i="); printInt(i); printString("\n");
 253              		.loc 1 105 5 is_stmt 1 discriminator 1
 254 01d0 9B841400 		addiw	s1,s1,1
 255              	.LVL32:
 256 01d4 93F4F40F 		andi	s1,s1,0xff
 257              	.LVL33:
 258              	.L11:
 105:test/Threads_C_API_test.cpp ****         printString("D: i="); printInt(i); printString("\n");
 259              		.loc 1 105 5 discriminator 2
 105:test/Threads_C_API_test.cpp ****         printString("D: i="); printInt(i); printString("\n");
 260              		.loc 1 105 14 discriminator 2
 261 01d8 9307F000 		li	a5,15
 262 01dc E3F097FC 		bleu	s1,a5,.L14
 107:test/Threads_C_API_test.cpp ****     }
 108:test/Threads_C_API_test.cpp **** 
 109:test/Threads_C_API_test.cpp ****     printString("D finished!\n");
 263              		.loc 1 109 5
 264              		.loc 1 109 16 is_stmt 0
 265 01e0 17050000 		lla	a0,.LC7
 265      13050500 
 266 01e8 97000000 		call	_Z11printStringPKc@plt
 266      E7800000 
 267              	.LVL34:
 110:test/Threads_C_API_test.cpp ****     finishedD = true;
GAS LISTING /tmp/ccN2Sb8W.s 			page 9


 268              		.loc 1 110 5 is_stmt 1
 269              		.loc 1 110 15 is_stmt 0
 270 01f0 93071000 		li	a5,1
 271 01f4 17070000 		sb	a5,.LANCHOR0,a4
 271      2300F700 
 111:test/Threads_C_API_test.cpp **** 
 112:test/Threads_C_API_test.cpp ****     thread_dispatch();
 272              		.loc 1 112 5 is_stmt 1
 273              		.loc 1 112 20 is_stmt 0
 274 01fc 97000000 		call	_Z15thread_dispatchv@plt
 274      E7800000 
 275              	.LVL35:
 113:test/Threads_C_API_test.cpp **** }
 276              		.loc 1 113 1
 277 0204 83308101 		ld	ra,24(sp)
 278              		.cfi_restore 1
 279 0208 03340101 		ld	s0,16(sp)
 280              		.cfi_restore 8
 281              		.cfi_def_cfa 2, 32
 282 020c 83348100 		ld	s1,8(sp)
 283              		.cfi_restore 9
 284              	.LVL36:
 285 0210 03390100 		ld	s2,0(sp)
 286              		.cfi_restore 18
 287              	.LVL37:
 288 0214 13010102 		addi	sp,sp,32
 289              		.cfi_def_cfa_offset 0
 290 0218 67800000 		jr	ra
 291              		.cfi_endproc
 292              	.LFE23:
 294              		.section	.rodata.str1.8
 295 0065 000000   		.align	3
 296              	.LC8:
 297 0068 4E495420 		.string	"NIT C "
 297      432000
 298 006f 00       		.align	3
 299              	.LC9:
 300 0070 433A2069 		.string	"C: i="
 300      3D00
 301 0076 0000     		.align	3
 302              	.LC10:
 303 0078 433A2064 		.string	"C: dispatch\n"
 303      69737061 
 303      7463680A 
 303      00
 304 0085 000000   		.align	3
 305              	.LC11:
 306 0088 433A2074 		.string	"C: t1="
 306      313D00
 307 008f 00       		.align	3
 308              	.LC12:
 309 0090 433A2066 		.string	"C: fibonaci="
 309      69626F6E 
 309      6163693D 
 309      00
 310 009d 000000   		.align	3
 311              	.LC13:
GAS LISTING /tmp/ccN2Sb8W.s 			page 10


 312 00a0 43206669 		.string	"C finished!\n"
 312      6E697368 
 312      6564210A 
 312      00
 313 00ad 000000   		.align	3
 314              	.LC14:
 315 00b0 43206669 		.string	"C finished NUMERO DOS!\n"
 315      6E697368 
 315      6564204E 
 315      554D4552 
 315      4F20444F 
 316              		.text
 317              		.align	2
 319              	_ZL11workerBodyCPv:
 320              	.LFB22:
  56:test/Threads_C_API_test.cpp ****     printString("NIT C ");
 321              		.loc 1 56 36 is_stmt 1
 322              		.cfi_startproc
 323              	.LVL38:
 324 021c 130101FE 		addi	sp,sp,-32
 325              		.cfi_def_cfa_offset 32
 326 0220 233C1100 		sd	ra,24(sp)
 327 0224 23388100 		sd	s0,16(sp)
 328 0228 23349100 		sd	s1,8(sp)
 329 022c 23302101 		sd	s2,0(sp)
 330              		.cfi_offset 1, -8
 331              		.cfi_offset 8, -16
 332              		.cfi_offset 9, -24
 333              		.cfi_offset 18, -32
 334 0230 13040102 		addi	s0,sp,32
 335              		.cfi_def_cfa 8, 0
  57:test/Threads_C_API_test.cpp ****     printInt(_thread :: running->retID());
 336              		.loc 1 57 5
  57:test/Threads_C_API_test.cpp ****     printInt(_thread :: running->retID());
 337              		.loc 1 57 16 is_stmt 0
 338 0234 17050000 		lla	a0,.LC8
 338      13050500 
 339              	.LVL39:
 340 023c 97000000 		call	_Z11printStringPKc@plt
 340      E7800000 
 341              	.LVL40:
  58:test/Threads_C_API_test.cpp ****     printString("\n");
 342              		.loc 1 58 5 is_stmt 1
  58:test/Threads_C_API_test.cpp ****     printString("\n");
 343              		.loc 1 58 39 is_stmt 0
 344 0244 97070000 		la	a5,_ZN7_thread7runningE
 344      83B70700 
 345 024c 83B70700 		ld	a5,0(a5)
 346              	.LVL41:
 347              	.LBB22:
 348              	.LBB23:
 349              		.loc 2 22 20 is_stmt 1
 350              	.LBE23:
 351              	.LBE22:
  58:test/Threads_C_API_test.cpp ****     printString("\n");
 352              		.loc 1 58 13 is_stmt 0
 353 0250 13060000 		li	a2,0
GAS LISTING /tmp/ccN2Sb8W.s 			page 11


 354 0254 9305A000 		li	a1,10
 355 0258 03A58701 		lw	a0,24(a5)
 356 025c 97000000 		call	_Z8printIntiii@plt
 356      E7800000 
 357              	.LVL42:
  59:test/Threads_C_API_test.cpp ****     uint8 i = 0;
 358              		.loc 1 59 5 is_stmt 1
  59:test/Threads_C_API_test.cpp ****     uint8 i = 0;
 359              		.loc 1 59 16 is_stmt 0
 360 0264 17050000 		lla	a0,.LC1
 360      13050500 
 361 026c 97000000 		call	_Z11printStringPKc@plt
 361      E7800000 
 362              	.LVL43:
  60:test/Threads_C_API_test.cpp ****     for (; i < 3; i++) {
 363              		.loc 1 60 5 is_stmt 1
  60:test/Threads_C_API_test.cpp ****     for (; i < 3; i++) {
 364              		.loc 1 60 11 is_stmt 0
 365 0274 93040000 		li	s1,0
 366 0278 6F000004 		j	.L17
 367              	.LVL44:
 368              	.L21:
  62:test/Threads_C_API_test.cpp ****     }
 369              		.loc 1 62 9 is_stmt 1 discriminator 1
  62:test/Threads_C_API_test.cpp ****     }
 370              		.loc 1 62 20 is_stmt 0 discriminator 1
 371 027c 17050000 		lla	a0,.LC9
 371      13050500 
 372 0284 97000000 		call	_Z11printStringPKc@plt
 372      E7800000 
 373              	.LVL45:
  62:test/Threads_C_API_test.cpp ****     }
 374              		.loc 1 62 31 is_stmt 1 discriminator 1
  62:test/Threads_C_API_test.cpp ****     }
 375              		.loc 1 62 39 is_stmt 0 discriminator 1
 376 028c 13060000 		li	a2,0
 377 0290 9305A000 		li	a1,10
 378 0294 13850400 		mv	a0,s1
 379 0298 97000000 		call	_Z8printIntiii@plt
 379      E7800000 
 380              	.LVL46:
  62:test/Threads_C_API_test.cpp ****     }
 381              		.loc 1 62 44 is_stmt 1 discriminator 1
  62:test/Threads_C_API_test.cpp ****     }
 382              		.loc 1 62 55 is_stmt 0 discriminator 1
 383 02a0 17050000 		lla	a0,.LC1
 383      13050500 
 384 02a8 97000000 		call	_Z11printStringPKc@plt
 384      E7800000 
 385              	.LVL47:
  61:test/Threads_C_API_test.cpp ****         printString("C: i="); printInt(i); printString("\n");
 386              		.loc 1 61 5 is_stmt 1 discriminator 1
 387 02b0 9B841400 		addiw	s1,s1,1
 388              	.LVL48:
 389 02b4 93F4F40F 		andi	s1,s1,0xff
 390              	.LVL49:
 391              	.L17:
GAS LISTING /tmp/ccN2Sb8W.s 			page 12


  61:test/Threads_C_API_test.cpp ****         printString("C: i="); printInt(i); printString("\n");
 392              		.loc 1 61 5 discriminator 2
  61:test/Threads_C_API_test.cpp ****         printString("C: i="); printInt(i); printString("\n");
 393              		.loc 1 61 14 discriminator 2
 394 02b8 93072000 		li	a5,2
 395 02bc E3F097FC 		bleu	s1,a5,.L21
  65:test/Threads_C_API_test.cpp ****     __asm__ ("li t1, 7");
 396              		.loc 1 65 5
  65:test/Threads_C_API_test.cpp ****     __asm__ ("li t1, 7");
 397              		.loc 1 65 16 is_stmt 0
 398 02c0 17050000 		lla	a0,.LC10
 398      13050500 
 399 02c8 97000000 		call	_Z11printStringPKc@plt
 399      E7800000 
 400              	.LVL50:
  66:test/Threads_C_API_test.cpp ****     thread_dispatch();
 401              		.loc 1 66 5 is_stmt 1
  66:test/Threads_C_API_test.cpp ****     thread_dispatch();
 402              		.loc 1 66 25 is_stmt 0
 403              	#APP
 404              	# 66 "test/Threads_C_API_test.cpp" 1
  67:test/Threads_C_API_test.cpp **** 
 405              		li t1, 7
 406              	# 0 "" 2
 407              		.loc 1 67 5 is_stmt 1
  67:test/Threads_C_API_test.cpp **** 
 408              		.loc 1 67 20 is_stmt 0
 409              	#NO_APP
 410 02d4 97000000 		call	_Z15thread_dispatchv@plt
 410      E7800000 
 411              	.LVL51:
  69:test/Threads_C_API_test.cpp ****     __asm__ ("mv %[t1], t1" : [t1] "=r"(t1));
 412              		.loc 1 69 5 is_stmt 1
  70:test/Threads_C_API_test.cpp **** 
 413              		.loc 1 70 5
  70:test/Threads_C_API_test.cpp **** 
 414              		.loc 1 70 45 is_stmt 0
 415              	#APP
 416              	# 70 "test/Threads_C_API_test.cpp" 1
 417              		mv s2, t1
 418              	# 0 "" 2
 419              	.LVL52:
  72:test/Threads_C_API_test.cpp **** 
 420              		.loc 1 72 5 is_stmt 1
  72:test/Threads_C_API_test.cpp **** 
 421              		.loc 1 72 16 is_stmt 0
 422              	#NO_APP
 423 02e0 17050000 		lla	a0,.LC11
 423      13050500 
 424 02e8 97000000 		call	_Z11printStringPKc@plt
 424      E7800000 
 425              	.LVL53:
  72:test/Threads_C_API_test.cpp **** 
 426              		.loc 1 72 28 is_stmt 1
  72:test/Threads_C_API_test.cpp **** 
 427              		.loc 1 72 36 is_stmt 0
 428 02f0 13060000 		li	a2,0
GAS LISTING /tmp/ccN2Sb8W.s 			page 13


 429 02f4 9305A000 		li	a1,10
 430 02f8 1B050900 		sext.w	a0,s2
 431 02fc 97000000 		call	_Z8printIntiii@plt
 431      E7800000 
 432              	.LVL54:
  72:test/Threads_C_API_test.cpp **** 
 433              		.loc 1 72 42 is_stmt 1
  72:test/Threads_C_API_test.cpp **** 
 434              		.loc 1 72 53 is_stmt 0
 435 0304 17050000 		lla	a0,.LC1
 435      13050500 
 436 030c 97000000 		call	_Z11printStringPKc@plt
 436      E7800000 
 437              	.LVL55:
  74:test/Threads_C_API_test.cpp ****     printString("C: fibonaci="); printInt(result); printString("\n");
 438              		.loc 1 74 5 is_stmt 1
  74:test/Threads_C_API_test.cpp ****     printString("C: fibonaci="); printInt(result); printString("\n");
 439              		.loc 1 74 30 is_stmt 0
 440 0314 1305C000 		li	a0,12
 441 0318 97000000 		call	_ZL9fibonaccim
 441      E7800000 
 442              	.LVL56:
 443 0320 13090500 		mv	s2,a0
 444              	.LVL57:
  75:test/Threads_C_API_test.cpp **** 
 445              		.loc 1 75 5 is_stmt 1
  75:test/Threads_C_API_test.cpp **** 
 446              		.loc 1 75 16 is_stmt 0
 447 0324 17050000 		lla	a0,.LC12
 447      13050500 
 448              	.LVL58:
 449 032c 97000000 		call	_Z11printStringPKc@plt
 449      E7800000 
 450              	.LVL59:
  75:test/Threads_C_API_test.cpp **** 
 451              		.loc 1 75 34 is_stmt 1
  75:test/Threads_C_API_test.cpp **** 
 452              		.loc 1 75 42 is_stmt 0
 453 0334 13060000 		li	a2,0
 454 0338 9305A000 		li	a1,10
 455 033c 1B050900 		sext.w	a0,s2
 456 0340 97000000 		call	_Z8printIntiii@plt
 456      E7800000 
 457              	.LVL60:
  75:test/Threads_C_API_test.cpp **** 
 458              		.loc 1 75 52 is_stmt 1
  75:test/Threads_C_API_test.cpp **** 
 459              		.loc 1 75 63 is_stmt 0
 460 0348 17050000 		lla	a0,.LC1
 460      13050500 
 461 0350 97000000 		call	_Z11printStringPKc@plt
 461      E7800000 
 462              	.LVL61:
 463 0358 6F000004 		j	.L19
 464              	.L22:
  78:test/Threads_C_API_test.cpp ****     }
 465              		.loc 1 78 9 is_stmt 1 discriminator 1
GAS LISTING /tmp/ccN2Sb8W.s 			page 14


  78:test/Threads_C_API_test.cpp ****     }
 466              		.loc 1 78 20 is_stmt 0 discriminator 1
 467 035c 17050000 		lla	a0,.LC9
 467      13050500 
 468 0364 97000000 		call	_Z11printStringPKc@plt
 468      E7800000 
 469              	.LVL62:
  78:test/Threads_C_API_test.cpp ****     }
 470              		.loc 1 78 31 is_stmt 1 discriminator 1
  78:test/Threads_C_API_test.cpp ****     }
 471              		.loc 1 78 39 is_stmt 0 discriminator 1
 472 036c 13060000 		li	a2,0
 473 0370 9305A000 		li	a1,10
 474 0374 13850400 		mv	a0,s1
 475 0378 97000000 		call	_Z8printIntiii@plt
 475      E7800000 
 476              	.LVL63:
  78:test/Threads_C_API_test.cpp ****     }
 477              		.loc 1 78 44 is_stmt 1 discriminator 1
  78:test/Threads_C_API_test.cpp ****     }
 478              		.loc 1 78 55 is_stmt 0 discriminator 1
 479 0380 17050000 		lla	a0,.LC1
 479      13050500 
 480 0388 97000000 		call	_Z11printStringPKc@plt
 480      E7800000 
 481              	.LVL64:
  77:test/Threads_C_API_test.cpp ****         printString("C: i="); printInt(i); printString("\n");
 482              		.loc 1 77 5 is_stmt 1 discriminator 1
 483 0390 9B841400 		addiw	s1,s1,1
 484              	.LVL65:
 485 0394 93F4F40F 		andi	s1,s1,0xff
 486              	.LVL66:
 487              	.L19:
  77:test/Threads_C_API_test.cpp ****         printString("C: i="); printInt(i); printString("\n");
 488              		.loc 1 77 5 discriminator 2
  77:test/Threads_C_API_test.cpp ****         printString("C: i="); printInt(i); printString("\n");
 489              		.loc 1 77 14 discriminator 2
 490 0398 93075000 		li	a5,5
 491 039c E3F097FC 		bleu	s1,a5,.L22
  81:test/Threads_C_API_test.cpp ****     finishedC = true;
 492              		.loc 1 81 5
  81:test/Threads_C_API_test.cpp ****     finishedC = true;
 493              		.loc 1 81 16 is_stmt 0
 494 03a0 17050000 		lla	a0,.LC13
 494      13050500 
 495 03a8 97000000 		call	_Z11printStringPKc@plt
 495      E7800000 
 496              	.LVL67:
  82:test/Threads_C_API_test.cpp ****     thread_dispatch();
 497              		.loc 1 82 5 is_stmt 1
  82:test/Threads_C_API_test.cpp ****     thread_dispatch();
 498              		.loc 1 82 15 is_stmt 0
 499 03b0 93071000 		li	a5,1
 500 03b4 17070000 		sb	a5,.LANCHOR0+1,a4
 500      2300F700 
  83:test/Threads_C_API_test.cpp ****     printString("C finished NUMERO DOS!\n");
 501              		.loc 1 83 5 is_stmt 1
GAS LISTING /tmp/ccN2Sb8W.s 			page 15


  83:test/Threads_C_API_test.cpp ****     printString("C finished NUMERO DOS!\n");
 502              		.loc 1 83 20 is_stmt 0
 503 03bc 97000000 		call	_Z15thread_dispatchv@plt
 503      E7800000 
 504              	.LVL68:
  84:test/Threads_C_API_test.cpp **** }
 505              		.loc 1 84 5 is_stmt 1
  84:test/Threads_C_API_test.cpp **** }
 506              		.loc 1 84 16 is_stmt 0
 507 03c4 17050000 		lla	a0,.LC14
 507      13050500 
 508 03cc 97000000 		call	_Z11printStringPKc@plt
 508      E7800000 
 509              	.LVL69:
  85:test/Threads_C_API_test.cpp **** 
 510              		.loc 1 85 1
 511 03d4 83308101 		ld	ra,24(sp)
 512              		.cfi_restore 1
 513 03d8 03340101 		ld	s0,16(sp)
 514              		.cfi_restore 8
 515              		.cfi_def_cfa 2, 32
 516 03dc 83348100 		ld	s1,8(sp)
 517              		.cfi_restore 9
 518              	.LVL70:
 519 03e0 03390100 		ld	s2,0(sp)
 520              		.cfi_restore 18
 521              	.LVL71:
 522 03e4 13010102 		addi	sp,sp,32
 523              		.cfi_def_cfa_offset 0
 524 03e8 67800000 		jr	ra
 525              		.cfi_endproc
 526              	.LFE22:
 528              		.section	.rodata.str1.8
 529              		.align	3
 530              	.LC15:
 531 00c8 4E495420 		.string	"NIT B "
 531      422000
 532 00cf 00       		.align	3
 533              	.LC16:
 534 00d0 423A2069 		.string	"B: i="
 534      3D00
 535 00d6 0000     		.align	3
 536              	.LC17:
 537 00d8 42206669 		.string	"B finished!\n"
 537      6E697368 
 537      6564210A 
 537      00
 538              		.text
 539              		.align	2
 541              	_ZL11workerBodyBPv:
 542              	.LFB21:
  38:test/Threads_C_API_test.cpp ****     printString("NIT B ");
 543              		.loc 1 38 36 is_stmt 1
 544              		.cfi_startproc
 545              	.LVL72:
 546 03ec 130101FE 		addi	sp,sp,-32
 547              		.cfi_def_cfa_offset 32
GAS LISTING /tmp/ccN2Sb8W.s 			page 16


 548 03f0 233C1100 		sd	ra,24(sp)
 549 03f4 23388100 		sd	s0,16(sp)
 550 03f8 23349100 		sd	s1,8(sp)
 551 03fc 23302101 		sd	s2,0(sp)
 552              		.cfi_offset 1, -8
 553              		.cfi_offset 8, -16
 554              		.cfi_offset 9, -24
 555              		.cfi_offset 18, -32
 556 0400 13040102 		addi	s0,sp,32
 557              		.cfi_def_cfa 8, 0
  39:test/Threads_C_API_test.cpp ****     printInt(_thread :: running->retID());
 558              		.loc 1 39 5
  39:test/Threads_C_API_test.cpp ****     printInt(_thread :: running->retID());
 559              		.loc 1 39 16 is_stmt 0
 560 0404 17050000 		lla	a0,.LC15
 560      13050500 
 561              	.LVL73:
 562 040c 97000000 		call	_Z11printStringPKc@plt
 562      E7800000 
 563              	.LVL74:
  40:test/Threads_C_API_test.cpp ****     printString("\n");
 564              		.loc 1 40 5 is_stmt 1
  40:test/Threads_C_API_test.cpp ****     printString("\n");
 565              		.loc 1 40 39 is_stmt 0
 566 0414 97070000 		la	a5,_ZN7_thread7runningE
 566      83B70700 
 567 041c 83B70700 		ld	a5,0(a5)
 568              	.LVL75:
 569              	.LBB24:
 570              	.LBB25:
 571              		.loc 2 22 20 is_stmt 1
 572              	.LBE25:
 573              	.LBE24:
  40:test/Threads_C_API_test.cpp ****     printString("\n");
 574              		.loc 1 40 13 is_stmt 0
 575 0420 13060000 		li	a2,0
 576 0424 9305A000 		li	a1,10
 577 0428 03A58701 		lw	a0,24(a5)
 578 042c 97000000 		call	_Z8printIntiii@plt
 578      E7800000 
 579              	.LVL76:
  41:test/Threads_C_API_test.cpp ****     for (uint64 i = 0; i < 16; i++) {
 580              		.loc 1 41 5 is_stmt 1
  41:test/Threads_C_API_test.cpp ****     for (uint64 i = 0; i < 16; i++) {
 581              		.loc 1 41 16 is_stmt 0
 582 0434 17050000 		lla	a0,.LC1
 582      13050500 
 583 043c 97000000 		call	_Z11printStringPKc@plt
 583      E7800000 
 584              	.LVL77:
  42:test/Threads_C_API_test.cpp ****         printString("B: i="); printInt(i); printString("\n");
 585              		.loc 1 42 5 is_stmt 1
 586              	.LBB26:
  42:test/Threads_C_API_test.cpp ****         printString("B: i="); printInt(i); printString("\n");
 587              		.loc 1 42 17 is_stmt 0
 588 0444 13090000 		li	s2,0
 589 0448 6F008003 		j	.L29
GAS LISTING /tmp/ccN2Sb8W.s 			page 17


 590              	.LVL78:
 591              	.L26:
 592              	.LBB27:
 593              	.LBB28:
 594              	.LBB29:
  47:test/Threads_C_API_test.cpp ****             //printString("U B SAM POSLE DISP\n");
 595              		.loc 1 47 13 is_stmt 1 discriminator 2
  47:test/Threads_C_API_test.cpp ****             //printString("U B SAM POSLE DISP\n");
 596              		.loc 1 47 28 is_stmt 0 discriminator 2
 597 044c 97000000 		call	_Z15thread_dispatchv@plt
 597      E7800000 
 598              	.LVL79:
 599              	.LBE29:
  44:test/Threads_C_API_test.cpp ****             for (uint64 k = 0; k < 30000; k++) { /* busy wait */ }
 600              		.loc 1 44 9 is_stmt 1 discriminator 2
 601 0454 93841400 		addi	s1,s1,1
 602              	.LVL80:
 603              	.L28:
  44:test/Threads_C_API_test.cpp ****             for (uint64 k = 0; k < 30000; k++) { /* busy wait */ }
 604              		.loc 1 44 30 discriminator 1
 605 0458 B7270000 		li	a5,8192
 606 045c 9387F770 		addi	a5,a5,1807
 607 0460 63EE9700 		bgtu	s1,a5,.L25
 608              	.LBB31:
 609              	.LBB30:
  45:test/Threads_C_API_test.cpp ****             //printString("U B SAM PRE DISP\n");
 610              		.loc 1 45 25 is_stmt 0
 611 0464 13070000 		li	a4,0
 612              	.L27:
 613              	.LVL81:
  45:test/Threads_C_API_test.cpp ****             //printString("U B SAM PRE DISP\n");
 614              		.loc 1 45 34 is_stmt 1 discriminator 3
 615 0468 B7770000 		li	a5,28672
 616 046c 9387F752 		addi	a5,a5,1327
 617 0470 E3EEE7FC 		bgtu	a4,a5,.L26
  45:test/Threads_C_API_test.cpp ****             //printString("U B SAM PRE DISP\n");
 618              		.loc 1 45 13 discriminator 2
 619 0474 13071700 		addi	a4,a4,1
 620              	.LVL82:
 621 0478 6FF01FFF 		j	.L27
 622              	.LVL83:
 623              	.L25:
 624              	.LBE30:
 625              	.LBE31:
 626              	.LBE28:
 627              	.LBE27:
  42:test/Threads_C_API_test.cpp ****         printString("B: i="); printInt(i); printString("\n");
 628              		.loc 1 42 5 discriminator 2
 629 047c 13091900 		addi	s2,s2,1
 630              	.LVL84:
 631              	.L29:
  42:test/Threads_C_API_test.cpp ****         printString("B: i="); printInt(i); printString("\n");
 632              		.loc 1 42 26 discriminator 1
 633 0480 9307F000 		li	a5,15
 634 0484 63E02705 		bgtu	s2,a5,.L24
 635              	.LBB33:
  43:test/Threads_C_API_test.cpp ****         for (uint64 j = 0; j < 10000; j++) {
GAS LISTING /tmp/ccN2Sb8W.s 			page 18


 636              		.loc 1 43 9
  43:test/Threads_C_API_test.cpp ****         for (uint64 j = 0; j < 10000; j++) {
 637              		.loc 1 43 20 is_stmt 0
 638 0488 17050000 		lla	a0,.LC16
 638      13050500 
 639 0490 97000000 		call	_Z11printStringPKc@plt
 639      E7800000 
 640              	.LVL85:
  43:test/Threads_C_API_test.cpp ****         for (uint64 j = 0; j < 10000; j++) {
 641              		.loc 1 43 31 is_stmt 1
  43:test/Threads_C_API_test.cpp ****         for (uint64 j = 0; j < 10000; j++) {
 642              		.loc 1 43 39 is_stmt 0
 643 0498 13060000 		li	a2,0
 644 049c 9305A000 		li	a1,10
 645 04a0 1B050900 		sext.w	a0,s2
 646 04a4 97000000 		call	_Z8printIntiii@plt
 646      E7800000 
 647              	.LVL86:
  43:test/Threads_C_API_test.cpp ****         for (uint64 j = 0; j < 10000; j++) {
 648              		.loc 1 43 44 is_stmt 1
  43:test/Threads_C_API_test.cpp ****         for (uint64 j = 0; j < 10000; j++) {
 649              		.loc 1 43 55 is_stmt 0
 650 04ac 17050000 		lla	a0,.LC1
 650      13050500 
 651 04b4 97000000 		call	_Z11printStringPKc@plt
 651      E7800000 
 652              	.LVL87:
  44:test/Threads_C_API_test.cpp ****             for (uint64 k = 0; k < 30000; k++) { /* busy wait */ }
 653              		.loc 1 44 9 is_stmt 1
 654              	.LBB32:
  44:test/Threads_C_API_test.cpp ****             for (uint64 k = 0; k < 30000; k++) { /* busy wait */ }
 655              		.loc 1 44 21 is_stmt 0
 656 04bc 93040000 		li	s1,0
 657 04c0 6FF09FF9 		j	.L28
 658              	.LVL88:
 659              	.L24:
 660              	.LBE32:
 661              	.LBE33:
 662              	.LBE26:
  51:test/Threads_C_API_test.cpp ****     finishedB = true;
 663              		.loc 1 51 5 is_stmt 1
  51:test/Threads_C_API_test.cpp ****     finishedB = true;
 664              		.loc 1 51 16 is_stmt 0
 665 04c4 17050000 		lla	a0,.LC17
 665      13050500 
 666 04cc 97000000 		call	_Z11printStringPKc@plt
 666      E7800000 
 667              	.LVL89:
  52:test/Threads_C_API_test.cpp ****     thread_dispatch();
 668              		.loc 1 52 5 is_stmt 1
  52:test/Threads_C_API_test.cpp ****     thread_dispatch();
 669              		.loc 1 52 15 is_stmt 0
 670 04d4 93071000 		li	a5,1
 671 04d8 17070000 		sb	a5,.LANCHOR0+2,a4
 671      2300F700 
  53:test/Threads_C_API_test.cpp **** }
 672              		.loc 1 53 5 is_stmt 1
GAS LISTING /tmp/ccN2Sb8W.s 			page 19


  53:test/Threads_C_API_test.cpp **** }
 673              		.loc 1 53 20 is_stmt 0
 674 04e0 97000000 		call	_Z15thread_dispatchv@plt
 674      E7800000 
 675              	.LVL90:
  54:test/Threads_C_API_test.cpp **** 
 676              		.loc 1 54 1
 677 04e8 83308101 		ld	ra,24(sp)
 678              		.cfi_restore 1
 679 04ec 03340101 		ld	s0,16(sp)
 680              		.cfi_restore 8
 681              		.cfi_def_cfa 2, 32
 682 04f0 83348100 		ld	s1,8(sp)
 683              		.cfi_restore 9
 684 04f4 03390100 		ld	s2,0(sp)
 685              		.cfi_restore 18
 686              	.LVL91:
 687 04f8 13010102 		addi	sp,sp,32
 688              		.cfi_def_cfa_offset 0
 689 04fc 67800000 		jr	ra
 690              		.cfi_endproc
 691              	.LFE21:
 693              		.section	.rodata.str1.8
 694 00e5 000000   		.align	3
 695              	.LC18:
 696 00e8 4E495420 		.string	"NIT A "
 696      412000
 697 00ef 00       		.align	3
 698              	.LC19:
 699 00f0 413A2069 		.string	"A: i="
 699      3D00
 700 00f6 0000     		.align	3
 701              	.LC20:
 702 00f8 41206669 		.string	"A finished!\n"
 702      6E697368 
 702      6564210A 
 702      00
 703              		.text
 704              		.align	2
 706              	_ZL11workerBodyAPv:
 707              	.LFB20:
  20:test/Threads_C_API_test.cpp **** 
 708              		.loc 1 20 36 is_stmt 1
 709              		.cfi_startproc
 710              	.LVL92:
 711 0500 130101FE 		addi	sp,sp,-32
 712              		.cfi_def_cfa_offset 32
 713 0504 233C1100 		sd	ra,24(sp)
 714 0508 23388100 		sd	s0,16(sp)
 715 050c 23349100 		sd	s1,8(sp)
 716 0510 23302101 		sd	s2,0(sp)
 717              		.cfi_offset 1, -8
 718              		.cfi_offset 8, -16
 719              		.cfi_offset 9, -24
 720              		.cfi_offset 18, -32
 721 0514 13040102 		addi	s0,sp,32
 722              		.cfi_def_cfa 8, 0
GAS LISTING /tmp/ccN2Sb8W.s 			page 20


  22:test/Threads_C_API_test.cpp ****     printInt(_thread :: running->retID());
 723              		.loc 1 22 5
  22:test/Threads_C_API_test.cpp ****     printInt(_thread :: running->retID());
 724              		.loc 1 22 16 is_stmt 0
 725 0518 17050000 		lla	a0,.LC18
 725      13050500 
 726              	.LVL93:
 727 0520 97000000 		call	_Z11printStringPKc@plt
 727      E7800000 
 728              	.LVL94:
  23:test/Threads_C_API_test.cpp ****     printString("\n");
 729              		.loc 1 23 5 is_stmt 1
  23:test/Threads_C_API_test.cpp ****     printString("\n");
 730              		.loc 1 23 39 is_stmt 0
 731 0528 97070000 		la	a5,_ZN7_thread7runningE
 731      83B70700 
 732 0530 83B70700 		ld	a5,0(a5)
 733              	.LVL95:
 734              	.LBB34:
 735              	.LBB35:
 736              		.loc 2 22 20 is_stmt 1
 737              	.LBE35:
 738              	.LBE34:
  23:test/Threads_C_API_test.cpp ****     printString("\n");
 739              		.loc 1 23 13 is_stmt 0
 740 0534 13060000 		li	a2,0
 741 0538 9305A000 		li	a1,10
 742 053c 03A58701 		lw	a0,24(a5)
 743 0540 97000000 		call	_Z8printIntiii@plt
 743      E7800000 
 744              	.LVL96:
  24:test/Threads_C_API_test.cpp ****     for (uint64 i = 0; i < 10; i++) {
 745              		.loc 1 24 5 is_stmt 1
  24:test/Threads_C_API_test.cpp ****     for (uint64 i = 0; i < 10; i++) {
 746              		.loc 1 24 16 is_stmt 0
 747 0548 17050000 		lla	a0,.LC1
 747      13050500 
 748 0550 97000000 		call	_Z11printStringPKc@plt
 748      E7800000 
 749              	.LVL97:
  25:test/Threads_C_API_test.cpp ****         printString("A: i="); printInt(i); printString("\n");
 750              		.loc 1 25 5 is_stmt 1
 751              	.LBB36:
  25:test/Threads_C_API_test.cpp ****         printString("A: i="); printInt(i); printString("\n");
 752              		.loc 1 25 17 is_stmt 0
 753 0558 13090000 		li	s2,0
 754 055c 6F008003 		j	.L37
 755              	.LVL98:
 756              	.L34:
 757              	.LBB37:
 758              	.LBB38:
 759              	.LBB39:
  30:test/Threads_C_API_test.cpp ****             //printString("U A SAM POSLE DISP\n");
 760              		.loc 1 30 13 is_stmt 1 discriminator 2
  30:test/Threads_C_API_test.cpp ****             //printString("U A SAM POSLE DISP\n");
 761              		.loc 1 30 28 is_stmt 0 discriminator 2
 762 0560 97000000 		call	_Z15thread_dispatchv@plt
GAS LISTING /tmp/ccN2Sb8W.s 			page 21


 762      E7800000 
 763              	.LVL99:
 764              	.LBE39:
  27:test/Threads_C_API_test.cpp ****             for (uint64 k = 0; k < 30000; k++) { /* busy wait */ }
 765              		.loc 1 27 9 is_stmt 1 discriminator 2
 766 0568 93841400 		addi	s1,s1,1
 767              	.LVL100:
 768              	.L36:
  27:test/Threads_C_API_test.cpp ****             for (uint64 k = 0; k < 30000; k++) { /* busy wait */ }
 769              		.loc 1 27 30 discriminator 1
 770 056c B7270000 		li	a5,8192
 771 0570 9387F770 		addi	a5,a5,1807
 772 0574 63EE9700 		bgtu	s1,a5,.L33
 773              	.LBB41:
 774              	.LBB40:
  28:test/Threads_C_API_test.cpp ****             //printString("U A SAM PRE DISP\n");
 775              		.loc 1 28 25 is_stmt 0
 776 0578 13070000 		li	a4,0
 777              	.L35:
 778              	.LVL101:
  28:test/Threads_C_API_test.cpp ****             //printString("U A SAM PRE DISP\n");
 779              		.loc 1 28 34 is_stmt 1 discriminator 3
 780 057c B7770000 		li	a5,28672
 781 0580 9387F752 		addi	a5,a5,1327
 782 0584 E3EEE7FC 		bgtu	a4,a5,.L34
  28:test/Threads_C_API_test.cpp ****             //printString("U A SAM PRE DISP\n");
 783              		.loc 1 28 13 discriminator 2
 784 0588 13071700 		addi	a4,a4,1
 785              	.LVL102:
 786 058c 6FF01FFF 		j	.L35
 787              	.LVL103:
 788              	.L33:
 789              	.LBE40:
 790              	.LBE41:
 791              	.LBE38:
 792              	.LBE37:
  25:test/Threads_C_API_test.cpp ****         printString("A: i="); printInt(i); printString("\n");
 793              		.loc 1 25 5 discriminator 2
 794 0590 13091900 		addi	s2,s2,1
 795              	.LVL104:
 796              	.L37:
  25:test/Threads_C_API_test.cpp ****         printString("A: i="); printInt(i); printString("\n");
 797              		.loc 1 25 26 discriminator 1
 798 0594 93079000 		li	a5,9
 799 0598 63E02705 		bgtu	s2,a5,.L32
 800              	.LBB43:
  26:test/Threads_C_API_test.cpp ****         for (uint64 j = 0; j < 10000; j++) {
 801              		.loc 1 26 9
  26:test/Threads_C_API_test.cpp ****         for (uint64 j = 0; j < 10000; j++) {
 802              		.loc 1 26 20 is_stmt 0
 803 059c 17050000 		lla	a0,.LC19
 803      13050500 
 804 05a4 97000000 		call	_Z11printStringPKc@plt
 804      E7800000 
 805              	.LVL105:
  26:test/Threads_C_API_test.cpp ****         for (uint64 j = 0; j < 10000; j++) {
 806              		.loc 1 26 31 is_stmt 1
GAS LISTING /tmp/ccN2Sb8W.s 			page 22


  26:test/Threads_C_API_test.cpp ****         for (uint64 j = 0; j < 10000; j++) {
 807              		.loc 1 26 39 is_stmt 0
 808 05ac 13060000 		li	a2,0
 809 05b0 9305A000 		li	a1,10
 810 05b4 1B050900 		sext.w	a0,s2
 811 05b8 97000000 		call	_Z8printIntiii@plt
 811      E7800000 
 812              	.LVL106:
  26:test/Threads_C_API_test.cpp ****         for (uint64 j = 0; j < 10000; j++) {
 813              		.loc 1 26 44 is_stmt 1
  26:test/Threads_C_API_test.cpp ****         for (uint64 j = 0; j < 10000; j++) {
 814              		.loc 1 26 55 is_stmt 0
 815 05c0 17050000 		lla	a0,.LC1
 815      13050500 
 816 05c8 97000000 		call	_Z11printStringPKc@plt
 816      E7800000 
 817              	.LVL107:
  27:test/Threads_C_API_test.cpp ****             for (uint64 k = 0; k < 30000; k++) { /* busy wait */ }
 818              		.loc 1 27 9 is_stmt 1
 819              	.LBB42:
  27:test/Threads_C_API_test.cpp ****             for (uint64 k = 0; k < 30000; k++) { /* busy wait */ }
 820              		.loc 1 27 21 is_stmt 0
 821 05d0 93040000 		li	s1,0
 822 05d4 6FF09FF9 		j	.L36
 823              	.LVL108:
 824              	.L32:
 825              	.LBE42:
 826              	.LBE43:
 827              	.LBE36:
  34:test/Threads_C_API_test.cpp ****     finishedA = true;
 828              		.loc 1 34 5 is_stmt 1
  34:test/Threads_C_API_test.cpp ****     finishedA = true;
 829              		.loc 1 34 16 is_stmt 0
 830 05d8 17050000 		lla	a0,.LC20
 830      13050500 
 831 05e0 97000000 		call	_Z11printStringPKc@plt
 831      E7800000 
 832              	.LVL109:
  35:test/Threads_C_API_test.cpp **** }
 833              		.loc 1 35 5 is_stmt 1
  35:test/Threads_C_API_test.cpp **** }
 834              		.loc 1 35 15 is_stmt 0
 835 05e8 93071000 		li	a5,1
 836 05ec 17070000 		sb	a5,.LANCHOR0+3,a4
 836      2300F700 
  36:test/Threads_C_API_test.cpp **** 
 837              		.loc 1 36 1
 838 05f4 83308101 		ld	ra,24(sp)
 839              		.cfi_restore 1
 840 05f8 03340101 		ld	s0,16(sp)
 841              		.cfi_restore 8
 842              		.cfi_def_cfa 2, 32
 843 05fc 83348100 		ld	s1,8(sp)
 844              		.cfi_restore 9
 845 0600 03390100 		ld	s2,0(sp)
 846              		.cfi_restore 18
 847              	.LVL110:
GAS LISTING /tmp/ccN2Sb8W.s 			page 23


 848 0604 13010102 		addi	sp,sp,32
 849              		.cfi_def_cfa_offset 0
 850 0608 67800000 		jr	ra
 851              		.cfi_endproc
 852              	.LFE20:
 854              		.section	.rodata.str1.8
 855 0105 000000   		.align	3
 856              	.LC21:
 857 0108 54687265 		.string	"ThreadA created\n"
 857      61644120 
 857      63726561 
 857      7465640A 
 857      00
 858 0119 00000000 		.align	3
 858      000000
 859              	.LC22:
 860 0120 54687265 		.string	"ThreadB created\n"
 860      61644220 
 860      63726561 
 860      7465640A 
 860      00
 861 0131 00000000 		.align	3
 861      000000
 862              	.LC23:
 863 0138 54687265 		.string	"ThreadC created\n"
 863      61644320 
 863      63726561 
 863      7465640A 
 863      00
 864 0149 00000000 		.align	3
 864      000000
 865              	.LC24:
 866 0150 54687265 		.string	"ThreadD created\n"
 866      61644420 
 866      63726561 
 866      7465640A 
 866      00
 867              		.text
 868              		.align	2
 869              		.globl	_Z18Threads_C_API_testv
 871              	_Z18Threads_C_API_testv:
 872              	.LFB24:
 114:test/Threads_C_API_test.cpp **** 
 115:test/Threads_C_API_test.cpp **** 
 116:test/Threads_C_API_test.cpp **** void Threads_C_API_test() {
 873              		.loc 1 116 27 is_stmt 1
 874              		.cfi_startproc
 875 060c 130101FD 		addi	sp,sp,-48
 876              		.cfi_def_cfa_offset 48
 877 0610 23341102 		sd	ra,40(sp)
 878 0614 23308102 		sd	s0,32(sp)
 879              		.cfi_offset 1, -8
 880              		.cfi_offset 8, -16
 881 0618 13040103 		addi	s0,sp,48
 882              		.cfi_def_cfa 8, 0
 117:test/Threads_C_API_test.cpp ****     thread_t threads[4];
 883              		.loc 1 117 5
GAS LISTING /tmp/ccN2Sb8W.s 			page 24


 118:test/Threads_C_API_test.cpp ****     thread_create(&threads[0], workerBodyA, nullptr);
 884              		.loc 1 118 5
 885              		.loc 1 118 18 is_stmt 0
 886 061c 13060000 		li	a2,0
 887 0620 97050000 		lla	a1,_ZL11workerBodyAPv
 887      93850500 
 888 0628 130504FD 		addi	a0,s0,-48
 889 062c 97000000 		call	_Z13thread_createPP7_threadPFvPvES2_@plt
 889      E7800000 
 890              	.LVL111:
 119:test/Threads_C_API_test.cpp ****     printString("ThreadA created\n");
 891              		.loc 1 119 5 is_stmt 1
 892              		.loc 1 119 16 is_stmt 0
 893 0634 17050000 		lla	a0,.LC21
 893      13050500 
 894 063c 97000000 		call	_Z11printStringPKc@plt
 894      E7800000 
 895              	.LVL112:
 120:test/Threads_C_API_test.cpp **** 
 121:test/Threads_C_API_test.cpp ****     thread_create(&threads[1], workerBodyB, nullptr);
 896              		.loc 1 121 5 is_stmt 1
 897              		.loc 1 121 18 is_stmt 0
 898 0644 13060000 		li	a2,0
 899 0648 97050000 		lla	a1,_ZL11workerBodyBPv
 899      93850500 
 900 0650 130584FD 		addi	a0,s0,-40
 901 0654 97000000 		call	_Z13thread_createPP7_threadPFvPvES2_@plt
 901      E7800000 
 902              	.LVL113:
 122:test/Threads_C_API_test.cpp ****     printString("ThreadB created\n");
 903              		.loc 1 122 5 is_stmt 1
 904              		.loc 1 122 16 is_stmt 0
 905 065c 17050000 		lla	a0,.LC22
 905      13050500 
 906 0664 97000000 		call	_Z11printStringPKc@plt
 906      E7800000 
 907              	.LVL114:
 123:test/Threads_C_API_test.cpp **** 
 124:test/Threads_C_API_test.cpp ****     thread_create(&threads[2], workerBodyC, nullptr);
 908              		.loc 1 124 5 is_stmt 1
 909              		.loc 1 124 18 is_stmt 0
 910 066c 13060000 		li	a2,0
 911 0670 97050000 		lla	a1,_ZL11workerBodyCPv
 911      93850500 
 912 0678 130504FE 		addi	a0,s0,-32
 913 067c 97000000 		call	_Z13thread_createPP7_threadPFvPvES2_@plt
 913      E7800000 
 914              	.LVL115:
 125:test/Threads_C_API_test.cpp ****     printString("ThreadC created\n");
 915              		.loc 1 125 5 is_stmt 1
 916              		.loc 1 125 16 is_stmt 0
 917 0684 17050000 		lla	a0,.LC23
 917      13050500 
 918 068c 97000000 		call	_Z11printStringPKc@plt
 918      E7800000 
 919              	.LVL116:
 126:test/Threads_C_API_test.cpp **** 
GAS LISTING /tmp/ccN2Sb8W.s 			page 25


 127:test/Threads_C_API_test.cpp ****     thread_create(&threads[3], workerBodyD, nullptr);
 920              		.loc 1 127 5 is_stmt 1
 921              		.loc 1 127 18 is_stmt 0
 922 0694 13060000 		li	a2,0
 923 0698 97050000 		lla	a1,_ZL11workerBodyDPv
 923      93850500 
 924 06a0 130584FE 		addi	a0,s0,-24
 925 06a4 97000000 		call	_Z13thread_createPP7_threadPFvPvES2_@plt
 925      E7800000 
 926              	.LVL117:
 128:test/Threads_C_API_test.cpp ****     printString("ThreadD created\n");
 927              		.loc 1 128 5 is_stmt 1
 928              		.loc 1 128 16 is_stmt 0
 929 06ac 17050000 		lla	a0,.LC24
 929      13050500 
 930 06b4 97000000 		call	_Z11printStringPKc@plt
 930      E7800000 
 931              	.LVL118:
 932 06bc 6F00C000 		j	.L41
 933              	.L40:
 129:test/Threads_C_API_test.cpp **** 
 130:test/Threads_C_API_test.cpp ****     while (!(finishedA && finishedB && finishedC && finishedD)) {
 131:test/Threads_C_API_test.cpp ****         thread_dispatch();
 934              		.loc 1 131 9 is_stmt 1
 935              		.loc 1 131 24 is_stmt 0
 936 06c0 97000000 		call	_Z15thread_dispatchv@plt
 936      E7800000 
 937              	.LVL119:
 938              	.L41:
 130:test/Threads_C_API_test.cpp ****         thread_dispatch();
 939              		.loc 1 130 5 is_stmt 1
 130:test/Threads_C_API_test.cpp ****         thread_dispatch();
 940              		.loc 1 130 12
 130:test/Threads_C_API_test.cpp ****         thread_dispatch();
 941              		.loc 1 130 14 is_stmt 0
 942 06c8 97070000 		lbu	a5,.LANCHOR0+3
 942      83C70700 
 130:test/Threads_C_API_test.cpp ****         thread_dispatch();
 943              		.loc 1 130 12
 944 06d0 E38807FE 		beqz	a5,.L40
 130:test/Threads_C_API_test.cpp ****         thread_dispatch();
 945              		.loc 1 130 27 discriminator 2
 946 06d4 97070000 		lbu	a5,.LANCHOR0+2
 946      83C70700 
 130:test/Threads_C_API_test.cpp ****         thread_dispatch();
 947              		.loc 1 130 24 discriminator 2
 948 06dc E38207FE 		beqz	a5,.L40
 130:test/Threads_C_API_test.cpp ****         thread_dispatch();
 949              		.loc 1 130 40 discriminator 4
 950 06e0 97070000 		lbu	a5,.LANCHOR0+1
 950      83C70700 
 130:test/Threads_C_API_test.cpp ****         thread_dispatch();
 951              		.loc 1 130 37 discriminator 4
 952 06e8 E38C07FC 		beqz	a5,.L40
 130:test/Threads_C_API_test.cpp ****         thread_dispatch();
 953              		.loc 1 130 53 discriminator 6
 954 06ec 97070000 		lbu	a5,.LANCHOR0
GAS LISTING /tmp/ccN2Sb8W.s 			page 26


 954      83C70700 
 130:test/Threads_C_API_test.cpp ****         thread_dispatch();
 955              		.loc 1 130 12 discriminator 6
 956 06f4 E38607FC 		beqz	a5,.L40
 132:test/Threads_C_API_test.cpp ****     }
 133:test/Threads_C_API_test.cpp **** 
 134:test/Threads_C_API_test.cpp **** }
 957              		.loc 1 134 1
 958 06f8 83308102 		ld	ra,40(sp)
 959              		.cfi_restore 1
 960 06fc 03340102 		ld	s0,32(sp)
 961              		.cfi_restore 8
 962              		.cfi_def_cfa 2, 48
 963 0700 13010103 		addi	sp,sp,48
 964              		.cfi_def_cfa_offset 0
 965 0704 67800000 		jr	ra
 966              		.cfi_endproc
 967              	.LFE24:
 969              		.bss
 970              		.set	.LANCHOR0,. + 0
 973              	_ZL9finishedD:
 974 0000 00       		.zero	1
 977              	_ZL9finishedC:
 978 0001 00       		.zero	1
 981              	_ZL9finishedB:
 982 0002 00       		.zero	1
 985              	_ZL9finishedA:
 986 0003 00       		.zero	1
 987              		.text
 988              	.Letext0:
 989              		.file 3 "test/../h/../lib/hw.h"
 990              		.file 4 "test/../h/syscall_c.h"
 991              		.file 5 "test/../h/printing.hpp"
GAS LISTING /tmp/ccN2Sb8W.s 			page 27


DEFINED SYMBOLS
                            *ABS*:0000000000000000 Threads_C_API_test.cpp
     /tmp/ccN2Sb8W.s:8      .text:0000000000000000 _ZL9fibonaccim
     /tmp/ccN2Sb8W.s:12     .text:0000000000000000 .L0 
     /tmp/ccN2Sb8W.s:14     .text:0000000000000000 .L0 
     /tmp/ccN2Sb8W.s:15     .text:0000000000000004 .L0 
     /tmp/ccN2Sb8W.s:20     .text:0000000000000014 .L0 
     /tmp/ccN2Sb8W.s:21     .text:0000000000000014 .L0 
     /tmp/ccN2Sb8W.s:22     .text:0000000000000014 .L0 
     /tmp/ccN2Sb8W.s:23     .text:0000000000000014 .L0 
     /tmp/ccN2Sb8W.s:25     .text:0000000000000018 .L0 
     /tmp/ccN2Sb8W.s:28     .text:000000000000001c .L0 
     /tmp/ccN2Sb8W.s:31     .text:0000000000000024 .L0 
     /tmp/ccN2Sb8W.s:32     .text:0000000000000024 .L0 
     /tmp/ccN2Sb8W.s:35     .text:000000000000002c .L0 
     /tmp/ccN2Sb8W.s:39     .text:0000000000000030 .L0 
     /tmp/ccN2Sb8W.s:40     .text:0000000000000030 .L0 
     /tmp/ccN2Sb8W.s:45     .text:0000000000000040 .L0 
     /tmp/ccN2Sb8W.s:49     .text:000000000000004c .L0 
     /tmp/ccN2Sb8W.s:52     .text:0000000000000050 .L0 
     /tmp/ccN2Sb8W.s:53     .text:0000000000000054 .L0 
     /tmp/ccN2Sb8W.s:54     .text:0000000000000054 .L0 
     /tmp/ccN2Sb8W.s:56     .text:0000000000000058 .L0 
     /tmp/ccN2Sb8W.s:57     .text:0000000000000058 .L0 
     /tmp/ccN2Sb8W.s:59     .text:000000000000005c .L0 
     /tmp/ccN2Sb8W.s:62     .text:0000000000000060 .L0 
     /tmp/ccN2Sb8W.s:64     .text:0000000000000064 .L0 
     /tmp/ccN2Sb8W.s:68     .text:0000000000000068 .L0 
     /tmp/ccN2Sb8W.s:70     .text:0000000000000068 .L0 
     /tmp/ccN2Sb8W.s:71     .text:0000000000000068 .L0 
     /tmp/ccN2Sb8W.s:74     .text:0000000000000074 .L0 
     /tmp/ccN2Sb8W.s:105    .text:0000000000000074 _ZL11workerBodyDPv
     /tmp/ccN2Sb8W.s:108    .text:0000000000000074 .L0 
     /tmp/ccN2Sb8W.s:110    .text:0000000000000074 .L0 
     /tmp/ccN2Sb8W.s:111    .text:0000000000000078 .L0 
     /tmp/ccN2Sb8W.s:116    .text:0000000000000088 .L0 
     /tmp/ccN2Sb8W.s:117    .text:0000000000000088 .L0 
     /tmp/ccN2Sb8W.s:118    .text:0000000000000088 .L0 
     /tmp/ccN2Sb8W.s:119    .text:0000000000000088 .L0 
     /tmp/ccN2Sb8W.s:121    .text:000000000000008c .L0 
     /tmp/ccN2Sb8W.s:123    .text:000000000000008c .L0 
     /tmp/ccN2Sb8W.s:124    .text:000000000000008c .L0 
     /tmp/ccN2Sb8W.s:129    .text:000000000000009c .L0 
     /tmp/ccN2Sb8W.s:130    .text:000000000000009c .L0 
     /tmp/ccN2Sb8W.s:139    .text:00000000000000a8 .L0 
     /tmp/ccN2Sb8W.s:140    .text:00000000000000a8 .L0 
     /tmp/ccN2Sb8W.s:146    .text:00000000000000bc .L0 
     /tmp/ccN2Sb8W.s:147    .text:00000000000000bc .L0 
     /tmp/ccN2Sb8W.s:151    .text:00000000000000cc .L0 
     /tmp/ccN2Sb8W.s:152    .text:00000000000000cc .L0 
     /tmp/ccN2Sb8W.s:157    .text:00000000000000d4 .L0 
     /tmp/ccN2Sb8W.s:158    .text:00000000000000d4 .L0 
     /tmp/ccN2Sb8W.s:162    .text:00000000000000e4 .L0 
     /tmp/ccN2Sb8W.s:163    .text:00000000000000e4 .L0 
     /tmp/ccN2Sb8W.s:169    .text:00000000000000f8 .L0 
     /tmp/ccN2Sb8W.s:170    .text:00000000000000f8 .L0 
     /tmp/ccN2Sb8W.s:174    .text:0000000000000108 .L0 
GAS LISTING /tmp/ccN2Sb8W.s 			page 28


     /tmp/ccN2Sb8W.s:180    .text:0000000000000110 .L0 
     /tmp/ccN2Sb8W.s:181    .text:0000000000000110 .L0 
     /tmp/ccN2Sb8W.s:184    .text:0000000000000118 .L0 
     /tmp/ccN2Sb8W.s:185    .text:0000000000000118 .L0 
     /tmp/ccN2Sb8W.s:189    .text:0000000000000128 .L0 
test/Threads_C_API_test.cpp:97     .text:0000000000000128 .L0 
     /tmp/ccN2Sb8W.s:195    .text:000000000000012c .L0 
     /tmp/ccN2Sb8W.s:197    .text:000000000000012c .L0 
     /tmp/ccN2Sb8W.s:200    .text:0000000000000134 .L0 
     /tmp/ccN2Sb8W.s:201    .text:0000000000000134 .L0 
     /tmp/ccN2Sb8W.s:205    .text:0000000000000144 .L0 
     /tmp/ccN2Sb8W.s:206    .text:0000000000000144 .L0 
     /tmp/ccN2Sb8W.s:212    .text:0000000000000154 .L0 
     /tmp/ccN2Sb8W.s:213    .text:0000000000000154 .L0 
     /tmp/ccN2Sb8W.s:218    .text:0000000000000164 .L0 
     /tmp/ccN2Sb8W.s:219    .text:0000000000000164 .L0 
     /tmp/ccN2Sb8W.s:223    .text:0000000000000174 .L0 
     /tmp/ccN2Sb8W.s:224    .text:0000000000000174 .L0 
     /tmp/ccN2Sb8W.s:230    .text:0000000000000188 .L0 
     /tmp/ccN2Sb8W.s:231    .text:0000000000000188 .L0 
     /tmp/ccN2Sb8W.s:237    .text:000000000000019c .L0 
     /tmp/ccN2Sb8W.s:238    .text:000000000000019c .L0 
     /tmp/ccN2Sb8W.s:242    .text:00000000000001ac .L0 
     /tmp/ccN2Sb8W.s:243    .text:00000000000001ac .L0 
     /tmp/ccN2Sb8W.s:249    .text:00000000000001c0 .L0 
     /tmp/ccN2Sb8W.s:250    .text:00000000000001c0 .L0 
     /tmp/ccN2Sb8W.s:254    .text:00000000000001d0 .L0 
     /tmp/ccN2Sb8W.s:260    .text:00000000000001d8 .L0 
     /tmp/ccN2Sb8W.s:261    .text:00000000000001d8 .L0 
     /tmp/ccN2Sb8W.s:264    .text:00000000000001e0 .L0 
     /tmp/ccN2Sb8W.s:265    .text:00000000000001e0 .L0 
     /tmp/ccN2Sb8W.s:269    .text:00000000000001f0 .L0 
     /tmp/ccN2Sb8W.s:270    .text:00000000000001f0 .L0 
     /tmp/ccN2Sb8W.s:273    .text:00000000000001fc .L0 
     /tmp/ccN2Sb8W.s:274    .text:00000000000001fc .L0 
     /tmp/ccN2Sb8W.s:277    .text:0000000000000204 .L0 
     /tmp/ccN2Sb8W.s:278    .text:0000000000000208 .L0 
     /tmp/ccN2Sb8W.s:280    .text:000000000000020c .L0 
     /tmp/ccN2Sb8W.s:281    .text:000000000000020c .L0 
     /tmp/ccN2Sb8W.s:283    .text:0000000000000210 .L0 
     /tmp/ccN2Sb8W.s:286    .text:0000000000000214 .L0 
     /tmp/ccN2Sb8W.s:289    .text:0000000000000218 .L0 
     /tmp/ccN2Sb8W.s:291    .text:000000000000021c .L0 
     /tmp/ccN2Sb8W.s:319    .text:000000000000021c _ZL11workerBodyCPv
     /tmp/ccN2Sb8W.s:322    .text:000000000000021c .L0 
     /tmp/ccN2Sb8W.s:324    .text:000000000000021c .L0 
     /tmp/ccN2Sb8W.s:325    .text:0000000000000220 .L0 
     /tmp/ccN2Sb8W.s:330    .text:0000000000000230 .L0 
     /tmp/ccN2Sb8W.s:331    .text:0000000000000230 .L0 
     /tmp/ccN2Sb8W.s:332    .text:0000000000000230 .L0 
     /tmp/ccN2Sb8W.s:333    .text:0000000000000230 .L0 
     /tmp/ccN2Sb8W.s:335    .text:0000000000000234 .L0 
     /tmp/ccN2Sb8W.s:337    .text:0000000000000234 .L0 
     /tmp/ccN2Sb8W.s:338    .text:0000000000000234 .L0 
     /tmp/ccN2Sb8W.s:343    .text:0000000000000244 .L0 
     /tmp/ccN2Sb8W.s:344    .text:0000000000000244 .L0 
     /tmp/ccN2Sb8W.s:352    .text:0000000000000250 .L0 
GAS LISTING /tmp/ccN2Sb8W.s 			page 29


     /tmp/ccN2Sb8W.s:353    .text:0000000000000250 .L0 
     /tmp/ccN2Sb8W.s:359    .text:0000000000000264 .L0 
     /tmp/ccN2Sb8W.s:360    .text:0000000000000264 .L0 
     /tmp/ccN2Sb8W.s:364    .text:0000000000000274 .L0 
     /tmp/ccN2Sb8W.s:365    .text:0000000000000274 .L0 
     /tmp/ccN2Sb8W.s:370    .text:000000000000027c .L0 
     /tmp/ccN2Sb8W.s:371    .text:000000000000027c .L0 
     /tmp/ccN2Sb8W.s:375    .text:000000000000028c .L0 
     /tmp/ccN2Sb8W.s:376    .text:000000000000028c .L0 
     /tmp/ccN2Sb8W.s:382    .text:00000000000002a0 .L0 
     /tmp/ccN2Sb8W.s:383    .text:00000000000002a0 .L0 
     /tmp/ccN2Sb8W.s:387    .text:00000000000002b0 .L0 
     /tmp/ccN2Sb8W.s:393    .text:00000000000002b8 .L0 
     /tmp/ccN2Sb8W.s:394    .text:00000000000002b8 .L0 
     /tmp/ccN2Sb8W.s:397    .text:00000000000002c0 .L0 
     /tmp/ccN2Sb8W.s:398    .text:00000000000002c0 .L0 
     /tmp/ccN2Sb8W.s:402    .text:00000000000002d0 .L0 
test/Threads_C_API_test.cpp:66     .text:00000000000002d0 .L0 
     /tmp/ccN2Sb8W.s:408    .text:00000000000002d4 .L0 
     /tmp/ccN2Sb8W.s:410    .text:00000000000002d4 .L0 
     /tmp/ccN2Sb8W.s:413    .text:00000000000002dc .L0 
     /tmp/ccN2Sb8W.s:414    .text:00000000000002dc .L0 
test/Threads_C_API_test.cpp:70     .text:00000000000002dc .L0 
     /tmp/ccN2Sb8W.s:421    .text:00000000000002e0 .L0 
     /tmp/ccN2Sb8W.s:423    .text:00000000000002e0 .L0 
     /tmp/ccN2Sb8W.s:427    .text:00000000000002f0 .L0 
     /tmp/ccN2Sb8W.s:428    .text:00000000000002f0 .L0 
     /tmp/ccN2Sb8W.s:434    .text:0000000000000304 .L0 
     /tmp/ccN2Sb8W.s:435    .text:0000000000000304 .L0 
     /tmp/ccN2Sb8W.s:439    .text:0000000000000314 .L0 
     /tmp/ccN2Sb8W.s:440    .text:0000000000000314 .L0 
     /tmp/ccN2Sb8W.s:446    .text:0000000000000324 .L0 
     /tmp/ccN2Sb8W.s:447    .text:0000000000000324 .L0 
     /tmp/ccN2Sb8W.s:452    .text:0000000000000334 .L0 
     /tmp/ccN2Sb8W.s:453    .text:0000000000000334 .L0 
     /tmp/ccN2Sb8W.s:459    .text:0000000000000348 .L0 
     /tmp/ccN2Sb8W.s:460    .text:0000000000000348 .L0 
     /tmp/ccN2Sb8W.s:466    .text:000000000000035c .L0 
     /tmp/ccN2Sb8W.s:467    .text:000000000000035c .L0 
     /tmp/ccN2Sb8W.s:471    .text:000000000000036c .L0 
     /tmp/ccN2Sb8W.s:472    .text:000000000000036c .L0 
     /tmp/ccN2Sb8W.s:478    .text:0000000000000380 .L0 
     /tmp/ccN2Sb8W.s:479    .text:0000000000000380 .L0 
     /tmp/ccN2Sb8W.s:483    .text:0000000000000390 .L0 
     /tmp/ccN2Sb8W.s:489    .text:0000000000000398 .L0 
     /tmp/ccN2Sb8W.s:490    .text:0000000000000398 .L0 
     /tmp/ccN2Sb8W.s:493    .text:00000000000003a0 .L0 
     /tmp/ccN2Sb8W.s:494    .text:00000000000003a0 .L0 
     /tmp/ccN2Sb8W.s:498    .text:00000000000003b0 .L0 
     /tmp/ccN2Sb8W.s:499    .text:00000000000003b0 .L0 
     /tmp/ccN2Sb8W.s:502    .text:00000000000003bc .L0 
     /tmp/ccN2Sb8W.s:503    .text:00000000000003bc .L0 
     /tmp/ccN2Sb8W.s:506    .text:00000000000003c4 .L0 
     /tmp/ccN2Sb8W.s:507    .text:00000000000003c4 .L0 
     /tmp/ccN2Sb8W.s:511    .text:00000000000003d4 .L0 
     /tmp/ccN2Sb8W.s:512    .text:00000000000003d8 .L0 
     /tmp/ccN2Sb8W.s:514    .text:00000000000003dc .L0 
GAS LISTING /tmp/ccN2Sb8W.s 			page 30


     /tmp/ccN2Sb8W.s:515    .text:00000000000003dc .L0 
     /tmp/ccN2Sb8W.s:517    .text:00000000000003e0 .L0 
     /tmp/ccN2Sb8W.s:520    .text:00000000000003e4 .L0 
     /tmp/ccN2Sb8W.s:523    .text:00000000000003e8 .L0 
     /tmp/ccN2Sb8W.s:525    .text:00000000000003ec .L0 
     /tmp/ccN2Sb8W.s:541    .text:00000000000003ec _ZL11workerBodyBPv
     /tmp/ccN2Sb8W.s:544    .text:00000000000003ec .L0 
     /tmp/ccN2Sb8W.s:546    .text:00000000000003ec .L0 
     /tmp/ccN2Sb8W.s:547    .text:00000000000003f0 .L0 
     /tmp/ccN2Sb8W.s:552    .text:0000000000000400 .L0 
     /tmp/ccN2Sb8W.s:553    .text:0000000000000400 .L0 
     /tmp/ccN2Sb8W.s:554    .text:0000000000000400 .L0 
     /tmp/ccN2Sb8W.s:555    .text:0000000000000400 .L0 
     /tmp/ccN2Sb8W.s:557    .text:0000000000000404 .L0 
     /tmp/ccN2Sb8W.s:559    .text:0000000000000404 .L0 
     /tmp/ccN2Sb8W.s:560    .text:0000000000000404 .L0 
     /tmp/ccN2Sb8W.s:565    .text:0000000000000414 .L0 
     /tmp/ccN2Sb8W.s:566    .text:0000000000000414 .L0 
     /tmp/ccN2Sb8W.s:574    .text:0000000000000420 .L0 
     /tmp/ccN2Sb8W.s:575    .text:0000000000000420 .L0 
     /tmp/ccN2Sb8W.s:581    .text:0000000000000434 .L0 
     /tmp/ccN2Sb8W.s:582    .text:0000000000000434 .L0 
     /tmp/ccN2Sb8W.s:587    .text:0000000000000444 .L0 
     /tmp/ccN2Sb8W.s:588    .text:0000000000000444 .L0 
     /tmp/ccN2Sb8W.s:596    .text:000000000000044c .L0 
     /tmp/ccN2Sb8W.s:597    .text:000000000000044c .L0 
     /tmp/ccN2Sb8W.s:601    .text:0000000000000454 .L0 
     /tmp/ccN2Sb8W.s:605    .text:0000000000000458 .L0 
     /tmp/ccN2Sb8W.s:611    .text:0000000000000464 .L0 
     /tmp/ccN2Sb8W.s:615    .text:0000000000000468 .L0 
     /tmp/ccN2Sb8W.s:619    .text:0000000000000474 .L0 
     /tmp/ccN2Sb8W.s:629    .text:000000000000047c .L0 
     /tmp/ccN2Sb8W.s:633    .text:0000000000000480 .L0 
     /tmp/ccN2Sb8W.s:637    .text:0000000000000488 .L0 
     /tmp/ccN2Sb8W.s:638    .text:0000000000000488 .L0 
     /tmp/ccN2Sb8W.s:642    .text:0000000000000498 .L0 
     /tmp/ccN2Sb8W.s:643    .text:0000000000000498 .L0 
     /tmp/ccN2Sb8W.s:649    .text:00000000000004ac .L0 
     /tmp/ccN2Sb8W.s:650    .text:00000000000004ac .L0 
     /tmp/ccN2Sb8W.s:655    .text:00000000000004bc .L0 
     /tmp/ccN2Sb8W.s:656    .text:00000000000004bc .L0 
     /tmp/ccN2Sb8W.s:664    .text:00000000000004c4 .L0 
     /tmp/ccN2Sb8W.s:665    .text:00000000000004c4 .L0 
     /tmp/ccN2Sb8W.s:669    .text:00000000000004d4 .L0 
     /tmp/ccN2Sb8W.s:670    .text:00000000000004d4 .L0 
     /tmp/ccN2Sb8W.s:673    .text:00000000000004e0 .L0 
     /tmp/ccN2Sb8W.s:674    .text:00000000000004e0 .L0 
     /tmp/ccN2Sb8W.s:677    .text:00000000000004e8 .L0 
     /tmp/ccN2Sb8W.s:678    .text:00000000000004ec .L0 
     /tmp/ccN2Sb8W.s:680    .text:00000000000004f0 .L0 
     /tmp/ccN2Sb8W.s:681    .text:00000000000004f0 .L0 
     /tmp/ccN2Sb8W.s:683    .text:00000000000004f4 .L0 
     /tmp/ccN2Sb8W.s:685    .text:00000000000004f8 .L0 
     /tmp/ccN2Sb8W.s:688    .text:00000000000004fc .L0 
     /tmp/ccN2Sb8W.s:690    .text:0000000000000500 .L0 
     /tmp/ccN2Sb8W.s:706    .text:0000000000000500 _ZL11workerBodyAPv
     /tmp/ccN2Sb8W.s:709    .text:0000000000000500 .L0 
GAS LISTING /tmp/ccN2Sb8W.s 			page 31


     /tmp/ccN2Sb8W.s:711    .text:0000000000000500 .L0 
     /tmp/ccN2Sb8W.s:712    .text:0000000000000504 .L0 
     /tmp/ccN2Sb8W.s:717    .text:0000000000000514 .L0 
     /tmp/ccN2Sb8W.s:718    .text:0000000000000514 .L0 
     /tmp/ccN2Sb8W.s:719    .text:0000000000000514 .L0 
     /tmp/ccN2Sb8W.s:720    .text:0000000000000514 .L0 
     /tmp/ccN2Sb8W.s:722    .text:0000000000000518 .L0 
     /tmp/ccN2Sb8W.s:724    .text:0000000000000518 .L0 
     /tmp/ccN2Sb8W.s:725    .text:0000000000000518 .L0 
     /tmp/ccN2Sb8W.s:730    .text:0000000000000528 .L0 
     /tmp/ccN2Sb8W.s:731    .text:0000000000000528 .L0 
     /tmp/ccN2Sb8W.s:739    .text:0000000000000534 .L0 
     /tmp/ccN2Sb8W.s:740    .text:0000000000000534 .L0 
     /tmp/ccN2Sb8W.s:746    .text:0000000000000548 .L0 
     /tmp/ccN2Sb8W.s:747    .text:0000000000000548 .L0 
     /tmp/ccN2Sb8W.s:752    .text:0000000000000558 .L0 
     /tmp/ccN2Sb8W.s:753    .text:0000000000000558 .L0 
     /tmp/ccN2Sb8W.s:761    .text:0000000000000560 .L0 
     /tmp/ccN2Sb8W.s:762    .text:0000000000000560 .L0 
     /tmp/ccN2Sb8W.s:766    .text:0000000000000568 .L0 
     /tmp/ccN2Sb8W.s:770    .text:000000000000056c .L0 
     /tmp/ccN2Sb8W.s:776    .text:0000000000000578 .L0 
     /tmp/ccN2Sb8W.s:780    .text:000000000000057c .L0 
     /tmp/ccN2Sb8W.s:784    .text:0000000000000588 .L0 
     /tmp/ccN2Sb8W.s:794    .text:0000000000000590 .L0 
     /tmp/ccN2Sb8W.s:798    .text:0000000000000594 .L0 
     /tmp/ccN2Sb8W.s:802    .text:000000000000059c .L0 
     /tmp/ccN2Sb8W.s:803    .text:000000000000059c .L0 
     /tmp/ccN2Sb8W.s:807    .text:00000000000005ac .L0 
     /tmp/ccN2Sb8W.s:808    .text:00000000000005ac .L0 
     /tmp/ccN2Sb8W.s:814    .text:00000000000005c0 .L0 
     /tmp/ccN2Sb8W.s:815    .text:00000000000005c0 .L0 
     /tmp/ccN2Sb8W.s:820    .text:00000000000005d0 .L0 
     /tmp/ccN2Sb8W.s:821    .text:00000000000005d0 .L0 
     /tmp/ccN2Sb8W.s:829    .text:00000000000005d8 .L0 
     /tmp/ccN2Sb8W.s:830    .text:00000000000005d8 .L0 
     /tmp/ccN2Sb8W.s:834    .text:00000000000005e8 .L0 
     /tmp/ccN2Sb8W.s:835    .text:00000000000005e8 .L0 
     /tmp/ccN2Sb8W.s:838    .text:00000000000005f4 .L0 
     /tmp/ccN2Sb8W.s:839    .text:00000000000005f8 .L0 
     /tmp/ccN2Sb8W.s:841    .text:00000000000005fc .L0 
     /tmp/ccN2Sb8W.s:842    .text:00000000000005fc .L0 
     /tmp/ccN2Sb8W.s:844    .text:0000000000000600 .L0 
     /tmp/ccN2Sb8W.s:846    .text:0000000000000604 .L0 
     /tmp/ccN2Sb8W.s:849    .text:0000000000000608 .L0 
     /tmp/ccN2Sb8W.s:851    .text:000000000000060c .L0 
     /tmp/ccN2Sb8W.s:871    .text:000000000000060c _Z18Threads_C_API_testv
     /tmp/ccN2Sb8W.s:874    .text:000000000000060c .L0 
     /tmp/ccN2Sb8W.s:875    .text:000000000000060c .L0 
     /tmp/ccN2Sb8W.s:876    .text:0000000000000610 .L0 
     /tmp/ccN2Sb8W.s:879    .text:0000000000000618 .L0 
     /tmp/ccN2Sb8W.s:880    .text:0000000000000618 .L0 
     /tmp/ccN2Sb8W.s:882    .text:000000000000061c .L0 
     /tmp/ccN2Sb8W.s:884    .text:000000000000061c .L0 
     /tmp/ccN2Sb8W.s:885    .text:000000000000061c .L0 
     /tmp/ccN2Sb8W.s:886    .text:000000000000061c .L0 
     /tmp/ccN2Sb8W.s:892    .text:0000000000000634 .L0 
GAS LISTING /tmp/ccN2Sb8W.s 			page 32


     /tmp/ccN2Sb8W.s:893    .text:0000000000000634 .L0 
     /tmp/ccN2Sb8W.s:897    .text:0000000000000644 .L0 
     /tmp/ccN2Sb8W.s:898    .text:0000000000000644 .L0 
     /tmp/ccN2Sb8W.s:904    .text:000000000000065c .L0 
     /tmp/ccN2Sb8W.s:905    .text:000000000000065c .L0 
     /tmp/ccN2Sb8W.s:909    .text:000000000000066c .L0 
     /tmp/ccN2Sb8W.s:910    .text:000000000000066c .L0 
     /tmp/ccN2Sb8W.s:916    .text:0000000000000684 .L0 
     /tmp/ccN2Sb8W.s:917    .text:0000000000000684 .L0 
     /tmp/ccN2Sb8W.s:921    .text:0000000000000694 .L0 
     /tmp/ccN2Sb8W.s:922    .text:0000000000000694 .L0 
     /tmp/ccN2Sb8W.s:928    .text:00000000000006ac .L0 
     /tmp/ccN2Sb8W.s:929    .text:00000000000006ac .L0 
     /tmp/ccN2Sb8W.s:935    .text:00000000000006c0 .L0 
     /tmp/ccN2Sb8W.s:936    .text:00000000000006c0 .L0 
     /tmp/ccN2Sb8W.s:940    .text:00000000000006c8 .L0 
     /tmp/ccN2Sb8W.s:941    .text:00000000000006c8 .L0 
     /tmp/ccN2Sb8W.s:942    .text:00000000000006c8 .L0 
     /tmp/ccN2Sb8W.s:944    .text:00000000000006d0 .L0 
     /tmp/ccN2Sb8W.s:946    .text:00000000000006d4 .L0 
     /tmp/ccN2Sb8W.s:948    .text:00000000000006dc .L0 
     /tmp/ccN2Sb8W.s:950    .text:00000000000006e0 .L0 
     /tmp/ccN2Sb8W.s:952    .text:00000000000006e8 .L0 
     /tmp/ccN2Sb8W.s:954    .text:00000000000006ec .L0 
     /tmp/ccN2Sb8W.s:956    .text:00000000000006f4 .L0 
     /tmp/ccN2Sb8W.s:958    .text:00000000000006f8 .L0 
     /tmp/ccN2Sb8W.s:959    .text:00000000000006fc .L0 
     /tmp/ccN2Sb8W.s:961    .text:0000000000000700 .L0 
     /tmp/ccN2Sb8W.s:962    .text:0000000000000700 .L0 
     /tmp/ccN2Sb8W.s:964    .text:0000000000000704 .L0 
     /tmp/ccN2Sb8W.s:966    .text:0000000000000708 .L0 
     /tmp/ccN2Sb8W.s:970    .bss:0000000000000000 .LANCHOR0
     /tmp/ccN2Sb8W.s:973    .bss:0000000000000000 _ZL9finishedD
     /tmp/ccN2Sb8W.s:977    .bss:0000000000000001 _ZL9finishedC
     /tmp/ccN2Sb8W.s:981    .bss:0000000000000002 _ZL9finishedB
     /tmp/ccN2Sb8W.s:985    .bss:0000000000000003 _ZL9finishedA
     /tmp/ccN2Sb8W.s:992    .text:0000000000000708 .L0 
     /tmp/ccN2Sb8W.s:79     .rodata.str1.8:0000000000000000 .LC0
     /tmp/ccN2Sb8W.s:124    .text:000000000000008c .L0 
     /tmp/ccN2Sb8W.s:130    .text:000000000000009c .L0 
     /tmp/ccN2Sb8W.s:82     .rodata.str1.8:0000000000000008 .LC1
     /tmp/ccN2Sb8W.s:147    .text:00000000000000bc .L0 
     /tmp/ccN2Sb8W.s:85     .rodata.str1.8:0000000000000010 .LC2
     /tmp/ccN2Sb8W.s:158    .text:00000000000000d4 .L0 
     /tmp/ccN2Sb8W.s:170    .text:00000000000000f8 .L0 
     /tmp/ccN2Sb8W.s:88     .rodata.str1.8:0000000000000018 .LC3
     /tmp/ccN2Sb8W.s:185    .text:0000000000000118 .L0 
     /tmp/ccN2Sb8W.s:91     .rodata.str1.8:0000000000000028 .LC4
     /tmp/ccN2Sb8W.s:201    .text:0000000000000134 .L0 
     /tmp/ccN2Sb8W.s:94     .rodata.str1.8:0000000000000038 .LC5
     /tmp/ccN2Sb8W.s:213    .text:0000000000000154 .L0 
     /tmp/ccN2Sb8W.s:97     .rodata.str1.8:0000000000000048 .LC6
     /tmp/ccN2Sb8W.s:219    .text:0000000000000164 .L0 
     /tmp/ccN2Sb8W.s:231    .text:0000000000000188 .L0 
     /tmp/ccN2Sb8W.s:238    .text:000000000000019c .L0 
     /tmp/ccN2Sb8W.s:250    .text:00000000000001c0 .L0 
     /tmp/ccN2Sb8W.s:100    .rodata.str1.8:0000000000000058 .LC7
GAS LISTING /tmp/ccN2Sb8W.s 			page 33


     /tmp/ccN2Sb8W.s:265    .text:00000000000001e0 .L0 
     /tmp/ccN2Sb8W.s:271    .text:00000000000001f4 .L0 
     /tmp/ccN2Sb8W.s:296    .rodata.str1.8:0000000000000068 .LC8
     /tmp/ccN2Sb8W.s:338    .text:0000000000000234 .L0 
     /tmp/ccN2Sb8W.s:344    .text:0000000000000244 .L0 
     /tmp/ccN2Sb8W.s:360    .text:0000000000000264 .L0 
     /tmp/ccN2Sb8W.s:299    .rodata.str1.8:0000000000000070 .LC9
     /tmp/ccN2Sb8W.s:371    .text:000000000000027c .L0 
     /tmp/ccN2Sb8W.s:383    .text:00000000000002a0 .L0 
     /tmp/ccN2Sb8W.s:302    .rodata.str1.8:0000000000000078 .LC10
     /tmp/ccN2Sb8W.s:398    .text:00000000000002c0 .L0 
     /tmp/ccN2Sb8W.s:305    .rodata.str1.8:0000000000000088 .LC11
     /tmp/ccN2Sb8W.s:423    .text:00000000000002e0 .L0 
     /tmp/ccN2Sb8W.s:435    .text:0000000000000304 .L0 
     /tmp/ccN2Sb8W.s:308    .rodata.str1.8:0000000000000090 .LC12
     /tmp/ccN2Sb8W.s:447    .text:0000000000000324 .L0 
     /tmp/ccN2Sb8W.s:460    .text:0000000000000348 .L0 
     /tmp/ccN2Sb8W.s:467    .text:000000000000035c .L0 
     /tmp/ccN2Sb8W.s:479    .text:0000000000000380 .L0 
     /tmp/ccN2Sb8W.s:311    .rodata.str1.8:00000000000000a0 .LC13
     /tmp/ccN2Sb8W.s:494    .text:00000000000003a0 .L0 
     /tmp/ccN2Sb8W.s:500    .text:00000000000003b4 .L0 
     /tmp/ccN2Sb8W.s:314    .rodata.str1.8:00000000000000b0 .LC14
     /tmp/ccN2Sb8W.s:507    .text:00000000000003c4 .L0 
     /tmp/ccN2Sb8W.s:530    .rodata.str1.8:00000000000000c8 .LC15
     /tmp/ccN2Sb8W.s:560    .text:0000000000000404 .L0 
     /tmp/ccN2Sb8W.s:566    .text:0000000000000414 .L0 
     /tmp/ccN2Sb8W.s:582    .text:0000000000000434 .L0 
     /tmp/ccN2Sb8W.s:533    .rodata.str1.8:00000000000000d0 .LC16
     /tmp/ccN2Sb8W.s:638    .text:0000000000000488 .L0 
     /tmp/ccN2Sb8W.s:650    .text:00000000000004ac .L0 
     /tmp/ccN2Sb8W.s:536    .rodata.str1.8:00000000000000d8 .LC17
     /tmp/ccN2Sb8W.s:665    .text:00000000000004c4 .L0 
     /tmp/ccN2Sb8W.s:671    .text:00000000000004d8 .L0 
     /tmp/ccN2Sb8W.s:695    .rodata.str1.8:00000000000000e8 .LC18
     /tmp/ccN2Sb8W.s:725    .text:0000000000000518 .L0 
     /tmp/ccN2Sb8W.s:731    .text:0000000000000528 .L0 
     /tmp/ccN2Sb8W.s:747    .text:0000000000000548 .L0 
     /tmp/ccN2Sb8W.s:698    .rodata.str1.8:00000000000000f0 .LC19
     /tmp/ccN2Sb8W.s:803    .text:000000000000059c .L0 
     /tmp/ccN2Sb8W.s:815    .text:00000000000005c0 .L0 
     /tmp/ccN2Sb8W.s:701    .rodata.str1.8:00000000000000f8 .LC20
     /tmp/ccN2Sb8W.s:830    .text:00000000000005d8 .L0 
     /tmp/ccN2Sb8W.s:836    .text:00000000000005ec .L0 
     /tmp/ccN2Sb8W.s:887    .text:0000000000000620 .L0 
     /tmp/ccN2Sb8W.s:856    .rodata.str1.8:0000000000000108 .LC21
     /tmp/ccN2Sb8W.s:893    .text:0000000000000634 .L0 
     /tmp/ccN2Sb8W.s:899    .text:0000000000000648 .L0 
     /tmp/ccN2Sb8W.s:859    .rodata.str1.8:0000000000000120 .LC22
     /tmp/ccN2Sb8W.s:905    .text:000000000000065c .L0 
     /tmp/ccN2Sb8W.s:911    .text:0000000000000670 .L0 
     /tmp/ccN2Sb8W.s:862    .rodata.str1.8:0000000000000138 .LC23
     /tmp/ccN2Sb8W.s:917    .text:0000000000000684 .L0 
     /tmp/ccN2Sb8W.s:923    .text:0000000000000698 .L0 
     /tmp/ccN2Sb8W.s:865    .rodata.str1.8:0000000000000150 .LC24
     /tmp/ccN2Sb8W.s:929    .text:00000000000006ac .L0 
     /tmp/ccN2Sb8W.s:942    .text:00000000000006c8 .L0 
GAS LISTING /tmp/ccN2Sb8W.s 			page 34


     /tmp/ccN2Sb8W.s:946    .text:00000000000006d4 .L0 
     /tmp/ccN2Sb8W.s:950    .text:00000000000006e0 .L0 
     /tmp/ccN2Sb8W.s:954    .text:00000000000006ec .L0 
     /tmp/ccN2Sb8W.s:50     .text:0000000000000050 .L1
     /tmp/ccN2Sb8W.s:67     .text:0000000000000068 .L6
     /tmp/ccN2Sb8W.s:37     .text:0000000000000030 .L3
     /tmp/ccN2Sb8W.s:178    .text:0000000000000110 .L9
     /tmp/ccN2Sb8W.s:155    .text:00000000000000d4 .L13
     /tmp/ccN2Sb8W.s:258    .text:00000000000001d8 .L11
     /tmp/ccN2Sb8W.s:235    .text:000000000000019c .L14
     /tmp/ccN2Sb8W.s:391    .text:00000000000002b8 .L17
     /tmp/ccN2Sb8W.s:368    .text:000000000000027c .L21
     /tmp/ccN2Sb8W.s:487    .text:0000000000000398 .L19
     /tmp/ccN2Sb8W.s:464    .text:000000000000035c .L22
     /tmp/ccN2Sb8W.s:631    .text:0000000000000480 .L29
     /tmp/ccN2Sb8W.s:623    .text:000000000000047c .L25
     /tmp/ccN2Sb8W.s:591    .text:000000000000044c .L26
     /tmp/ccN2Sb8W.s:612    .text:0000000000000468 .L27
     /tmp/ccN2Sb8W.s:659    .text:00000000000004c4 .L24
     /tmp/ccN2Sb8W.s:603    .text:0000000000000458 .L28
     /tmp/ccN2Sb8W.s:796    .text:0000000000000594 .L37
     /tmp/ccN2Sb8W.s:788    .text:0000000000000590 .L33
     /tmp/ccN2Sb8W.s:756    .text:0000000000000560 .L34
     /tmp/ccN2Sb8W.s:777    .text:000000000000057c .L35
     /tmp/ccN2Sb8W.s:824    .text:00000000000005d8 .L32
     /tmp/ccN2Sb8W.s:768    .text:000000000000056c .L36
     /tmp/ccN2Sb8W.s:938    .text:00000000000006c8 .L41
     /tmp/ccN2Sb8W.s:933    .text:00000000000006c0 .L40
     /tmp/ccN2Sb8W.s:2646   .debug_abbrev:0000000000000000 .Ldebug_abbrev0
     /tmp/ccN2Sb8W.s:3862   .debug_str:00000000000003fb .LASF71
     /tmp/ccN2Sb8W.s:3782   .debug_str:00000000000001ce .LASF72
     /tmp/ccN2Sb8W.s:3864   .debug_str:00000000000004bf .LASF73
     /tmp/ccN2Sb8W.s:5      .text:0000000000000000 .Ltext0
     /tmp/ccN2Sb8W.s:988    .text:0000000000000708 .Letext0
     /tmp/ccN2Sb8W.s:3720   .debug_line:0000000000000000 .Ldebug_line0
     /tmp/ccN2Sb8W.s:3820   .debug_str:00000000000002f4 .LASF0
     /tmp/ccN2Sb8W.s:3830   .debug_str:000000000000031b .LASF1
     /tmp/ccN2Sb8W.s:3810   .debug_str:00000000000002a6 .LASF2
     /tmp/ccN2Sb8W.s:3764   .debug_str:0000000000000137 .LASF3
     /tmp/ccN2Sb8W.s:3788   .debug_str:00000000000001fc .LASF4
     /tmp/ccN2Sb8W.s:3854   .debug_str:00000000000003b9 .LASF5
     /tmp/ccN2Sb8W.s:3742   .debug_str:0000000000000087 .LASF6
     /tmp/ccN2Sb8W.s:3834   .debug_str:000000000000033d .LASF7
     /tmp/ccN2Sb8W.s:3818   .debug_str:00000000000002e1 .LASF8
     /tmp/ccN2Sb8W.s:3870   .debug_str:00000000000004f1 .LASF9
     /tmp/ccN2Sb8W.s:3778   .debug_str:00000000000001a3 .LASF10
     /tmp/ccN2Sb8W.s:3842   .debug_str:000000000000037a .LASF11
     /tmp/ccN2Sb8W.s:3836   .debug_str:0000000000000350 .LASF12
     /tmp/ccN2Sb8W.s:3744   .debug_str:000000000000008e .LASF13
     /tmp/ccN2Sb8W.s:3730   .debug_str:0000000000000028 .LASF14
     /tmp/ccN2Sb8W.s:3748   .debug_str:00000000000000b4 .LASF15
     /tmp/ccN2Sb8W.s:3850   .debug_str:000000000000039d .LASF16
     /tmp/ccN2Sb8W.s:3758   .debug_str:00000000000000fb .LASF17
     /tmp/ccN2Sb8W.s:3722   .debug_str:0000000000000000 .LASF18
     /tmp/ccN2Sb8W.s:3784   .debug_str:00000000000001ea .LASF44
     /tmp/ccN2Sb8W.s:3736   .debug_str:0000000000000048 .LASF74
     /tmp/ccN2Sb8W.s:3856   .debug_str:00000000000003cb .LASF75
GAS LISTING /tmp/ccN2Sb8W.s 			page 35


     /tmp/ccN2Sb8W.s:3746   .debug_str:000000000000009e .LASF76
     /tmp/ccN2Sb8W.s:3828   .debug_str:0000000000000315 .LASF19
     /tmp/ccN2Sb8W.s:3756   .debug_str:00000000000000e7 .LASF21
     /tmp/ccN2Sb8W.s:3882   .debug_str:0000000000000555 .LASF23
     /tmp/ccN2Sb8W.s:3814   .debug_str:00000000000002c0 .LASF25
     /tmp/ccN2Sb8W.s:3732   .debug_str:0000000000000038 .LASF20
     /tmp/ccN2Sb8W.s:3884   .debug_str:000000000000055c .LASF22
     /tmp/ccN2Sb8W.s:3824   .debug_str:0000000000000306 .LASF35
     /tmp/ccN2Sb8W.s:3858   .debug_str:00000000000003d0 .LASF37
     /tmp/ccN2Sb8W.s:3868   .debug_str:00000000000004e8 .LASF24
     /tmp/ccN2Sb8W.s:3840   .debug_str:000000000000036a .LASF26
     /tmp/ccN2Sb8W.s:3838   .debug_str:000000000000035f .LASF27
     /tmp/ccN2Sb8W.s:3808   .debug_str:000000000000028b .LASF28
     /tmp/ccN2Sb8W.s:3812   .debug_str:00000000000002b4 .LASF29
     /tmp/ccN2Sb8W.s:3806   .debug_str:0000000000000270 .LASF30
     /tmp/ccN2Sb8W.s:3878   .debug_str:000000000000053a .LASF31
     /tmp/ccN2Sb8W.s:3774   .debug_str:0000000000000168 .LASF32
     /tmp/ccN2Sb8W.s:3848   .debug_str:0000000000000398 .LASF77
     /tmp/ccN2Sb8W.s:3776   .debug_str:000000000000018f .LASF33
     /tmp/ccN2Sb8W.s:3738   .debug_str:0000000000000050 .LASF34
     /tmp/ccN2Sb8W.s:3852   .debug_str:00000000000003b3 .LASF36
     /tmp/ccN2Sb8W.s:3860   .debug_str:00000000000003e7 .LASF38
     /tmp/ccN2Sb8W.s:3880   .debug_str:000000000000054a .LASF39
     /tmp/ccN2Sb8W.s:3822   .debug_str:0000000000000301 .LASF40
     /tmp/ccN2Sb8W.s:3766   .debug_str:000000000000013d .LASF78
     /tmp/ccN2Sb8W.s:3892   .debug_str:00000000000005b4 .LASF41
     /tmp/ccN2Sb8W.s:3750   .debug_str:00000000000000c0 .LASF42
     /tmp/ccN2Sb8W.s:3876   .debug_str:0000000000000523 .LASF43
     /tmp/ccN2Sb8W.s:3874   .debug_str:000000000000050b .LASF45
     /tmp/ccN2Sb8W.s:3794   .debug_str:0000000000000216 .LASF46
     /tmp/ccN2Sb8W.s:3826   .debug_str:000000000000030f .LASF47
     /tmp/ccN2Sb8W.s:3796   .debug_str:000000000000021b .LASF48
     /tmp/ccN2Sb8W.s:3792   .debug_str:000000000000020d .LASF49
     /tmp/ccN2Sb8W.s:3800   .debug_str:000000000000022e .LASF79
     /tmp/ccN2Sb8W.s:3780   .debug_str:00000000000001b1 .LASF80
     /tmp/ccN2Sb8W.s:3754   .debug_str:00000000000000d9 .LASF81
     /tmp/ccN2Sb8W.s:3804   .debug_str:0000000000000244 .LASF82
     /tmp/ccN2Sb8W.s:3798   .debug_str:0000000000000223 .LASF83
     /tmp/ccN2Sb8W.s:3768   .debug_str:0000000000000145 .LASF50
     /tmp/ccN2Sb8W.s:3844   .debug_str:0000000000000389 .LASF51
     /tmp/ccN2Sb8W.s:3786   .debug_str:00000000000001f2 .LASF52
     /tmp/ccN2Sb8W.s:3734   .debug_str:000000000000003e .LASF53
     /tmp/ccN2Sb8W.s:3790   .debug_str:0000000000000203 .LASF54
     /tmp/ccN2Sb8W.s:3866   .debug_str:00000000000004d5 .LASF55
     /tmp/ccN2Sb8W.s:3762   .debug_str:000000000000011f .LASF56
     /tmp/ccN2Sb8W.s:872    .text:000000000000060c .LFB24
     /tmp/ccN2Sb8W.s:967    .text:0000000000000708 .LFE24
     /tmp/ccN2Sb8W.s:3802   .debug_str:000000000000023c .LASF57
     /tmp/ccN2Sb8W.s:890    .text:0000000000000634 .LVL111
     /tmp/ccN2Sb8W.s:895    .text:0000000000000644 .LVL112
     /tmp/ccN2Sb8W.s:902    .text:000000000000065c .LVL113
     /tmp/ccN2Sb8W.s:907    .text:000000000000066c .LVL114
     /tmp/ccN2Sb8W.s:914    .text:0000000000000684 .LVL115
     /tmp/ccN2Sb8W.s:919    .text:0000000000000694 .LVL116
     /tmp/ccN2Sb8W.s:926    .text:00000000000006ac .LVL117
     /tmp/ccN2Sb8W.s:931    .text:00000000000006bc .LVL118
     /tmp/ccN2Sb8W.s:937    .text:00000000000006c8 .LVL119
GAS LISTING /tmp/ccN2Sb8W.s 			page 36


     /tmp/ccN2Sb8W.s:3740   .debug_str:000000000000007b .LASF59
     /tmp/ccN2Sb8W.s:106    .text:0000000000000074 .LFB23
     /tmp/ccN2Sb8W.s:292    .text:000000000000021c .LFE23
     /tmp/ccN2Sb8W.s:3475   .debug_loc:0000000000000000 .LLST1
     /tmp/ccN2Sb8W.s:3489   .debug_loc:0000000000000039 .LLST2
     /tmp/ccN2Sb8W.s:3724   .debug_str:0000000000000009 .LASF58
     /tmp/ccN2Sb8W.s:3509   .debug_loc:0000000000000096 .LLST3
     /tmp/ccN2Sb8W.s:133    .text:00000000000000a8 .LBB20
     /tmp/ccN2Sb8W.s:138    .text:00000000000000a8 .LBE20
     /tmp/ccN2Sb8W.s:127    .text:000000000000009c .LVL9
     /tmp/ccN2Sb8W.s:144    .text:00000000000000bc .LVL11
     /tmp/ccN2Sb8W.s:149    .text:00000000000000cc .LVL12
     /tmp/ccN2Sb8W.s:160    .text:00000000000000e4 .LVL14
     /tmp/ccN2Sb8W.s:167    .text:00000000000000f8 .LVL15
     /tmp/ccN2Sb8W.s:172    .text:0000000000000108 .LVL16
     /tmp/ccN2Sb8W.s:187    .text:0000000000000128 .LVL19
     /tmp/ccN2Sb8W.s:198    .text:0000000000000134 .LVL20
     /tmp/ccN2Sb8W.s:203    .text:0000000000000144 .LVL21
     /tmp/ccN2Sb8W.s:208    .text:0000000000000150 .LVL22
     /tmp/ccN2Sb8W.s:216    .text:0000000000000164 .LVL25
     /tmp/ccN2Sb8W.s:221    .text:0000000000000174 .LVL26
     /tmp/ccN2Sb8W.s:228    .text:0000000000000188 .LVL27
     /tmp/ccN2Sb8W.s:233    .text:0000000000000198 .LVL28
     /tmp/ccN2Sb8W.s:240    .text:00000000000001ac .LVL29
     /tmp/ccN2Sb8W.s:247    .text:00000000000001c0 .LVL30
     /tmp/ccN2Sb8W.s:252    .text:00000000000001d0 .LVL31
     /tmp/ccN2Sb8W.s:267    .text:00000000000001f0 .LVL34
     /tmp/ccN2Sb8W.s:275    .text:0000000000000204 .LVL35
     /tmp/ccN2Sb8W.s:3728   .debug_str:000000000000001c .LASF60
     /tmp/ccN2Sb8W.s:320    .text:000000000000021c .LFB22
     /tmp/ccN2Sb8W.s:526    .text:00000000000003ec .LFE22
     /tmp/ccN2Sb8W.s:3520   .debug_loc:00000000000000cc .LLST4
     /tmp/ccN2Sb8W.s:3534   .debug_loc:0000000000000105 .LLST5
     /tmp/ccN2Sb8W.s:3554   .debug_loc:0000000000000162 .LLST6
     /tmp/ccN2Sb8W.s:3562   .debug_loc:0000000000000186 .LLST7
     /tmp/ccN2Sb8W.s:347    .text:0000000000000250 .LBB22
     /tmp/ccN2Sb8W.s:351    .text:0000000000000250 .LBE22
     /tmp/ccN2Sb8W.s:341    .text:0000000000000244 .LVL40
     /tmp/ccN2Sb8W.s:357    .text:0000000000000264 .LVL42
     /tmp/ccN2Sb8W.s:362    .text:0000000000000274 .LVL43
     /tmp/ccN2Sb8W.s:373    .text:000000000000028c .LVL45
     /tmp/ccN2Sb8W.s:380    .text:00000000000002a0 .LVL46
     /tmp/ccN2Sb8W.s:385    .text:00000000000002b0 .LVL47
     /tmp/ccN2Sb8W.s:400    .text:00000000000002d0 .LVL50
     /tmp/ccN2Sb8W.s:411    .text:00000000000002dc .LVL51
     /tmp/ccN2Sb8W.s:425    .text:00000000000002f0 .LVL53
     /tmp/ccN2Sb8W.s:432    .text:0000000000000304 .LVL54
     /tmp/ccN2Sb8W.s:437    .text:0000000000000314 .LVL55
     /tmp/ccN2Sb8W.s:442    .text:0000000000000320 .LVL56
     /tmp/ccN2Sb8W.s:450    .text:0000000000000334 .LVL59
     /tmp/ccN2Sb8W.s:457    .text:0000000000000348 .LVL60
     /tmp/ccN2Sb8W.s:462    .text:0000000000000358 .LVL61
     /tmp/ccN2Sb8W.s:469    .text:000000000000036c .LVL62
     /tmp/ccN2Sb8W.s:476    .text:0000000000000380 .LVL63
     /tmp/ccN2Sb8W.s:481    .text:0000000000000390 .LVL64
     /tmp/ccN2Sb8W.s:496    .text:00000000000003b0 .LVL67
     /tmp/ccN2Sb8W.s:504    .text:00000000000003c4 .LVL68
GAS LISTING /tmp/ccN2Sb8W.s 			page 37


     /tmp/ccN2Sb8W.s:509    .text:00000000000003d4 .LVL69
     /tmp/ccN2Sb8W.s:3726   .debug_str:0000000000000010 .LASF61
     /tmp/ccN2Sb8W.s:542    .text:00000000000003ec .LFB21
     /tmp/ccN2Sb8W.s:691    .text:0000000000000500 .LFE21
     /tmp/ccN2Sb8W.s:3573   .debug_loc:00000000000001bc .LLST8
     /tmp/ccN2Sb8W.s:586    .text:0000000000000444 .LBB26
     /tmp/ccN2Sb8W.s:662    .text:00000000000004c4 .LBE26
     /tmp/ccN2Sb8W.s:3587   .debug_loc:00000000000001f5 .LLST9
     /tmp/ccN2Sb8W.s:3706   .debug_ranges:0000000000000000 .Ldebug_ranges0
     /tmp/ccN2Sb8W.s:3599   .debug_loc:000000000000022c .LLST10
     /tmp/ccN2Sb8W.s:609    .text:0000000000000464 .LBB30
     /tmp/ccN2Sb8W.s:624    .text:000000000000047c .LBE30
     /tmp/ccN2Sb8W.s:3611   .debug_loc:0000000000000263 .LLST11
     /tmp/ccN2Sb8W.s:598    .text:0000000000000454 .LVL79
     /tmp/ccN2Sb8W.s:640    .text:0000000000000498 .LVL85
     /tmp/ccN2Sb8W.s:647    .text:00000000000004ac .LVL86
     /tmp/ccN2Sb8W.s:652    .text:00000000000004bc .LVL87
     /tmp/ccN2Sb8W.s:569    .text:0000000000000420 .LBB24
     /tmp/ccN2Sb8W.s:573    .text:0000000000000420 .LBE24
     /tmp/ccN2Sb8W.s:563    .text:0000000000000414 .LVL74
     /tmp/ccN2Sb8W.s:579    .text:0000000000000434 .LVL76
     /tmp/ccN2Sb8W.s:584    .text:0000000000000444 .LVL77
     /tmp/ccN2Sb8W.s:667    .text:00000000000004d4 .LVL89
     /tmp/ccN2Sb8W.s:675    .text:00000000000004e8 .LVL90
     /tmp/ccN2Sb8W.s:3816   .debug_str:00000000000002d5 .LASF62
     /tmp/ccN2Sb8W.s:707    .text:0000000000000500 .LFB20
     /tmp/ccN2Sb8W.s:852    .text:000000000000060c .LFE20
     /tmp/ccN2Sb8W.s:3622   .debug_loc:0000000000000299 .LLST12
     /tmp/ccN2Sb8W.s:751    .text:0000000000000558 .LBB36
     /tmp/ccN2Sb8W.s:827    .text:00000000000005d8 .LBE36
     /tmp/ccN2Sb8W.s:3636   .debug_loc:00000000000002d2 .LLST13
     /tmp/ccN2Sb8W.s:3648   .debug_loc:0000000000000309 .LLST14
     /tmp/ccN2Sb8W.s:774    .text:0000000000000578 .LBB40
     /tmp/ccN2Sb8W.s:789    .text:0000000000000590 .LBE40
     /tmp/ccN2Sb8W.s:3660   .debug_loc:0000000000000340 .LLST15
     /tmp/ccN2Sb8W.s:763    .text:0000000000000568 .LVL99
     /tmp/ccN2Sb8W.s:805    .text:00000000000005ac .LVL105
     /tmp/ccN2Sb8W.s:812    .text:00000000000005c0 .LVL106
     /tmp/ccN2Sb8W.s:817    .text:00000000000005d0 .LVL107
     /tmp/ccN2Sb8W.s:734    .text:0000000000000534 .LBB34
     /tmp/ccN2Sb8W.s:738    .text:0000000000000534 .LBE34
     /tmp/ccN2Sb8W.s:728    .text:0000000000000528 .LVL94
     /tmp/ccN2Sb8W.s:744    .text:0000000000000548 .LVL96
     /tmp/ccN2Sb8W.s:749    .text:0000000000000558 .LVL97
     /tmp/ccN2Sb8W.s:832    .text:00000000000005e8 .LVL109
     /tmp/ccN2Sb8W.s:3872   .debug_str:0000000000000501 .LASF84
     /tmp/ccN2Sb8W.s:9      .text:0000000000000000 .LFB19
     /tmp/ccN2Sb8W.s:75     .text:0000000000000074 .LFE19
     /tmp/ccN2Sb8W.s:3671   .debug_loc:0000000000000376 .LLST0
     /tmp/ccN2Sb8W.s:42     .text:000000000000003c .LVL2
     /tmp/ccN2Sb8W.s:47     .text:000000000000004c .LVL3
     /tmp/ccN2Sb8W.s:72     .text:0000000000000070 .LVL6
     /tmp/ccN2Sb8W.s:3846   .debug_str:0000000000000393 .LASF85
     /tmp/ccN2Sb8W.s:3890   .debug_str:000000000000058f .LASF63
     /tmp/ccN2Sb8W.s:3760   .debug_str:0000000000000111 .LASF65
     /tmp/ccN2Sb8W.s:3886   .debug_str:0000000000000570 .LASF64
     /tmp/ccN2Sb8W.s:3888   .debug_str:0000000000000583 .LASF66
GAS LISTING /tmp/ccN2Sb8W.s 			page 38


     /tmp/ccN2Sb8W.s:3770   .debug_str:000000000000014a .LASF67
     /tmp/ccN2Sb8W.s:3752   .debug_str:00000000000000c9 .LASF68
     /tmp/ccN2Sb8W.s:3832   .debug_str:000000000000032e .LASF69
     /tmp/ccN2Sb8W.s:3772   .debug_str:000000000000015f .LASF70
     /tmp/ccN2Sb8W.s:109    .text:0000000000000074 .LVL7
     /tmp/ccN2Sb8W.s:125    .text:0000000000000094 .LVL8
     /tmp/ccN2Sb8W.s:154    .text:00000000000000d4 .LVL13
     /tmp/ccN2Sb8W.s:175    .text:000000000000010c .LVL17
     /tmp/ccN2Sb8W.s:177    .text:0000000000000110 .LVL18
     /tmp/ccN2Sb8W.s:255    .text:00000000000001d4 .LVL32
     /tmp/ccN2Sb8W.s:257    .text:00000000000001d8 .LVL33
     /tmp/ccN2Sb8W.s:284    .text:0000000000000210 .LVL36
     /tmp/ccN2Sb8W.s:210    .text:0000000000000154 .LVL23
     /tmp/ccN2Sb8W.s:214    .text:000000000000015c .LVL24
     /tmp/ccN2Sb8W.s:287    .text:0000000000000214 .LVL37
     /tmp/ccN2Sb8W.s:323    .text:000000000000021c .LVL38
     /tmp/ccN2Sb8W.s:339    .text:000000000000023c .LVL39
     /tmp/ccN2Sb8W.s:367    .text:000000000000027c .LVL44
     /tmp/ccN2Sb8W.s:388    .text:00000000000002b4 .LVL48
     /tmp/ccN2Sb8W.s:390    .text:00000000000002b8 .LVL49
     /tmp/ccN2Sb8W.s:484    .text:0000000000000394 .LVL65
     /tmp/ccN2Sb8W.s:486    .text:0000000000000398 .LVL66
     /tmp/ccN2Sb8W.s:518    .text:00000000000003e0 .LVL70
     /tmp/ccN2Sb8W.s:419    .text:00000000000002e0 .LVL52
     /tmp/ccN2Sb8W.s:444    .text:0000000000000324 .LVL57
     /tmp/ccN2Sb8W.s:448    .text:000000000000032c .LVL58
     /tmp/ccN2Sb8W.s:521    .text:00000000000003e4 .LVL71
     /tmp/ccN2Sb8W.s:545    .text:00000000000003ec .LVL72
     /tmp/ccN2Sb8W.s:561    .text:000000000000040c .LVL73
     /tmp/ccN2Sb8W.s:590    .text:000000000000044c .LVL78
     /tmp/ccN2Sb8W.s:686    .text:00000000000004f8 .LVL91
     /tmp/ccN2Sb8W.s:630    .text:0000000000000480 .LVL84
     /tmp/ccN2Sb8W.s:658    .text:00000000000004c4 .LVL88
     /tmp/ccN2Sb8W.s:613    .text:0000000000000468 .LVL81
     /tmp/ccN2Sb8W.s:622    .text:000000000000047c .LVL83
     /tmp/ccN2Sb8W.s:710    .text:0000000000000500 .LVL92
     /tmp/ccN2Sb8W.s:726    .text:0000000000000520 .LVL93
     /tmp/ccN2Sb8W.s:755    .text:0000000000000560 .LVL98
     /tmp/ccN2Sb8W.s:847    .text:0000000000000604 .LVL110
     /tmp/ccN2Sb8W.s:795    .text:0000000000000594 .LVL104
     /tmp/ccN2Sb8W.s:823    .text:00000000000005d8 .LVL108
     /tmp/ccN2Sb8W.s:778    .text:000000000000057c .LVL101
     /tmp/ccN2Sb8W.s:787    .text:0000000000000590 .LVL103
     /tmp/ccN2Sb8W.s:13     .text:0000000000000000 .LVL0
     /tmp/ccN2Sb8W.s:36     .text:0000000000000030 .LVL1
     /tmp/ccN2Sb8W.s:60     .text:000000000000005c .LVL4
     /tmp/ccN2Sb8W.s:66     .text:0000000000000068 .LVL5
     /tmp/ccN2Sb8W.s:993    .debug_info:0000000000000000 .Ldebug_info0
     /tmp/ccN2Sb8W.s:593    .text:000000000000044c .LBB28
     /tmp/ccN2Sb8W.s:626    .text:000000000000047c .LBE28
     /tmp/ccN2Sb8W.s:654    .text:00000000000004bc .LBB32
     /tmp/ccN2Sb8W.s:660    .text:00000000000004c4 .LBE32
     /tmp/ccN2Sb8W.s:758    .text:0000000000000560 .LBB38
     /tmp/ccN2Sb8W.s:791    .text:0000000000000590 .LBE38
     /tmp/ccN2Sb8W.s:819    .text:00000000000005d0 .LBB42
     /tmp/ccN2Sb8W.s:825    .text:00000000000005d8 .LBE42

GAS LISTING /tmp/ccN2Sb8W.s 			page 39


UNDEFINED SYMBOLS
_Z15thread_dispatchv
_Z11printStringPKc
_ZN7_thread7runningE
_Z8printIntiii
_Z13thread_createPP7_threadPFvPvES2_
