GAS LISTING /tmp/cc36lvKe.s 			page 1


   1              		.file	"_sem.cpp"
   2              		.option pic
   3              		.option norelax
   4              		.text
   5              	.Ltext0:
   6              		.align	2
   7              		.globl	_ZN4_sem7deblockEv
   9              	_ZN4_sem7deblockEv:
  10              	.LFB26:
  11              		.file 1 "src/_sem.cpp"
   1:src/_sem.cpp  **** //
   2:src/_sem.cpp  **** // Created by os on 2/9/23.
   3:src/_sem.cpp  **** //
   4:src/_sem.cpp  **** #include "../h/_sem.hpp"
   5:src/_sem.cpp  **** #include "../h/syscall_c.h"
   6:src/_sem.cpp  **** #include "../h/printing.hpp"
   7:src/_sem.cpp  **** 
   8:src/_sem.cpp  **** 
   9:src/_sem.cpp  **** void _sem:: deblock(){
  12              		.loc 1 9 22
  13              		.cfi_startproc
  14              	.LVL0:
  15 0000 130101FE 		addi	sp,sp,-32
  16              		.cfi_def_cfa_offset 32
  17 0004 233C1100 		sd	ra,24(sp)
  18 0008 23388100 		sd	s0,16(sp)
  19 000c 23349100 		sd	s1,8(sp)
  20              		.cfi_offset 1, -8
  21              		.cfi_offset 8, -16
  22              		.cfi_offset 9, -24
  23 0010 13040102 		addi	s0,sp,32
  24              		.cfi_def_cfa 8, 0
  25 0014 93070500 		mv	a5,a0
  10:src/_sem.cpp  ****     // Deblocking:
  11:src/_sem.cpp  ****     blockedthrd--;
  26              		.loc 1 11 5
  27 0018 03370502 		ld	a4,32(a0)
  28              		.loc 1 11 16 is_stmt 0
  29 001c 1307F7FF 		addi	a4,a4,-1
  30 0020 2330E502 		sd	a4,32(a0)
  12:src/_sem.cpp  ****     thread_t cur = queue.removeFirst();
  31              		.loc 1 12 5 is_stmt 1
  32              	.LVL1:
  33              	.LBB36:
  34              	.LBB37:
  35              		.file 2 "src/../h/../h/list.hpp"
   1:src/../h/../h/list.hpp **** //
   2:src/../h/../h/list.hpp **** // Created by marko on 20.4.22..
   3:src/../h/../h/list.hpp **** //
   4:src/../h/../h/list.hpp **** 
   5:src/../h/../h/list.hpp **** #ifndef OS1_VEZBE07_RISCV_CONTEXT_SWITCH_1_SYNCHRONOUS_LIST_HPP
   6:src/../h/../h/list.hpp **** #define OS1_VEZBE07_RISCV_CONTEXT_SWITCH_1_SYNCHRONOUS_LIST_HPP
   7:src/../h/../h/list.hpp **** 
   8:src/../h/../h/list.hpp **** template<typename T>
   9:src/../h/../h/list.hpp **** class List
  10:src/../h/../h/list.hpp **** {
  11:src/../h/../h/list.hpp **** private:
GAS LISTING /tmp/cc36lvKe.s 			page 2


  12:src/../h/../h/list.hpp ****     struct Elem
  13:src/../h/../h/list.hpp ****     {
  14:src/../h/../h/list.hpp ****         T *data;
  15:src/../h/../h/list.hpp ****         Elem *next;
  16:src/../h/../h/list.hpp **** 
  17:src/../h/../h/list.hpp ****         Elem(T *data, Elem *next) : data(data), next(next) {}
  18:src/../h/../h/list.hpp ****     };
  19:src/../h/../h/list.hpp **** 
  20:src/../h/../h/list.hpp ****     Elem *head, *tail;
  21:src/../h/../h/list.hpp **** 
  22:src/../h/../h/list.hpp **** public:
  23:src/../h/../h/list.hpp ****     List() : head(0), tail(0) {}
  24:src/../h/../h/list.hpp **** 
  25:src/../h/../h/list.hpp ****     List(const List<T> &) = delete;
  26:src/../h/../h/list.hpp **** 
  27:src/../h/../h/list.hpp ****     List<T> &operator=(const List<T> &) = delete;
  28:src/../h/../h/list.hpp **** 
  29:src/../h/../h/list.hpp ****     void addFirst(T *data)
  30:src/../h/../h/list.hpp ****     {
  31:src/../h/../h/list.hpp ****         Elem *elem = new Elem(data, head);
  32:src/../h/../h/list.hpp ****         head = elem;
  33:src/../h/../h/list.hpp ****         if (!tail) { tail = head; }
  34:src/../h/../h/list.hpp ****     }
  35:src/../h/../h/list.hpp **** 
  36:src/../h/../h/list.hpp ****     void addLast(T *data)
  37:src/../h/../h/list.hpp ****     {
  38:src/../h/../h/list.hpp ****         Elem *elem = new Elem(data, 0);
  39:src/../h/../h/list.hpp ****         if (tail)
  40:src/../h/../h/list.hpp ****         {
  41:src/../h/../h/list.hpp ****             tail->next = elem;
  42:src/../h/../h/list.hpp ****             tail = elem;
  43:src/../h/../h/list.hpp ****         } else
  44:src/../h/../h/list.hpp ****         {
  45:src/../h/../h/list.hpp ****             head = tail = elem;
  46:src/../h/../h/list.hpp ****         }
  47:src/../h/../h/list.hpp ****     }
  48:src/../h/../h/list.hpp **** 
  49:src/../h/../h/list.hpp ****     T *removeFirst()
  50:src/../h/../h/list.hpp ****     {
  51:src/../h/../h/list.hpp ****         if (!head) { return 0; }
  36              		.loc 2 51 14 is_stmt 0
  37 0024 03358500 		ld	a0,8(a0)
  38              	.LVL2:
  39              		.loc 2 51 9
  40 0028 63040504 		beqz	a0,.L4
  41              	.LVL3:
  52:src/../h/../h/list.hpp **** 
  53:src/../h/../h/list.hpp ****         Elem *elem = head;
  54:src/../h/../h/list.hpp ****         head = head->next;
  42              		.loc 2 54 22
  43 002c 03378500 		ld	a4,8(a0)
  44              		.loc 2 54 9
  45 0030 23B4E700 		sd	a4,8(a5)
  55:src/../h/../h/list.hpp ****         if (!head) { tail = 0; }
  46              		.loc 2 55 9
  47 0034 630A0702 		beqz	a4,.L6
  48              	.L3:
GAS LISTING /tmp/cc36lvKe.s 			page 3


  56:src/../h/../h/list.hpp **** 
  57:src/../h/../h/list.hpp ****         T *ret = elem->data;
  49              		.loc 2 57 12
  50 0038 83340500 		ld	s1,0(a0)
  51              	.LVL4:
  58:src/../h/../h/list.hpp ****         delete elem;
  52              		.loc 2 58 9
  53 003c 97000000 		call	_ZdlPv@plt
  53      E7800000 
  54              	.LVL5:
  55              	.L2:
  56              	.LBE37:
  57              	.LBE36:
  13:src/_sem.cpp  ****     cur->setblk(false);
  58              		.loc 1 13 5 is_stmt 1
  59              	.LBB39:
  60              	.LBB40:
  61              		.file 3 "src/../h/../h/ccb.hpp"
   1:src/../h/../h/ccb.hpp **** //
   2:src/../h/../h/ccb.hpp **** // Created by marko on 20.4.22..
   3:src/../h/../h/ccb.hpp **** //
   4:src/../h/../h/ccb.hpp **** 
   5:src/../h/../h/ccb.hpp **** #ifndef OS1_VEZBE07_RISCV_CONTEXT_SWITCH_1_SYNCHRONOUS_CCB_HPP
   6:src/../h/../h/ccb.hpp **** #define OS1_VEZBE07_RISCV_CONTEXT_SWITCH_1_SYNCHRONOUS_CCB_HPP
   7:src/../h/../h/ccb.hpp **** 
   8:src/../h/../h/ccb.hpp **** #include "../lib/hw.h"
   9:src/../h/../h/ccb.hpp **** #include "scheduler.hpp"
  10:src/../h/../h/ccb.hpp **** 
  11:src/../h/../h/ccb.hpp **** //#include "../h/_sem.hpp"
  12:src/../h/../h/ccb.hpp **** 
  13:src/../h/../h/ccb.hpp **** // Coroutine Control Block
  14:src/../h/../h/ccb.hpp **** class  _thread
  15:src/../h/../h/ccb.hpp **** {
  16:src/../h/../h/ccb.hpp **** public:
  17:src/../h/../h/ccb.hpp **** 
  18:src/../h/../h/ccb.hpp ****     //novo
  19:src/../h/../h/ccb.hpp ****     static void join(thread_t* handle);
  20:src/../h/../h/ccb.hpp ****     bool isblk(){return blk;}
  21:src/../h/../h/ccb.hpp ****     void setblk(bool val){blk = val;}
  62              		.loc 3 21 27
  63              		.loc 3 21 31 is_stmt 0
  64 0044 A3800404 		sb	zero,65(s1)
  65              	.LVL6:
  66              	.LBE40:
  67              	.LBE39:
  14:src/_sem.cpp  ****     Scheduler :: put(cur);
  68              		.loc 1 14 5 is_stmt 1
  69              		.loc 1 14 21 is_stmt 0
  70 0048 13850400 		mv	a0,s1
  71 004c 97000000 		call	_ZN9Scheduler3putEP7_thread@plt
  71      E7800000 
  72              	.LVL7:
  15:src/_sem.cpp  ****     //printString("Vracen\n");
  16:src/_sem.cpp  **** }
  73              		.loc 1 16 1
  74 0054 83308101 		ld	ra,24(sp)
  75              		.cfi_remember_state
GAS LISTING /tmp/cc36lvKe.s 			page 4


  76              		.cfi_restore 1
  77 0058 03340101 		ld	s0,16(sp)
  78              		.cfi_restore 8
  79              		.cfi_def_cfa 2, 32
  80 005c 83348100 		ld	s1,8(sp)
  81              		.cfi_restore 9
  82              	.LVL8:
  83 0060 13010102 		addi	sp,sp,32
  84              		.cfi_def_cfa_offset 0
  85 0064 67800000 		jr	ra
  86              	.LVL9:
  87              	.L6:
  88              		.cfi_restore_state
  89              	.LBB41:
  90              	.LBB38:
  55:src/../h/../h/list.hpp **** 
  91              		.loc 2 55 22
  92 0068 23B80700 		sd	zero,16(a5)
  93 006c 6FF0DFFC 		j	.L3
  94              	.LVL10:
  95              	.L4:
  51:src/../h/../h/list.hpp **** 
  96              		.loc 2 51 29
  97 0070 93040500 		mv	s1,a0
  98 0074 6FF01FFD 		j	.L2
  99              	.LBE38:
 100              	.LBE41:
 101              		.cfi_endproc
 102              	.LFE26:
 104              		.align	2
 105              		.globl	_ZN4_sem5blockEv
 107              	_ZN4_sem5blockEv:
 108              	.LFB27:
  17:src/_sem.cpp  **** 
  18:src/_sem.cpp  **** void _sem:: block(){
 109              		.loc 1 18 20 is_stmt 1
 110              		.cfi_startproc
 111              	.LVL11:
 112 0078 130101FE 		addi	sp,sp,-32
 113              		.cfi_def_cfa_offset 32
 114 007c 233C1100 		sd	ra,24(sp)
 115 0080 23388100 		sd	s0,16(sp)
 116 0084 23349100 		sd	s1,8(sp)
 117 0088 23302101 		sd	s2,0(sp)
 118              		.cfi_offset 1, -8
 119              		.cfi_offset 8, -16
 120              		.cfi_offset 9, -24
 121              		.cfi_offset 18, -32
 122 008c 13040102 		addi	s0,sp,32
 123              		.cfi_def_cfa 8, 0
 124 0090 93040500 		mv	s1,a0
  19:src/_sem.cpp  ****     blockedthrd++;
 125              		.loc 1 19 5
 126 0094 83370502 		ld	a5,32(a0)
 127              		.loc 1 19 16 is_stmt 0
 128 0098 93871700 		addi	a5,a5,1
 129 009c 2330F502 		sd	a5,32(a0)
GAS LISTING /tmp/cc36lvKe.s 			page 5


  20:src/_sem.cpp  ****     _thread :: running->setblk(true);
 130              		.loc 1 20 5 is_stmt 1
 131              		.loc 1 20 31 is_stmt 0
 132 00a0 97070000 		la	a5,_ZN7_thread7runningE
 132      83B70700 
 133 00a8 03B90700 		ld	s2,0(a5)
 134              	.LVL12:
 135              	.LBB42:
 136              	.LBB43:
 137              		.loc 3 21 27 is_stmt 1
 138              		.loc 3 21 31 is_stmt 0
 139 00ac 93071000 		li	a5,1
 140 00b0 A300F904 		sb	a5,65(s2)
 141              	.LVL13:
 142              	.LBE43:
 143              	.LBE42:
  21:src/_sem.cpp  ****     queue.addLast(_thread ::running);
 144              		.loc 1 21 5 is_stmt 1
 145              	.LBB44:
 146              	.LBB45:
  38:src/../h/../h/list.hpp ****         if (tail)
 147              		.loc 2 38 22 is_stmt 0
 148 00b4 13050001 		li	a0,16
 149              	.LVL14:
 150 00b8 97000000 		call	_Znwm@plt
 150      E7800000 
 151              	.LVL15:
 152              	.LBB46:
 153              	.LBB47:
  17:src/../h/../h/list.hpp ****     };
 154              		.loc 2 17 58
 155 00c0 23302501 		sd	s2,0(a0)
 156 00c4 23340500 		sd	zero,8(a0)
 157              	.LVL16:
 158              	.LBE47:
 159              	.LBE46:
  39:src/../h/../h/list.hpp ****         {
 160              		.loc 2 39 13
 161 00c8 83B70401 		ld	a5,16(s1)
  39:src/../h/../h/list.hpp ****         {
 162              		.loc 2 39 9
 163 00cc 63860702 		beqz	a5,.L8
  41:src/../h/../h/list.hpp ****             tail = elem;
 164              		.loc 2 41 13
 165 00d0 23B4A700 		sd	a0,8(a5)
  42:src/../h/../h/list.hpp ****         } else
 166              		.loc 2 42 13
 167 00d4 23B8A400 		sd	a0,16(s1)
 168              	.L9:
 169              	.LVL17:
 170              	.LBE45:
 171              	.LBE44:
  22:src/_sem.cpp  ****     _thread :: yield();
 172              		.loc 1 22 5 is_stmt 1
 173              		.loc 1 22 21 is_stmt 0
 174 00d8 97000000 		call	_ZN7_thread5yieldEv@plt
 174      E7800000 
GAS LISTING /tmp/cc36lvKe.s 			page 6


 175              	.LVL18:
  23:src/_sem.cpp  ****     //thread_dispatch();
  24:src/_sem.cpp  ****     /*thread_t old = _thread :: running;
  25:src/_sem.cpp  ****     queue.addFirst(&old);
  26:src/_sem.cpp  **** 
  27:src/_sem.cpp  ****     _thread :: running = Scheduler::get();
  28:src/_sem.cpp  **** 
  29:src/_sem.cpp  ****     _thread::contextSwitch(&old->context, &_thread :: running->context);*/
  30:src/_sem.cpp  **** 
  31:src/_sem.cpp  **** 
  32:src/_sem.cpp  **** }
 176              		.loc 1 32 1
 177 00e0 83308101 		ld	ra,24(sp)
 178              		.cfi_remember_state
 179              		.cfi_restore 1
 180 00e4 03340101 		ld	s0,16(sp)
 181              		.cfi_restore 8
 182              		.cfi_def_cfa 2, 32
 183 00e8 83348100 		ld	s1,8(sp)
 184              		.cfi_restore 9
 185              	.LVL19:
 186 00ec 03390100 		ld	s2,0(sp)
 187              		.cfi_restore 18
 188 00f0 13010102 		addi	sp,sp,32
 189              		.cfi_def_cfa_offset 0
 190 00f4 67800000 		jr	ra
 191              	.LVL20:
 192              	.L8:
 193              		.cfi_restore_state
 194              	.LBB49:
 195              	.LBB48:
  45:src/../h/../h/list.hpp ****         }
 196              		.loc 2 45 13
 197 00f8 23B8A400 		sd	a0,16(s1)
 198 00fc 23B4A400 		sd	a0,8(s1)
 199 0100 6FF09FFD 		j	.L9
 200              	.LBE48:
 201              	.LBE49:
 202              		.cfi_endproc
 203              	.LFE27:
 205              		.align	2
 206              		.globl	_ZN4_sem9createSemEi
 208              	_ZN4_sem9createSemEi:
 209              	.LFB28:
  33:src/_sem.cpp  **** 
  34:src/_sem.cpp  **** _sem* _sem::createSem(int n) {
 210              		.loc 1 34 30 is_stmt 1
 211              		.cfi_startproc
 212              	.LVL21:
 213 0104 130101FE 		addi	sp,sp,-32
 214              		.cfi_def_cfa_offset 32
 215 0108 233C1100 		sd	ra,24(sp)
 216 010c 23388100 		sd	s0,16(sp)
 217 0110 23349100 		sd	s1,8(sp)
 218              		.cfi_offset 1, -8
 219              		.cfi_offset 8, -16
 220              		.cfi_offset 9, -24
GAS LISTING /tmp/cc36lvKe.s 			page 7


 221 0114 13040102 		addi	s0,sp,32
 222              		.cfi_def_cfa 8, 0
 223 0118 93040500 		mv	s1,a0
  35:src/_sem.cpp  ****     return new _sem(n);
 224              		.loc 1 35 5
 225              		.loc 1 35 22 is_stmt 0
 226 011c 13058002 		li	a0,40
 227              	.LVL22:
 228 0120 97000000 		call	_Znwm@plt
 228      E7800000 
 229              	.LVL23:
 230              	.LBB50:
 231              	.LBB51:
 232              		.file 4 "src/../h/_sem.hpp"
   1:src/../h/_sem.hpp **** //
   2:src/../h/_sem.hpp **** // Created by os on 2/9/23.
   3:src/../h/_sem.hpp **** //
   4:src/../h/_sem.hpp **** 
   5:src/../h/_sem.hpp **** #ifndef BASE__SEM_H
   6:src/../h/_sem.hpp **** #define BASE__SEM_H
   7:src/../h/_sem.hpp **** 
   8:src/../h/_sem.hpp **** #include "../h/list.hpp"
   9:src/../h/_sem.hpp **** //#include "../h/scheduler.hpp"
  10:src/../h/_sem.hpp **** #include"../h/ccb.hpp"
  11:src/../h/_sem.hpp **** 
  12:src/../h/_sem.hpp **** 
  13:src/../h/_sem.hpp **** 
  14:src/../h/_sem.hpp **** typedef _thread* thread_t;
  15:src/../h/_sem.hpp **** 
  16:src/../h/_sem.hpp **** 
  17:src/../h/_sem.hpp **** 
  18:src/../h/_sem.hpp **** class _sem{
  19:src/../h/_sem.hpp **** private:
  20:src/../h/_sem.hpp ****     int value;
  21:src/../h/_sem.hpp ****     List<_thread> queue;
  22:src/../h/_sem.hpp ****     int status;//pokazuje da li je semafor vec gasen to jest freeSem ili ne
  23:src/../h/_sem.hpp **** public:
  24:src/../h/_sem.hpp ****     static _sem* createSem(int n);
  25:src/../h/_sem.hpp **** 
  26:src/../h/_sem.hpp ****     _sem(int b): value(b), status(1) {}
 233              		.loc 4 26 36
 234 0128 23209500 		sw	s1,0(a0)
 235              	.LVL24:
 236              	.LBB52:
 237              	.LBB53:
  23:src/../h/../h/list.hpp **** 
 238              		.loc 2 23 29
 239 012c 23340500 		sd	zero,8(a0)
 240 0130 23380500 		sd	zero,16(a0)
 241              	.LVL25:
 242              	.LBE53:
 243              	.LBE52:
 244              		.loc 4 26 36
 245 0134 13071000 		li	a4,1
 246 0138 232CE500 		sw	a4,24(a0)
 247 013c 23300502 		sd	zero,32(a0)
 248              	.LVL26:
GAS LISTING /tmp/cc36lvKe.s 			page 8


 249              	.LBE51:
 250              	.LBE50:
  36:src/_sem.cpp  **** 
  37:src/_sem.cpp  **** }
 251              		.loc 1 37 1
 252 0140 83308101 		ld	ra,24(sp)
 253              		.cfi_restore 1
 254 0144 03340101 		ld	s0,16(sp)
 255              		.cfi_restore 8
 256              		.cfi_def_cfa 2, 32
 257 0148 83348100 		ld	s1,8(sp)
 258              		.cfi_restore 9
 259 014c 13010102 		addi	sp,sp,32
 260              		.cfi_def_cfa_offset 0
 261 0150 67800000 		jr	ra
 262              		.cfi_endproc
 263              	.LFE28:
 265              		.align	2
 266              		.globl	_ZN4_sem4waitEv
 268              	_ZN4_sem4waitEv:
 269              	.LFB29:
  38:src/_sem.cpp  **** 
  39:src/_sem.cpp  **** int _sem ::wait() {
 270              		.loc 1 39 19 is_stmt 1
 271              		.cfi_startproc
 272              	.LVL27:
  40:src/_sem.cpp  ****     if(--value < 0)block();
 273              		.loc 1 40 5
 274              		.loc 1 40 10 is_stmt 0
 275 0154 83270500 		lw	a5,0(a0)
 276              		.loc 1 40 8
 277 0158 9B87F7FF 		addiw	a5,a5,-1
 278              		.loc 1 40 16
 279 015c 2320F500 		sw	a5,0(a0)
 280              		.loc 1 40 5
 281 0160 13970702 		slli	a4,a5,32
 282 0164 63460700 		bltz	a4,.L19
  41:src/_sem.cpp  ****     return 1;
 283              		.loc 1 41 5 is_stmt 1
  42:src/_sem.cpp  ****     /*thread_t t;
  43:src/_sem.cpp  ****     t = _thread:: running;
  44:src/_sem.cpp  ****     if(t->IDWait== 0){
  45:src/_sem.cpp  ****         return 0;
  46:src/_sem.cpp  ****     }else{
  47:src/_sem.cpp  ****         t->IDWait = 0;
  48:src/_sem.cpp  ****         return -1;
  49:src/_sem.cpp  ****     }*/
  50:src/_sem.cpp  **** }
 284              		.loc 1 50 1 is_stmt 0
 285 0168 13051000 		li	a0,1
 286              	.LVL28:
 287 016c 67800000 		ret
 288              	.LVL29:
 289              	.L19:
  39:src/_sem.cpp  ****     if(--value < 0)block();
 290              		.loc 1 39 19 discriminator 1
 291 0170 130101FF 		addi	sp,sp,-16
GAS LISTING /tmp/cc36lvKe.s 			page 9


 292              		.cfi_def_cfa_offset 16
 293 0174 23341100 		sd	ra,8(sp)
 294 0178 23308100 		sd	s0,0(sp)
 295              		.cfi_offset 1, -8
 296              		.cfi_offset 8, -16
 297 017c 13040101 		addi	s0,sp,16
 298              		.cfi_def_cfa 8, 0
  40:src/_sem.cpp  ****     return 1;
 299              		.loc 1 40 20 is_stmt 1 discriminator 1
  40:src/_sem.cpp  ****     return 1;
 300              		.loc 1 40 25 is_stmt 0 discriminator 1
 301 0180 97000000 		call	_ZN4_sem5blockEv
 301      E7800000 
 302              	.LVL30:
  41:src/_sem.cpp  ****     /*thread_t t;
 303              		.loc 1 41 5 is_stmt 1 discriminator 1
 304              		.loc 1 50 1 is_stmt 0 discriminator 1
 305 0188 13051000 		li	a0,1
 306 018c 83308100 		ld	ra,8(sp)
 307              		.cfi_restore 1
 308 0190 03340100 		ld	s0,0(sp)
 309              		.cfi_restore 8
 310              		.cfi_def_cfa 2, 16
 311 0194 13010101 		addi	sp,sp,16
 312              		.cfi_def_cfa_offset 0
 313 0198 67800000 		jr	ra
 314              		.cfi_endproc
 315              	.LFE29:
 317              		.align	2
 318              		.globl	_ZN4_sem7freeSemEPS_
 320              	_ZN4_sem7freeSemEPS_:
 321              	.LFB30:
  51:src/_sem.cpp  **** 
  52:src/_sem.cpp  **** int _sem ::freeSem(_sem* hndl) {
 322              		.loc 1 52 32 is_stmt 1
 323              		.cfi_startproc
 324              	.LVL31:
  53:src/_sem.cpp  ****     if(hndl->gtStatus() == 0)return -1;
 325              		.loc 1 53 5
 326              	.LBB54:
 327              	.LBB55:
  27:src/../h/_sem.hpp ****     static int freeSem(_sem* hndl);
  28:src/../h/_sem.hpp **** 
  29:src/../h/_sem.hpp ****     int wait();
  30:src/../h/_sem.hpp **** 
  31:src/../h/_sem.hpp ****     int signal(){
  32:src/../h/_sem.hpp ****         if(++value <= 0 )deblock();
  33:src/../h/_sem.hpp ****         return 1;
  34:src/../h/_sem.hpp ****     }
  35:src/../h/_sem.hpp **** 
  36:src/../h/_sem.hpp ****     int val(){return value;}
  37:src/../h/_sem.hpp ****     int gtStatus(){return status;}
 328              		.loc 4 37 20
 329              		.loc 4 37 27 is_stmt 0
 330 019c 83278501 		lw	a5,24(a0)
 331              	.LVL32:
 332              	.LBE55:
GAS LISTING /tmp/cc36lvKe.s 			page 10


 333              	.LBE54:
 334              		.loc 1 53 5
 335 01a0 638E0706 		beqz	a5,.L25
  52:src/_sem.cpp  ****     if(hndl->gtStatus() == 0)return -1;
 336              		.loc 1 52 32
 337 01a4 130101FD 		addi	sp,sp,-48
 338              		.cfi_def_cfa_offset 48
 339 01a8 23341102 		sd	ra,40(sp)
 340 01ac 23308102 		sd	s0,32(sp)
 341 01b0 233C9100 		sd	s1,24(sp)
 342 01b4 23382101 		sd	s2,16(sp)
 343 01b8 23343101 		sd	s3,8(sp)
 344              		.cfi_offset 1, -8
 345              		.cfi_offset 8, -16
 346              		.cfi_offset 9, -24
 347              		.cfi_offset 18, -32
 348              		.cfi_offset 19, -40
 349 01bc 13040103 		addi	s0,sp,48
 350              		.cfi_def_cfa 8, 0
 351 01c0 93040500 		mv	s1,a0
  54:src/_sem.cpp  ****     hndl->setStatus(0);
 352              		.loc 1 54 5 is_stmt 1
 353              	.LVL33:
 354              	.LBB56:
 355              	.LBB57:
  38:src/../h/_sem.hpp **** 
  39:src/../h/_sem.hpp **** 
  40:src/../h/_sem.hpp **** 
  41:src/../h/_sem.hpp **** protected:
  42:src/../h/_sem.hpp ****     void setStatus(int a){ status = a;}
 356              		.loc 4 42 28
 357              		.loc 4 42 35 is_stmt 0
 358 01c4 232C0500 		sw	zero,24(a0)
 359              	.LVL34:
 360              	.LBE57:
 361              	.LBE56:
  55:src/_sem.cpp  ****     for(uint64 i = 0; i < hndl->blockedthrd;i++){
 362              		.loc 1 55 5 is_stmt 1
 363              	.LBB58:
 364              		.loc 1 55 16 is_stmt 0
 365 01c8 13090000 		li	s2,0
 366 01cc 6F008002 		j	.L24
 367              	.LVL35:
 368              	.L32:
 369              	.LBB59:
 370              	.LBB60:
 371              	.LBB61:
  55:src/../h/../h/list.hpp **** 
 372              		.loc 2 55 22
 373 01d0 23B80400 		sd	zero,16(s1)
 374              	.L23:
  57:src/../h/../h/list.hpp ****         delete elem;
 375              		.loc 2 57 12
 376 01d4 83390500 		ld	s3,0(a0)
 377              	.LVL36:
 378              		.loc 2 58 9
 379 01d8 97000000 		call	_ZdlPv@plt
GAS LISTING /tmp/cc36lvKe.s 			page 11


 379      E7800000 
 380              	.LVL37:
 381              	.L22:
 382              	.LBE61:
 383              	.LBE60:
  56:src/_sem.cpp  ****         thread_t gt = hndl->queue.removeFirst();
  57:src/_sem.cpp  ****         gt->setblk(false);
 384              		.loc 1 57 9 is_stmt 1
 385              	.LBB63:
 386              	.LBB64:
 387              		.loc 3 21 27
 388              		.loc 3 21 31 is_stmt 0
 389 01e0 A3800904 		sb	zero,65(s3)
 390              	.LVL38:
 391              	.LBE64:
 392              	.LBE63:
  58:src/_sem.cpp  ****         Scheduler :: put(gt);
 393              		.loc 1 58 9 is_stmt 1
 394              		.loc 1 58 25 is_stmt 0
 395 01e4 13850900 		mv	a0,s3
 396 01e8 97000000 		call	_ZN9Scheduler3putEP7_thread@plt
 396      E7800000 
 397              	.LVL39:
 398              	.LBE59:
  55:src/_sem.cpp  ****         thread_t gt = hndl->queue.removeFirst();
 399              		.loc 1 55 5 is_stmt 1
 400 01f0 13091900 		addi	s2,s2,1
 401              	.LVL40:
 402              	.L24:
  55:src/_sem.cpp  ****         thread_t gt = hndl->queue.removeFirst();
 403              		.loc 1 55 25 discriminator 3
  55:src/_sem.cpp  ****         thread_t gt = hndl->queue.removeFirst();
 404              		.loc 1 55 33 is_stmt 0 discriminator 3
 405 01f4 83B70402 		ld	a5,32(s1)
  55:src/_sem.cpp  ****         thread_t gt = hndl->queue.removeFirst();
 406              		.loc 1 55 25 discriminator 3
 407 01f8 6376F902 		bleu	a5,s2,.L26
 408              	.LBB66:
  56:src/_sem.cpp  ****         thread_t gt = hndl->queue.removeFirst();
 409              		.loc 1 56 9 is_stmt 1 discriminator 2
 410              	.LVL41:
 411              	.LBB65:
 412              	.LBB62:
  51:src/../h/../h/list.hpp **** 
 413              		.loc 2 51 14 is_stmt 0 discriminator 2
 414 01fc 03B58400 		ld	a0,8(s1)
  51:src/../h/../h/list.hpp **** 
 415              		.loc 2 51 9 discriminator 2
 416 0200 630A0500 		beqz	a0,.L27
 417              	.LVL42:
  54:src/../h/../h/list.hpp ****         if (!head) { tail = 0; }
 418              		.loc 2 54 22
 419 0204 83378500 		ld	a5,8(a0)
  54:src/../h/../h/list.hpp ****         if (!head) { tail = 0; }
 420              		.loc 2 54 9
 421 0208 23B4F400 		sd	a5,8(s1)
  55:src/../h/../h/list.hpp **** 
GAS LISTING /tmp/cc36lvKe.s 			page 12


 422              		.loc 2 55 9
 423 020c E39407FC 		bnez	a5,.L23
 424 0210 6FF01FFC 		j	.L32
 425              	.LVL43:
 426              	.L27:
  51:src/../h/../h/list.hpp **** 
 427              		.loc 2 51 29
 428 0214 93090500 		mv	s3,a0
 429 0218 6FF09FFC 		j	.L22
 430              	.LVL44:
 431              	.L25:
 432              		.cfi_def_cfa_register 2
 433              		.cfi_restore 1
 434              		.cfi_restore 8
 435              		.cfi_restore 9
 436              		.cfi_restore 18
 437              		.cfi_restore 19
 438              	.LBE62:
 439              	.LBE65:
 440              	.LBE66:
 441              	.LBE58:
  53:src/_sem.cpp  ****     hndl->setStatus(0);
 442              		.loc 1 53 38
 443 021c 1305F0FF 		li	a0,-1
 444              	.LVL45:
  59:src/_sem.cpp  ****     }
  60:src/_sem.cpp  ****     return 1;
  61:src/_sem.cpp  **** }
 445              		.loc 1 61 1
 446 0220 67800000 		ret
 447              	.LVL46:
 448              	.L26:
 449              		.cfi_def_cfa_register 8
 450              		.cfi_offset 1, -8
 451              		.cfi_offset 8, -16
 452              		.cfi_offset 9, -24
 453              		.cfi_offset 18, -32
 454              		.cfi_offset 19, -40
  60:src/_sem.cpp  **** }
 455              		.loc 1 60 12
 456 0224 13051000 		li	a0,1
 457              		.loc 1 61 1
 458 0228 83308102 		ld	ra,40(sp)
 459              		.cfi_restore 1
 460 022c 03340102 		ld	s0,32(sp)
 461              		.cfi_restore 8
 462              		.cfi_def_cfa 2, 48
 463 0230 83348101 		ld	s1,24(sp)
 464              		.cfi_restore 9
 465              	.LVL47:
 466 0234 03390101 		ld	s2,16(sp)
 467              		.cfi_restore 18
 468              	.LVL48:
 469 0238 83398100 		ld	s3,8(sp)
 470              		.cfi_restore 19
 471 023c 13010103 		addi	sp,sp,48
 472              		.cfi_def_cfa_offset 0
GAS LISTING /tmp/cc36lvKe.s 			page 13


 473 0240 67800000 		jr	ra
 474              		.cfi_endproc
 475              	.LFE30:
 477              	.Letext0:
 478              		.file 5 "src/../h/../h/../lib/hw.h"
 479              		.file 6 "src/../h/../h/scheduler.hpp"
 480              		.file 7 "src/../h/syscall_c.h"
GAS LISTING /tmp/cc36lvKe.s 			page 14


DEFINED SYMBOLS
                            *ABS*:0000000000000000 _sem.cpp
     /tmp/cc36lvKe.s:9      .text:0000000000000000 _ZN4_sem7deblockEv
     /tmp/cc36lvKe.s:13     .text:0000000000000000 .L0 
     /tmp/cc36lvKe.s:15     .text:0000000000000000 .L0 
     /tmp/cc36lvKe.s:16     .text:0000000000000004 .L0 
     /tmp/cc36lvKe.s:20     .text:0000000000000010 .L0 
     /tmp/cc36lvKe.s:21     .text:0000000000000010 .L0 
     /tmp/cc36lvKe.s:22     .text:0000000000000010 .L0 
     /tmp/cc36lvKe.s:24     .text:0000000000000014 .L0 
     /tmp/cc36lvKe.s:27     .text:0000000000000018 .L0 
     /tmp/cc36lvKe.s:29     .text:000000000000001c .L0 
     /tmp/cc36lvKe.s:36     .text:0000000000000024 .L0 
     /tmp/cc36lvKe.s:37     .text:0000000000000024 .L0 
     /tmp/cc36lvKe.s:40     .text:0000000000000028 .L0 
     /tmp/cc36lvKe.s:43     .text:000000000000002c .L0 
     /tmp/cc36lvKe.s:45     .text:0000000000000030 .L0 
     /tmp/cc36lvKe.s:47     .text:0000000000000034 .L0 
     /tmp/cc36lvKe.s:50     .text:0000000000000038 .L0 
     /tmp/cc36lvKe.s:53     .text:000000000000003c .L0 
     /tmp/cc36lvKe.s:62     .text:0000000000000044 .L0 
     /tmp/cc36lvKe.s:63     .text:0000000000000044 .L0 
     /tmp/cc36lvKe.s:64     .text:0000000000000044 .L0 
     /tmp/cc36lvKe.s:69     .text:0000000000000048 .L0 
     /tmp/cc36lvKe.s:70     .text:0000000000000048 .L0 
     /tmp/cc36lvKe.s:74     .text:0000000000000054 .L0 
     /tmp/cc36lvKe.s:75     .text:0000000000000058 .L0 
     /tmp/cc36lvKe.s:76     .text:0000000000000058 .L0 
     /tmp/cc36lvKe.s:78     .text:000000000000005c .L0 
     /tmp/cc36lvKe.s:79     .text:000000000000005c .L0 
     /tmp/cc36lvKe.s:81     .text:0000000000000060 .L0 
     /tmp/cc36lvKe.s:84     .text:0000000000000064 .L0 
     /tmp/cc36lvKe.s:88     .text:0000000000000068 .L0 
     /tmp/cc36lvKe.s:92     .text:0000000000000068 .L0 
     /tmp/cc36lvKe.s:97     .text:0000000000000070 .L0 
     /tmp/cc36lvKe.s:101    .text:0000000000000078 .L0 
     /tmp/cc36lvKe.s:107    .text:0000000000000078 _ZN4_sem5blockEv
     /tmp/cc36lvKe.s:110    .text:0000000000000078 .L0 
     /tmp/cc36lvKe.s:112    .text:0000000000000078 .L0 
     /tmp/cc36lvKe.s:113    .text:000000000000007c .L0 
     /tmp/cc36lvKe.s:118    .text:000000000000008c .L0 
     /tmp/cc36lvKe.s:119    .text:000000000000008c .L0 
     /tmp/cc36lvKe.s:120    .text:000000000000008c .L0 
     /tmp/cc36lvKe.s:121    .text:000000000000008c .L0 
     /tmp/cc36lvKe.s:123    .text:0000000000000090 .L0 
     /tmp/cc36lvKe.s:126    .text:0000000000000094 .L0 
     /tmp/cc36lvKe.s:128    .text:0000000000000098 .L0 
     /tmp/cc36lvKe.s:131    .text:00000000000000a0 .L0 
     /tmp/cc36lvKe.s:132    .text:00000000000000a0 .L0 
     /tmp/cc36lvKe.s:138    .text:00000000000000ac .L0 
     /tmp/cc36lvKe.s:139    .text:00000000000000ac .L0 
     /tmp/cc36lvKe.s:147    .text:00000000000000b4 .L0 
     /tmp/cc36lvKe.s:148    .text:00000000000000b4 .L0 
     /tmp/cc36lvKe.s:155    .text:00000000000000c0 .L0 
     /tmp/cc36lvKe.s:161    .text:00000000000000c8 .L0 
     /tmp/cc36lvKe.s:163    .text:00000000000000cc .L0 
     /tmp/cc36lvKe.s:165    .text:00000000000000d0 .L0 
GAS LISTING /tmp/cc36lvKe.s 			page 15


     /tmp/cc36lvKe.s:167    .text:00000000000000d4 .L0 
     /tmp/cc36lvKe.s:173    .text:00000000000000d8 .L0 
     /tmp/cc36lvKe.s:174    .text:00000000000000d8 .L0 
     /tmp/cc36lvKe.s:177    .text:00000000000000e0 .L0 
     /tmp/cc36lvKe.s:178    .text:00000000000000e4 .L0 
     /tmp/cc36lvKe.s:179    .text:00000000000000e4 .L0 
     /tmp/cc36lvKe.s:181    .text:00000000000000e8 .L0 
     /tmp/cc36lvKe.s:182    .text:00000000000000e8 .L0 
     /tmp/cc36lvKe.s:184    .text:00000000000000ec .L0 
     /tmp/cc36lvKe.s:187    .text:00000000000000f0 .L0 
     /tmp/cc36lvKe.s:189    .text:00000000000000f4 .L0 
     /tmp/cc36lvKe.s:193    .text:00000000000000f8 .L0 
     /tmp/cc36lvKe.s:197    .text:00000000000000f8 .L0 
     /tmp/cc36lvKe.s:202    .text:0000000000000104 .L0 
     /tmp/cc36lvKe.s:208    .text:0000000000000104 _ZN4_sem9createSemEi
     /tmp/cc36lvKe.s:211    .text:0000000000000104 .L0 
     /tmp/cc36lvKe.s:213    .text:0000000000000104 .L0 
     /tmp/cc36lvKe.s:214    .text:0000000000000108 .L0 
     /tmp/cc36lvKe.s:218    .text:0000000000000114 .L0 
     /tmp/cc36lvKe.s:219    .text:0000000000000114 .L0 
     /tmp/cc36lvKe.s:220    .text:0000000000000114 .L0 
     /tmp/cc36lvKe.s:222    .text:0000000000000118 .L0 
     /tmp/cc36lvKe.s:225    .text:000000000000011c .L0 
     /tmp/cc36lvKe.s:226    .text:000000000000011c .L0 
     /tmp/cc36lvKe.s:234    .text:0000000000000128 .L0 
     /tmp/cc36lvKe.s:239    .text:000000000000012c .L0 
     /tmp/cc36lvKe.s:245    .text:0000000000000134 .L0 
     /tmp/cc36lvKe.s:252    .text:0000000000000140 .L0 
     /tmp/cc36lvKe.s:253    .text:0000000000000144 .L0 
     /tmp/cc36lvKe.s:255    .text:0000000000000148 .L0 
     /tmp/cc36lvKe.s:256    .text:0000000000000148 .L0 
     /tmp/cc36lvKe.s:258    .text:000000000000014c .L0 
     /tmp/cc36lvKe.s:260    .text:0000000000000150 .L0 
     /tmp/cc36lvKe.s:262    .text:0000000000000154 .L0 
     /tmp/cc36lvKe.s:268    .text:0000000000000154 _ZN4_sem4waitEv
     /tmp/cc36lvKe.s:271    .text:0000000000000154 .L0 
     /tmp/cc36lvKe.s:273    .text:0000000000000154 .L0 
     /tmp/cc36lvKe.s:274    .text:0000000000000154 .L0 
     /tmp/cc36lvKe.s:275    .text:0000000000000154 .L0 
     /tmp/cc36lvKe.s:277    .text:0000000000000158 .L0 
     /tmp/cc36lvKe.s:279    .text:000000000000015c .L0 
     /tmp/cc36lvKe.s:281    .text:0000000000000160 .L0 
     /tmp/cc36lvKe.s:284    .text:0000000000000168 .L0 
     /tmp/cc36lvKe.s:285    .text:0000000000000168 .L0 
     /tmp/cc36lvKe.s:291    .text:0000000000000170 .L0 
     /tmp/cc36lvKe.s:292    .text:0000000000000174 .L0 
     /tmp/cc36lvKe.s:295    .text:000000000000017c .L0 
     /tmp/cc36lvKe.s:296    .text:000000000000017c .L0 
     /tmp/cc36lvKe.s:298    .text:0000000000000180 .L0 
     /tmp/cc36lvKe.s:300    .text:0000000000000180 .L0 
     /tmp/cc36lvKe.s:301    .text:0000000000000180 .L0 
     /tmp/cc36lvKe.s:304    .text:0000000000000188 .L0 
     /tmp/cc36lvKe.s:305    .text:0000000000000188 .L0 
     /tmp/cc36lvKe.s:307    .text:0000000000000190 .L0 
     /tmp/cc36lvKe.s:309    .text:0000000000000194 .L0 
     /tmp/cc36lvKe.s:310    .text:0000000000000194 .L0 
     /tmp/cc36lvKe.s:312    .text:0000000000000198 .L0 
GAS LISTING /tmp/cc36lvKe.s 			page 16


     /tmp/cc36lvKe.s:314    .text:000000000000019c .L0 
     /tmp/cc36lvKe.s:320    .text:000000000000019c _ZN4_sem7freeSemEPS_
     /tmp/cc36lvKe.s:323    .text:000000000000019c .L0 
     /tmp/cc36lvKe.s:325    .text:000000000000019c .L0 
     /tmp/cc36lvKe.s:328    .text:000000000000019c .L0 
     /tmp/cc36lvKe.s:329    .text:000000000000019c .L0 
     /tmp/cc36lvKe.s:330    .text:000000000000019c .L0 
     /tmp/cc36lvKe.s:335    .text:00000000000001a0 .L0 
     /tmp/cc36lvKe.s:337    .text:00000000000001a4 .L0 
     /tmp/cc36lvKe.s:338    .text:00000000000001a8 .L0 
     /tmp/cc36lvKe.s:344    .text:00000000000001bc .L0 
     /tmp/cc36lvKe.s:345    .text:00000000000001bc .L0 
     /tmp/cc36lvKe.s:346    .text:00000000000001bc .L0 
     /tmp/cc36lvKe.s:347    .text:00000000000001bc .L0 
     /tmp/cc36lvKe.s:348    .text:00000000000001bc .L0 
     /tmp/cc36lvKe.s:350    .text:00000000000001c0 .L0 
     /tmp/cc36lvKe.s:356    .text:00000000000001c4 .L0 
     /tmp/cc36lvKe.s:357    .text:00000000000001c4 .L0 
     /tmp/cc36lvKe.s:358    .text:00000000000001c4 .L0 
     /tmp/cc36lvKe.s:364    .text:00000000000001c8 .L0 
     /tmp/cc36lvKe.s:365    .text:00000000000001c8 .L0 
     /tmp/cc36lvKe.s:373    .text:00000000000001d0 .L0 
     /tmp/cc36lvKe.s:376    .text:00000000000001d4 .L0 
     /tmp/cc36lvKe.s:379    .text:00000000000001d8 .L0 
     /tmp/cc36lvKe.s:387    .text:00000000000001e0 .L0 
     /tmp/cc36lvKe.s:388    .text:00000000000001e0 .L0 
     /tmp/cc36lvKe.s:389    .text:00000000000001e0 .L0 
     /tmp/cc36lvKe.s:394    .text:00000000000001e4 .L0 
     /tmp/cc36lvKe.s:395    .text:00000000000001e4 .L0 
     /tmp/cc36lvKe.s:400    .text:00000000000001f0 .L0 
     /tmp/cc36lvKe.s:404    .text:00000000000001f4 .L0 
     /tmp/cc36lvKe.s:405    .text:00000000000001f4 .L0 
     /tmp/cc36lvKe.s:407    .text:00000000000001f8 .L0 
     /tmp/cc36lvKe.s:413    .text:00000000000001fc .L0 
     /tmp/cc36lvKe.s:414    .text:00000000000001fc .L0 
     /tmp/cc36lvKe.s:416    .text:0000000000000200 .L0 
     /tmp/cc36lvKe.s:419    .text:0000000000000204 .L0 
     /tmp/cc36lvKe.s:421    .text:0000000000000208 .L0 
     /tmp/cc36lvKe.s:423    .text:000000000000020c .L0 
     /tmp/cc36lvKe.s:428    .text:0000000000000214 .L0 
     /tmp/cc36lvKe.s:432    .text:000000000000021c .L0 
     /tmp/cc36lvKe.s:433    .text:000000000000021c .L0 
     /tmp/cc36lvKe.s:434    .text:000000000000021c .L0 
     /tmp/cc36lvKe.s:435    .text:000000000000021c .L0 
     /tmp/cc36lvKe.s:436    .text:000000000000021c .L0 
     /tmp/cc36lvKe.s:437    .text:000000000000021c .L0 
     /tmp/cc36lvKe.s:443    .text:000000000000021c .L0 
     /tmp/cc36lvKe.s:446    .text:0000000000000220 .L0 
     /tmp/cc36lvKe.s:449    .text:0000000000000224 .L0 
     /tmp/cc36lvKe.s:450    .text:0000000000000224 .L0 
     /tmp/cc36lvKe.s:451    .text:0000000000000224 .L0 
     /tmp/cc36lvKe.s:452    .text:0000000000000224 .L0 
     /tmp/cc36lvKe.s:453    .text:0000000000000224 .L0 
     /tmp/cc36lvKe.s:454    .text:0000000000000224 .L0 
     /tmp/cc36lvKe.s:456    .text:0000000000000224 .L0 
     /tmp/cc36lvKe.s:458    .text:0000000000000228 .L0 
     /tmp/cc36lvKe.s:459    .text:000000000000022c .L0 
GAS LISTING /tmp/cc36lvKe.s 			page 17


     /tmp/cc36lvKe.s:461    .text:0000000000000230 .L0 
     /tmp/cc36lvKe.s:462    .text:0000000000000230 .L0 
     /tmp/cc36lvKe.s:464    .text:0000000000000234 .L0 
     /tmp/cc36lvKe.s:467    .text:0000000000000238 .L0 
     /tmp/cc36lvKe.s:470    .text:000000000000023c .L0 
     /tmp/cc36lvKe.s:472    .text:0000000000000240 .L0 
     /tmp/cc36lvKe.s:474    .text:0000000000000244 .L0 
     /tmp/cc36lvKe.s:481    .text:0000000000000244 .L0 
     /tmp/cc36lvKe.s:132    .text:00000000000000a0 .L0 
     /tmp/cc36lvKe.s:95     .text:0000000000000070 .L4
     /tmp/cc36lvKe.s:87     .text:0000000000000068 .L6
     /tmp/cc36lvKe.s:48     .text:0000000000000038 .L3
     /tmp/cc36lvKe.s:55     .text:0000000000000044 .L2
     /tmp/cc36lvKe.s:192    .text:00000000000000f8 .L8
     /tmp/cc36lvKe.s:168    .text:00000000000000d8 .L9
     /tmp/cc36lvKe.s:289    .text:0000000000000170 .L19
     /tmp/cc36lvKe.s:431    .text:000000000000021c .L25
     /tmp/cc36lvKe.s:402    .text:00000000000001f4 .L24
     /tmp/cc36lvKe.s:448    .text:0000000000000224 .L26
     /tmp/cc36lvKe.s:426    .text:0000000000000214 .L27
     /tmp/cc36lvKe.s:374    .text:00000000000001d4 .L23
     /tmp/cc36lvKe.s:368    .text:00000000000001d0 .L32
     /tmp/cc36lvKe.s:381    .text:00000000000001e0 .L22
     /tmp/cc36lvKe.s:1864   .debug_abbrev:0000000000000000 .Ldebug_abbrev0
     /tmp/cc36lvKe.s:3580   .debug_str:000000000000060f .LASF111
     /tmp/cc36lvKe.s:3396   .debug_str:000000000000007d .LASF112
     /tmp/cc36lvKe.s:3584   .debug_str:00000000000006ee .LASF113
     /tmp/cc36lvKe.s:5      .text:0000000000000000 .Ltext0
     /tmp/cc36lvKe.s:477    .text:0000000000000244 .Letext0
     /tmp/cc36lvKe.s:3374   .debug_line:0000000000000000 .Ldebug_line0
     /tmp/cc36lvKe.s:3512   .debug_str:000000000000042a .LASF0
     /tmp/cc36lvKe.s:3526   .debug_str:000000000000047c .LASF1
     /tmp/cc36lvKe.s:3498   .debug_str:00000000000003cd .LASF2
     /tmp/cc36lvKe.s:3470   .debug_str:00000000000002e7 .LASF4
     /tmp/cc36lvKe.s:3562   .debug_str:000000000000057d .LASF3
     /tmp/cc36lvKe.s:3404   .debug_str:00000000000000d5 .LASF5
     /tmp/cc36lvKe.s:3532   .debug_str:00000000000004b8 .LASF6
     /tmp/cc36lvKe.s:3510   .debug_str:0000000000000417 .LASF7
     /tmp/cc36lvKe.s:3592   .debug_str:000000000000071c .LASF8
     /tmp/cc36lvKe.s:3458   .debug_str:0000000000000289 .LASF9
     /tmp/cc36lvKe.s:3544   .debug_str:0000000000000506 .LASF10
     /tmp/cc36lvKe.s:3534   .debug_str:00000000000004cb .LASF11
     /tmp/cc36lvKe.s:3406   .debug_str:00000000000000dc .LASF12
     /tmp/cc36lvKe.s:3384   .debug_str:0000000000000027 .LASF13
     /tmp/cc36lvKe.s:3416   .debug_str:0000000000000126 .LASF14
     /tmp/cc36lvKe.s:3554   .debug_str:000000000000053b .LASF15
     /tmp/cc36lvKe.s:3428   .debug_str:0000000000000180 .LASF16
     /tmp/cc36lvKe.s:3376   .debug_str:0000000000000000 .LASF17
     /tmp/cc36lvKe.s:3466   .debug_str:00000000000002da .LASF43
     /tmp/cc36lvKe.s:3394   .debug_str:0000000000000075 .LASF53
     /tmp/cc36lvKe.s:3564   .debug_str:000000000000058f .LASF97
     /tmp/cc36lvKe.s:3408   .debug_str:00000000000000ec .LASF99
     /tmp/cc36lvKe.s:3524   .debug_str:0000000000000476 .LASF18
     /tmp/cc36lvKe.s:3426   .debug_str:000000000000016c .LASF20
     /tmp/cc36lvKe.s:3608   .debug_str:00000000000007a1 .LASF22
     /tmp/cc36lvKe.s:3508   .debug_str:0000000000000402 .LASF24
     /tmp/cc36lvKe.s:3390   .debug_str:0000000000000062 .LASF19
GAS LISTING /tmp/cc36lvKe.s 			page 18


     /tmp/cc36lvKe.s:3610   .debug_str:00000000000007a8 .LASF21
     /tmp/cc36lvKe.s:3516   .debug_str:000000000000043c .LASF34
     /tmp/cc36lvKe.s:3574   .debug_str:00000000000005db .LASF36
     /tmp/cc36lvKe.s:3588   .debug_str:0000000000000709 .LASF23
     /tmp/cc36lvKe.s:3538   .debug_str:00000000000004e5 .LASF25
     /tmp/cc36lvKe.s:3536   .debug_str:00000000000004da .LASF26
     /tmp/cc36lvKe.s:3496   .debug_str:00000000000003b2 .LASF27
     /tmp/cc36lvKe.s:3500   .debug_str:00000000000003db .LASF28
     /tmp/cc36lvKe.s:3492   .debug_str:000000000000037c .LASF29
     /tmp/cc36lvKe.s:3602   .debug_str:0000000000000779 .LASF30
     /tmp/cc36lvKe.s:3452   .debug_str:0000000000000246 .LASF31
     /tmp/cc36lvKe.s:3548   .debug_str:0000000000000521 .LASF114
     /tmp/cc36lvKe.s:3454   .debug_str:000000000000026d .LASF32
     /tmp/cc36lvKe.s:3400   .debug_str:0000000000000093 .LASF33
     /tmp/cc36lvKe.s:3556   .debug_str:0000000000000551 .LASF35
     /tmp/cc36lvKe.s:3576   .debug_str:00000000000005f2 .LASF37
     /tmp/cc36lvKe.s:3604   .debug_str:0000000000000789 .LASF38
     /tmp/cc36lvKe.s:3514   .debug_str:0000000000000437 .LASF39
     /tmp/cc36lvKe.s:3440   .debug_str:00000000000001df .LASF115
     /tmp/cc36lvKe.s:3620   .debug_str:00000000000007f0 .LASF40
     /tmp/cc36lvKe.s:3420   .debug_str:0000000000000146 .LASF41
     /tmp/cc36lvKe.s:3600   .debug_str:0000000000000762 .LASF42
     /tmp/cc36lvKe.s:3594   .debug_str:000000000000072c .LASF44
     /tmp/cc36lvKe.s:3474   .debug_str:00000000000002f7 .LASF45
     /tmp/cc36lvKe.s:3518   .debug_str:0000000000000445 .LASF46
     /tmp/cc36lvKe.s:3476   .debug_str:00000000000002fc .LASF47
     /tmp/cc36lvKe.s:3472   .debug_str:00000000000002ee .LASF48
     /tmp/cc36lvKe.s:3484   .debug_str:0000000000000336 .LASF116
     /tmp/cc36lvKe.s:3460   .debug_str:0000000000000297 .LASF117
     /tmp/cc36lvKe.s:3422   .debug_str:000000000000014f .LASF51
     /tmp/cc36lvKe.s:3490   .debug_str:0000000000000350 .LASF57
     /tmp/cc36lvKe.s:3482   .debug_str:000000000000032b .LASF118
     /tmp/cc36lvKe.s:3542   .debug_str:00000000000004fc .LASF49
     /tmp/cc36lvKe.s:3598   .debug_str:000000000000074e .LASF50
     /tmp/cc36lvKe.s:3464   .debug_str:00000000000002c6 .LASF119
     /tmp/cc36lvKe.s:3568   .debug_str:00000000000005a4 .LASF120
     /tmp/cc36lvKe.s:3572   .debug_str:00000000000005cd .LASF52
     /tmp/cc36lvKe.s:3586   .debug_str:0000000000000704 .LASF54
     /tmp/cc36lvKe.s:3550   .debug_str:0000000000000526 .LASF55
     /tmp/cc36lvKe.s:3618   .debug_str:00000000000007eb .LASF56
     /tmp/cc36lvKe.s:3388   .debug_str:000000000000003f .LASF58
     /tmp/cc36lvKe.s:3432   .debug_str:000000000000019c .LASF59
     /tmp/cc36lvKe.s:3504   .debug_str:00000000000003f3 .LASF60
     /tmp/cc36lvKe.s:3468   .debug_str:00000000000002e2 .LASF61
     /tmp/cc36lvKe.s:3616   .debug_str:00000000000007d4 .LASF62
     /tmp/cc36lvKe.s:3494   .debug_str:0000000000000397 .LASF63
     /tmp/cc36lvKe.s:3506   .debug_str:00000000000003f8 .LASF121
     /tmp/cc36lvKe.s:3582   .debug_str:00000000000006d3 .LASF122
     /tmp/cc36lvKe.s:3578   .debug_str:0000000000000606 .LASF64
     /tmp/cc36lvKe.s:3446   .debug_str:00000000000001f1 .LASF65
     /tmp/cc36lvKe.s:3456   .debug_str:0000000000000281 .LASF66
     /tmp/cc36lvKe.s:3520   .debug_str:000000000000044b .LASF67
     /tmp/cc36lvKe.s:3502   .debug_str:00000000000003e7 .LASF68
     /tmp/cc36lvKe.s:3528   .debug_str:000000000000048f .LASF69
     /tmp/cc36lvKe.s:3414   .debug_str:000000000000011c .LASF70
     /tmp/cc36lvKe.s:3448   .debug_str:0000000000000212 .LASF71
     /tmp/cc36lvKe.s:3522   .debug_str:000000000000046b .LASF72
GAS LISTING /tmp/cc36lvKe.s 			page 19


     /tmp/cc36lvKe.s:3558   .debug_str:0000000000000557 .LASF73
     /tmp/cc36lvKe.s:3480   .debug_str:0000000000000322 .LASF74
     /tmp/cc36lvKe.s:3478   .debug_str:0000000000000304 .LASF75
     /tmp/cc36lvKe.s:3444   .debug_str:00000000000001ec .LASF76
     /tmp/cc36lvKe.s:3410   .debug_str:0000000000000102 .LASF77
     /tmp/cc36lvKe.s:3430   .debug_str:0000000000000196 .LASF78
     /tmp/cc36lvKe.s:3486   .debug_str:0000000000000344 .LASF79
     /tmp/cc36lvKe.s:3530   .debug_str:00000000000004b1 .LASF80
     /tmp/cc36lvKe.s:3596   .debug_str:0000000000000744 .LASF81
     /tmp/cc36lvKe.s:3450   .debug_str:0000000000000231 .LASF82
     /tmp/cc36lvKe.s:3570   .debug_str:00000000000005c0 .LASF83
     /tmp/cc36lvKe.s:3380   .debug_str:000000000000001a .LASF84
     /tmp/cc36lvKe.s:3412   .debug_str:0000000000000107 .LASF85
     /tmp/cc36lvKe.s:3442   .debug_str:00000000000001e7 .LASF86
     /tmp/cc36lvKe.s:3552   .debug_str:000000000000052b .LASF87
     /tmp/cc36lvKe.s:3540   .debug_str:00000000000004f5 .LASF88
     /tmp/cc36lvKe.s:3462   .debug_str:00000000000002b4 .LASF89
     /tmp/cc36lvKe.s:3424   .debug_str:000000000000015d .LASF123
     /tmp/cc36lvKe.s:3398   .debug_str:000000000000008a .LASF90
     /tmp/cc36lvKe.s:3418   .debug_str:0000000000000132 .LASF91
     /tmp/cc36lvKe.s:3590   .debug_str:0000000000000712 .LASF92
     /tmp/cc36lvKe.s:3436   .debug_str:00000000000001c4 .LASF93
     /tmp/cc36lvKe.s:3546   .debug_str:0000000000000515 .LASF94
     /tmp/cc36lvKe.s:3386   .debug_str:0000000000000037 .LASF95
     /tmp/cc36lvKe.s:3614   .debug_str:00000000000007c1 .LASF96
     /tmp/cc36lvKe.s:3438   .debug_str:00000000000001d9 .LASF98
     /tmp/cc36lvKe.s:3378   .debug_str:0000000000000009 .LASF100
     /tmp/cc36lvKe.s:3612   .debug_str:00000000000007bc .LASF101
     /tmp/cc36lvKe.s:3434   .debug_str:00000000000001a1 .LASF103
     /tmp/cc36lvKe.s:3560   .debug_str:0000000000000578 .LASF102
     /tmp/cc36lvKe.s:3402   .debug_str:00000000000000be .LASF104
     /tmp/cc36lvKe.s:321    .text:000000000000019c .LFB30
     /tmp/cc36lvKe.s:475    .text:0000000000000244 .LFE30
     /tmp/cc36lvKe.s:3382   .debug_str:0000000000000022 .LASF105
     /tmp/cc36lvKe.s:2953   .debug_loc:0000000000000000 .LLST21
     /tmp/cc36lvKe.s:363    .text:00000000000001c8 .LBB58
     /tmp/cc36lvKe.s:441    .text:000000000000021c .LBE58
     /tmp/cc36lvKe.s:2986   .debug_loc:0000000000000088 .LLST25
     /tmp/cc36lvKe.s:3348   .debug_ranges:0000000000000000 .Ldebug_ranges0
     /tmp/cc36lvKe.s:3002   .debug_loc:00000000000000d2 .LLST26
     /tmp/cc36lvKe.s:370    .text:00000000000001d0 .LBB60
     /tmp/cc36lvKe.s:3009   .debug_loc:00000000000000f5 .LLST27
     /tmp/cc36lvKe.s:3024   .debug_loc:000000000000012f .LLST28
     /tmp/cc36lvKe.s:3035   .debug_loc:0000000000000165 .LLST29
     /tmp/cc36lvKe.s:380    .text:00000000000001e0 .LVL37
     /tmp/cc36lvKe.s:385    .text:00000000000001e0 .LBB63
     /tmp/cc36lvKe.s:392    .text:00000000000001e4 .LBE63
     /tmp/cc36lvKe.s:3042   .debug_loc:0000000000000188 .LLST30
     /tmp/cc36lvKe.s:3050   .debug_loc:00000000000001ac .LLST31
     /tmp/cc36lvKe.s:397    .text:00000000000001f0 .LVL39
     /tmp/cc36lvKe.s:326    .text:000000000000019c .LBB54
     /tmp/cc36lvKe.s:333    .text:00000000000001a0 .LBE54
     /tmp/cc36lvKe.s:3057   .debug_loc:00000000000001cf .LLST22
     /tmp/cc36lvKe.s:354    .text:00000000000001c4 .LBB56
     /tmp/cc36lvKe.s:361    .text:00000000000001c8 .LBE56
     /tmp/cc36lvKe.s:3064   .debug_loc:00000000000001f2 .LLST23
     /tmp/cc36lvKe.s:3072   .debug_loc:0000000000000216 .LLST24
GAS LISTING /tmp/cc36lvKe.s 			page 20


     /tmp/cc36lvKe.s:269    .text:0000000000000154 .LFB29
     /tmp/cc36lvKe.s:315    .text:000000000000019c .LFE29
     /tmp/cc36lvKe.s:3079   .debug_loc:0000000000000239 .LLST20
     /tmp/cc36lvKe.s:302    .text:0000000000000188 .LVL30
     /tmp/cc36lvKe.s:209    .text:0000000000000104 .LFB28
     /tmp/cc36lvKe.s:263    .text:0000000000000154 .LFE28
     /tmp/cc36lvKe.s:3104   .debug_loc:000000000000029b .LLST16
     /tmp/cc36lvKe.s:230    .text:0000000000000128 .LBB50
     /tmp/cc36lvKe.s:250    .text:0000000000000140 .LBE50
     /tmp/cc36lvKe.s:3118   .debug_loc:00000000000002d4 .LLST17
     /tmp/cc36lvKe.s:3125   .debug_loc:00000000000002f7 .LLST18
     /tmp/cc36lvKe.s:236    .text:000000000000012c .LBB52
     /tmp/cc36lvKe.s:243    .text:0000000000000134 .LBE52
     /tmp/cc36lvKe.s:3132   .debug_loc:000000000000031a .LLST19
     /tmp/cc36lvKe.s:229    .text:0000000000000128 .LVL23
     /tmp/cc36lvKe.s:108    .text:0000000000000078 .LFB27
     /tmp/cc36lvKe.s:203    .text:0000000000000104 .LFE27
     /tmp/cc36lvKe.s:3141   .debug_loc:000000000000033f .LLST7
     /tmp/cc36lvKe.s:135    .text:00000000000000ac .LBB42
     /tmp/cc36lvKe.s:143    .text:00000000000000b4 .LBE42
     /tmp/cc36lvKe.s:3163   .debug_loc:000000000000039e .LLST8
     /tmp/cc36lvKe.s:3171   .debug_loc:00000000000003c2 .LLST9
     /tmp/cc36lvKe.s:145    .text:00000000000000b4 .LBB44
     /tmp/cc36lvKe.s:3178   .debug_loc:00000000000003e5 .LLST10
     /tmp/cc36lvKe.s:3189   .debug_loc:000000000000041b .LLST11
     /tmp/cc36lvKe.s:3210   .debug_loc:000000000000046a .LLST12
     /tmp/cc36lvKe.s:152    .text:00000000000000c0 .LBB46
     /tmp/cc36lvKe.s:159    .text:00000000000000c8 .LBE46
     /tmp/cc36lvKe.s:3221   .debug_loc:00000000000004a0 .LLST13
     /tmp/cc36lvKe.s:3229   .debug_loc:00000000000004c4 .LLST14
     /tmp/cc36lvKe.s:3236   .debug_loc:00000000000004e7 .LLST15
     /tmp/cc36lvKe.s:151    .text:00000000000000c0 .LVL15
     /tmp/cc36lvKe.s:175    .text:00000000000000e0 .LVL18
     /tmp/cc36lvKe.s:10     .text:0000000000000000 .LFB26
     /tmp/cc36lvKe.s:102    .text:0000000000000078 .LFE26
     /tmp/cc36lvKe.s:3243   .debug_loc:000000000000050a .LLST0
     /tmp/cc36lvKe.s:3265   .debug_loc:0000000000000569 .LLST1
     /tmp/cc36lvKe.s:33     .text:0000000000000024 .LBB36
     /tmp/cc36lvKe.s:3272   .debug_loc:000000000000058c .LLST2
     /tmp/cc36lvKe.s:3302   .debug_loc:00000000000005f3 .LLST3
     /tmp/cc36lvKe.s:3313   .debug_loc:0000000000000629 .LLST4
     /tmp/cc36lvKe.s:54     .text:0000000000000044 .LVL5
     /tmp/cc36lvKe.s:59     .text:0000000000000044 .LBB39
     /tmp/cc36lvKe.s:67     .text:0000000000000048 .LBE39
     /tmp/cc36lvKe.s:3320   .debug_loc:000000000000064c .LLST5
     /tmp/cc36lvKe.s:3328   .debug_loc:0000000000000670 .LLST6
     /tmp/cc36lvKe.s:72     .text:0000000000000054 .LVL7
     /tmp/cc36lvKe.s:3392   .debug_str:0000000000000068 .LASF106
     /tmp/cc36lvKe.s:3622   .debug_str:00000000000007f7 .LASF107
     /tmp/cc36lvKe.s:3566   .debug_str:0000000000000594 .LASF109
     /tmp/cc36lvKe.s:3488   .debug_str:000000000000034a .LASF108
     /tmp/cc36lvKe.s:3606   .debug_str:0000000000000794 .LASF110
     /tmp/cc36lvKe.s:324    .text:000000000000019c .LVL31
     /tmp/cc36lvKe.s:367    .text:00000000000001d0 .LVL35
     /tmp/cc36lvKe.s:430    .text:000000000000021c .LVL44
     /tmp/cc36lvKe.s:444    .text:0000000000000220 .LVL45
     /tmp/cc36lvKe.s:447    .text:0000000000000224 .LVL46
GAS LISTING /tmp/cc36lvKe.s 			page 21


     /tmp/cc36lvKe.s:465    .text:0000000000000234 .LVL47
     /tmp/cc36lvKe.s:359    .text:00000000000001c8 .LVL34
     /tmp/cc36lvKe.s:468    .text:0000000000000238 .LVL48
     /tmp/cc36lvKe.s:401    .text:00000000000001f4 .LVL40
     /tmp/cc36lvKe.s:410    .text:00000000000001fc .LVL41
     /tmp/cc36lvKe.s:417    .text:0000000000000204 .LVL42
     /tmp/cc36lvKe.s:425    .text:0000000000000214 .LVL43
     /tmp/cc36lvKe.s:377    .text:00000000000001d8 .LVL36
     /tmp/cc36lvKe.s:390    .text:00000000000001e4 .LVL38
     /tmp/cc36lvKe.s:331    .text:00000000000001a0 .LVL32
     /tmp/cc36lvKe.s:353    .text:00000000000001c4 .LVL33
     /tmp/cc36lvKe.s:272    .text:0000000000000154 .LVL27
     /tmp/cc36lvKe.s:286    .text:000000000000016c .LVL28
     /tmp/cc36lvKe.s:288    .text:0000000000000170 .LVL29
     /tmp/cc36lvKe.s:212    .text:0000000000000104 .LVL21
     /tmp/cc36lvKe.s:227    .text:0000000000000120 .LVL22
     /tmp/cc36lvKe.s:248    .text:0000000000000140 .LVL26
     /tmp/cc36lvKe.s:235    .text:000000000000012c .LVL24
     /tmp/cc36lvKe.s:241    .text:0000000000000134 .LVL25
     /tmp/cc36lvKe.s:111    .text:0000000000000078 .LVL11
     /tmp/cc36lvKe.s:149    .text:00000000000000b8 .LVL14
     /tmp/cc36lvKe.s:185    .text:00000000000000ec .LVL19
     /tmp/cc36lvKe.s:191    .text:00000000000000f8 .LVL20
     /tmp/cc36lvKe.s:134    .text:00000000000000ac .LVL12
     /tmp/cc36lvKe.s:141    .text:00000000000000b4 .LVL13
     /tmp/cc36lvKe.s:169    .text:00000000000000d8 .LVL17
     /tmp/cc36lvKe.s:157    .text:00000000000000c8 .LVL16
     /tmp/cc36lvKe.s:14     .text:0000000000000000 .LVL0
     /tmp/cc36lvKe.s:38     .text:0000000000000028 .LVL2
     /tmp/cc36lvKe.s:86     .text:0000000000000068 .LVL9
     /tmp/cc36lvKe.s:82     .text:0000000000000060 .LVL8
     /tmp/cc36lvKe.s:32     .text:0000000000000024 .LVL1
     /tmp/cc36lvKe.s:41     .text:000000000000002c .LVL3
     /tmp/cc36lvKe.s:94     .text:0000000000000070 .LVL10
     /tmp/cc36lvKe.s:51     .text:000000000000003c .LVL4
     /tmp/cc36lvKe.s:65     .text:0000000000000048 .LVL6
     /tmp/cc36lvKe.s:482    .debug_info:0000000000000000 .Ldebug_info0
     /tmp/cc36lvKe.s:57     .text:0000000000000044 .LBE36
     /tmp/cc36lvKe.s:89     .text:0000000000000068 .LBB41
     /tmp/cc36lvKe.s:100    .text:0000000000000078 .LBE41
     /tmp/cc36lvKe.s:171    .text:00000000000000d8 .LBE44
     /tmp/cc36lvKe.s:194    .text:00000000000000f8 .LBB49
     /tmp/cc36lvKe.s:201    .text:0000000000000104 .LBE49
     /tmp/cc36lvKe.s:369    .text:00000000000001d0 .LBB59
     /tmp/cc36lvKe.s:398    .text:00000000000001f0 .LBE59
     /tmp/cc36lvKe.s:408    .text:00000000000001fc .LBB66
     /tmp/cc36lvKe.s:440    .text:000000000000021c .LBE66
     /tmp/cc36lvKe.s:383    .text:00000000000001e0 .LBE60
     /tmp/cc36lvKe.s:411    .text:00000000000001fc .LBB65
     /tmp/cc36lvKe.s:439    .text:000000000000021c .LBE65

UNDEFINED SYMBOLS
_ZdlPv
_ZN9Scheduler3putEP7_thread
_ZN7_thread7runningE
_Znwm
_ZN7_thread5yieldEv
GAS LISTING /tmp/cc36lvKe.s 			page 22


