GAS LISTING /tmp/ccByyJkZ.s 			page 1


   1              		.file	"ccb.cpp"
   2              		.option pic
   3              		.option norelax
   4              		.text
   5              	.Ltext0:
   6              		.align	2
   7              		.globl	_ZN7_thread13threadWrapperEv
   9              	_ZN7_thread13threadWrapperEv:
  10              	.LFB41:
  11              		.file 1 "src/ccb.cpp"
   1:src/ccb.cpp   **** //
   2:src/ccb.cpp   **** // Created by marko on 20.4.22..
   3:src/ccb.cpp   **** //
   4:src/ccb.cpp   **** 
   5:src/ccb.cpp   **** #include "../h/ccb.hpp"
   6:src/ccb.cpp   **** #include "../h/riscv.hpp"
   7:src/ccb.cpp   **** #include "../h/printing.hpp"
   8:src/ccb.cpp   **** 
   9:src/ccb.cpp   **** _thread * _thread::running = nullptr;
  10:src/ccb.cpp   **** uint64 _thread::ID = 0;
  11:src/ccb.cpp   **** 
  12:src/ccb.cpp   **** _thread * _thread::createCoroutine(Body body,void* arg)
  13:src/ccb.cpp   **** {
  14:src/ccb.cpp   ****     return new  _thread(body,arg);
  15:src/ccb.cpp   **** }
  16:src/ccb.cpp   **** 
  17:src/ccb.cpp   **** void  _thread::yield()
  18:src/ccb.cpp   **** {
  19:src/ccb.cpp   ****     Riscv::pushRegisters();
  20:src/ccb.cpp   **** 
  21:src/ccb.cpp   ****     _thread::dispatch();
  22:src/ccb.cpp   **** 
  23:src/ccb.cpp   ****     Riscv::popRegisters();
  24:src/ccb.cpp   **** }
  25:src/ccb.cpp   **** 
  26:src/ccb.cpp   **** void  _thread::dispatch()
  27:src/ccb.cpp   **** {
  28:src/ccb.cpp   ****     _thread *old = running;
  29:src/ccb.cpp   ****     if (!old->isFinished() && !old->isblk()) {
  30:src/ccb.cpp   ****         Scheduler::put(old);
  31:src/ccb.cpp   ****     }/*else{
  32:src/ccb.cpp   ****         printString("OVA NIJE STAVLJENA JER JE GOTOVA\n");
  33:src/ccb.cpp   ****     }*/
  34:src/ccb.cpp   ****     running = Scheduler::get();
  35:src/ccb.cpp   ****     /*if(_thread :: running->id == 0){
  36:src/ccb.cpp   ****         Riscv::ms_sstatus(Riscv::SSTATUS_SPP);
  37:src/ccb.cpp   ****     }else{
  38:src/ccb.cpp   ****         Riscv::mc_sstatus(Riscv::SSTATUS_SPP);
  39:src/ccb.cpp   ****         //Riscv::ms_sstatus(Riscv::SSTATUS_SPP);
  40:src/ccb.cpp   ****     }*/
  41:src/ccb.cpp   ****     _thread::contextSwitch(&old->context, &running->context);
  42:src/ccb.cpp   **** }
  43:src/ccb.cpp   **** 
  44:src/ccb.cpp   **** void _thread ::rasetter() {
  45:src/ccb.cpp   ****     context.ra = (uint64) &threadWrapper;
  46:src/ccb.cpp   **** 
  47:src/ccb.cpp   **** }
GAS LISTING /tmp/ccByyJkZ.s 			page 2


  48:src/ccb.cpp   **** 
  49:src/ccb.cpp   **** void _thread ::threadWrapper() {
  12              		.loc 1 49 32
  13              		.cfi_startproc
  14 0000 130101FE 		addi	sp,sp,-32
  15              		.cfi_def_cfa_offset 32
  16 0004 233C1100 		sd	ra,24(sp)
  17 0008 23388100 		sd	s0,16(sp)
  18 000c 23349100 		sd	s1,8(sp)
  19              		.cfi_offset 1, -8
  20              		.cfi_offset 8, -16
  21              		.cfi_offset 9, -24
  22 0010 13040102 		addi	s0,sp,32
  23              		.cfi_def_cfa 8, 0
  50:src/ccb.cpp   ****     Riscv :: Rezim();
  24              		.loc 1 50 5
  25              		.loc 1 50 19 is_stmt 0
  26 0014 97000000 		call	_ZN5Riscv5RezimEv@plt
  26      E7800000 
  27              	.LVL0:
  51:src/ccb.cpp   ****     running->body(running->argo);
  28              		.loc 1 51 5 is_stmt 1
  29              		.loc 1 51 14 is_stmt 0
  30 001c 97040000 		lla	s1,.LANCHOR0
  30      93840400 
  31 0024 83B70400 		ld	a5,0(s1)
  32 0028 03B70702 		ld	a4,32(a5)
  33              		.loc 1 51 18
  34 002c 03B58700 		ld	a0,8(a5)
  35 0030 E7000700 		jalr	a4
  36              	.LVL1:
  52:src/ccb.cpp   ****     //ako uspes nadji drugi nacin
  53:src/ccb.cpp   ****     running->setFinished(true);
  37              		.loc 1 53 5 is_stmt 1
  38              		.loc 1 53 25 is_stmt 0
  39 0034 83B70400 		ld	a5,0(s1)
  40              	.LVL2:
  41              	.LBB10:
  42              	.LBB11:
  43              		.file 2 "src/../h/ccb.hpp"
   1:src/../h/ccb.hpp **** //
   2:src/../h/ccb.hpp **** // Created by marko on 20.4.22..
   3:src/../h/ccb.hpp **** //
   4:src/../h/ccb.hpp **** 
   5:src/../h/ccb.hpp **** #ifndef OS1_VEZBE07_RISCV_CONTEXT_SWITCH_1_SYNCHRONOUS_CCB_HPP
   6:src/../h/ccb.hpp **** #define OS1_VEZBE07_RISCV_CONTEXT_SWITCH_1_SYNCHRONOUS_CCB_HPP
   7:src/../h/ccb.hpp **** 
   8:src/../h/ccb.hpp **** #include "../lib/hw.h"
   9:src/../h/ccb.hpp **** #include "scheduler.hpp"
  10:src/../h/ccb.hpp **** 
  11:src/../h/ccb.hpp **** //#include "../h/_sem.hpp"
  12:src/../h/ccb.hpp **** 
  13:src/../h/ccb.hpp **** // Coroutine Control Block
  14:src/../h/ccb.hpp **** class  _thread
  15:src/../h/ccb.hpp **** {
  16:src/../h/ccb.hpp **** public:
  17:src/../h/ccb.hpp **** 
GAS LISTING /tmp/ccByyJkZ.s 			page 3


  18:src/../h/ccb.hpp ****     //novo
  19:src/../h/ccb.hpp ****     static void join(thread_t* handle);
  20:src/../h/ccb.hpp ****     bool isblk(){return blk;}
  21:src/../h/ccb.hpp ****     void setblk(bool val){blk = val;}
  22:src/../h/ccb.hpp ****     uint64 retID(){return this->id;}
  23:src/../h/ccb.hpp ****     static void dispatch();
  24:src/../h/ccb.hpp **** 
  25:src/../h/ccb.hpp ****     ~ _thread() { delete[] stack; }
  26:src/../h/ccb.hpp **** 
  27:src/../h/ccb.hpp ****     bool isFinished() const { return finished; }
  28:src/../h/ccb.hpp **** 
  29:src/../h/ccb.hpp **** 
  30:src/../h/ccb.hpp **** 
  31:src/../h/ccb.hpp ****     void setFinished(bool value) { finished = value; }
  44              		.loc 2 31 36 is_stmt 1
  45              		.loc 2 31 45 is_stmt 0
  46 0038 13071000 		li	a4,1
  47 003c 2380E704 		sb	a4,64(a5)
  48              	.LVL3:
  49              	.LBE11:
  50              	.LBE10:
  54:src/ccb.cpp   ****     //printString("IZASAO IZ NITI ");
  55:src/ccb.cpp   ****     //printInt(_thread :: running->retID());
  56:src/ccb.cpp   ****     //printString("\n");
  57:src/ccb.cpp   ****     thread_dispatch();
  51              		.loc 1 57 5 is_stmt 1
  52              		.loc 1 57 20 is_stmt 0
  53 0040 97000000 		call	_Z15thread_dispatchv@plt
  53      E7800000 
  54              	.LVL4:
  58:src/ccb.cpp   ****     //_thread :: dispatch();
  59:src/ccb.cpp   **** }
  55              		.loc 1 59 1
  56 0048 83308101 		ld	ra,24(sp)
  57              		.cfi_restore 1
  58 004c 03340101 		ld	s0,16(sp)
  59              		.cfi_restore 8
  60              		.cfi_def_cfa 2, 32
  61 0050 83348100 		ld	s1,8(sp)
  62              		.cfi_restore 9
  63 0054 13010102 		addi	sp,sp,32
  64              		.cfi_def_cfa_offset 0
  65 0058 67800000 		jr	ra
  66              		.cfi_endproc
  67              	.LFE41:
  69              		.align	2
  70              		.globl	_ZN7_thread15createCoroutineEPFvPvES0_
  72              	_ZN7_thread15createCoroutineEPFvPvES0_:
  73              	.LFB37:
  13:src/ccb.cpp   ****     return new  _thread(body,arg);
  74              		.loc 1 13 1 is_stmt 1
  75              		.cfi_startproc
  76              		.cfi_personality 0x9b,DW.ref.__gxx_personality_v0
  77              		.cfi_lsda 0x1b,.LLSDA37
  78              	.LVL5:
  79 005c 130101FD 		addi	sp,sp,-48
  80              		.cfi_def_cfa_offset 48
GAS LISTING /tmp/ccByyJkZ.s 			page 4


  81 0060 23341102 		sd	ra,40(sp)
  82 0064 23308102 		sd	s0,32(sp)
  83 0068 233C9100 		sd	s1,24(sp)
  84 006c 23382101 		sd	s2,16(sp)
  85 0070 23343101 		sd	s3,8(sp)
  86              		.cfi_offset 1, -8
  87              		.cfi_offset 8, -16
  88              		.cfi_offset 9, -24
  89              		.cfi_offset 18, -32
  90              		.cfi_offset 19, -40
  91 0074 13040103 		addi	s0,sp,48
  92              		.cfi_def_cfa 8, 0
  93 0078 13090500 		mv	s2,a0
  94 007c 93890500 		mv	s3,a1
  14:src/ccb.cpp   **** }
  95              		.loc 1 14 5
  14:src/ccb.cpp   **** }
  96              		.loc 1 14 33 is_stmt 0
  97 0080 13058004 		li	a0,72
  98              	.LVL6:
  99              	.LEHB0:
 100 0084 97000000 		call	_Znwm@plt
 100      E7800000 
 101              	.LVL7:
 102              	.LEHE0:
 103 008c 93040500 		mv	s1,a0
 104              	.LVL8:
 105              	.LBB15:
 106              	.LBB16:
  32:src/../h/ccb.hpp **** 
  33:src/../h/ccb.hpp ****     using Body = void (*)(void*);
  34:src/../h/ccb.hpp **** 
  35:src/../h/ccb.hpp ****     static  _thread *createCoroutine(Body body,void* arg);
  36:src/../h/ccb.hpp ****     static _thread* createCouroutineCPP(Body body,void* arg);
  37:src/../h/ccb.hpp **** 
  38:src/../h/ccb.hpp ****     static void yield();
  39:src/../h/ccb.hpp ****     void* wrapington;
  40:src/../h/ccb.hpp ****     void* argo;
  41:src/../h/ccb.hpp ****     static  _thread *running;
  42:src/../h/ccb.hpp ****     friend class  _sem;
  43:src/../h/ccb.hpp ****     int IDWait = 0;
  44:src/../h/ccb.hpp ****     void rasetter();
  45:src/../h/ccb.hpp **** private:
  46:src/../h/ccb.hpp ****     static uint64 ID;
  47:src/../h/ccb.hpp ****     uint64 id;
  48:src/../h/ccb.hpp ****     explicit  _thread(Body bd,void* arg) :
  49:src/../h/ccb.hpp ****             argo(arg),
  50:src/../h/ccb.hpp ****             body(bd),
  51:src/../h/ccb.hpp ****             stack(body != nullptr ? new uint64[DEFAULT_STACK_SIZE] : nullptr),
  52:src/../h/ccb.hpp ****             context({(uint64) &threadWrapper,
  53:src/../h/ccb.hpp ****                      stack != nullptr ? (uint64) &stack[DEFAULT_STACK_SIZE] : 0
  54:src/../h/ccb.hpp ****                     }),
  55:src/../h/ccb.hpp ****             finished(false)
 107              		.loc 2 55 27
 108 0090 23343501 		sd	s3,8(a0)
 109 0094 23280500 		sw	zero,16(a0)
 110 0098 23302503 		sd	s2,32(a0)
GAS LISTING /tmp/ccByyJkZ.s 			page 5


  51:src/../h/ccb.hpp ****             context({(uint64) &threadWrapper,
 111              		.loc 2 51 35
 112 009c 630A0900 		beqz	s2,.L7
  51:src/../h/ccb.hpp ****             context({(uint64) &threadWrapper,
 113              		.loc 2 51 66
 114 00a0 37850000 		li	a0,32768
 115              	.LEHB1:
 116 00a4 97000000 		call	_Znam@plt
 116      E7800000 
 117              	.LVL9:
 118              	.LEHE1:
 119 00ac 6F008000 		j	.L4
 120              	.L7:
  51:src/../h/ccb.hpp ****             context({(uint64) &threadWrapper,
 121              		.loc 2 51 35
 122 00b0 13050000 		li	a0,0
 123              	.L4:
 124              		.loc 2 55 27
 125 00b4 23B4A402 		sd	a0,40(s1)
 126 00b8 97070000 		lla	a5,_ZN7_thread13threadWrapperEv
 126      93870700 
 127 00c0 23B8F402 		sd	a5,48(s1)
  53:src/../h/ccb.hpp ****                     }),
 128              		.loc 2 53 39
 129 00c4 63080504 		beqz	a0,.L8
  53:src/../h/ccb.hpp ****                     }),
 130              		.loc 2 53 50
 131 00c8 B7870000 		li	a5,32768
 132 00cc 3305F500 		add	a0,a0,a5
 133              	.L5:
 134              		.loc 2 55 27
 135 00d0 23BCA402 		sd	a0,56(s1)
 136 00d4 23800404 		sb	zero,64(s1)
  56:src/../h/ccb.hpp ****     {
  57:src/../h/ccb.hpp ****         blk = false;
 137              		.loc 2 57 9 is_stmt 1
 138              		.loc 2 57 13 is_stmt 0
 139 00d8 A3800404 		sb	zero,65(s1)
  58:src/../h/ccb.hpp ****         this->id = ID++;
 140              		.loc 2 58 9 is_stmt 1
 141              		.loc 2 58 22 is_stmt 0
 142 00dc 17070000 		lla	a4,.LANCHOR0
 142      13070700 
 143 00e4 83378700 		ld	a5,8(a4)
 144 00e8 93861700 		addi	a3,a5,1
 145 00ec 2334D700 		sd	a3,8(a4)
 146              		.loc 2 58 18
 147 00f0 23BCF400 		sd	a5,24(s1)
  59:src/../h/ccb.hpp ****         this->finished = false;
 148              		.loc 2 59 9 is_stmt 1
 149              	.LVL10:
 150              	.LBE16:
 151              	.LBE15:
  15:src/ccb.cpp   **** 
 152              		.loc 1 15 1 is_stmt 0
 153 00f4 13850400 		mv	a0,s1
 154 00f8 83308102 		ld	ra,40(sp)
GAS LISTING /tmp/ccByyJkZ.s 			page 6


 155              		.cfi_remember_state
 156              		.cfi_restore 1
 157 00fc 03340102 		ld	s0,32(sp)
 158              		.cfi_restore 8
 159              		.cfi_def_cfa 2, 48
 160 0100 83348101 		ld	s1,24(sp)
 161              		.cfi_restore 9
 162 0104 03390101 		ld	s2,16(sp)
 163              		.cfi_restore 18
 164              	.LVL11:
 165 0108 83398100 		ld	s3,8(sp)
 166              		.cfi_restore 19
 167              	.LVL12:
 168 010c 13010103 		addi	sp,sp,48
 169              		.cfi_def_cfa_offset 0
 170 0110 67800000 		jr	ra
 171              	.LVL13:
 172              	.L8:
 173              		.cfi_restore_state
 174              	.LBB18:
 175              	.LBB17:
  53:src/../h/ccb.hpp ****                     }),
 176              		.loc 2 53 39
 177 0114 13050000 		li	a0,0
 178 0118 6FF09FFB 		j	.L5
 179              	.L9:
 180 011c 13090500 		mv	s2,a0
 181              	.LVL14:
 182              	.LBE17:
 183              	.LBE18:
  14:src/ccb.cpp   **** }
 184              		.loc 1 14 33
 185 0120 13850400 		mv	a0,s1
 186 0124 97000000 		call	_ZdlPv@plt
 186      E7800000 
 187              	.LVL15:
 188 012c 13050900 		mv	a0,s2
 189              	.LEHB2:
 190 0130 97000000 		call	_Unwind_Resume@plt
 190      E7800000 
 191              	.LVL16:
 192              	.LEHE2:
 193              		.cfi_endproc
 194              	.LFE37:
 195              		.globl	__gxx_personality_v0
 196              		.section	.gcc_except_table,"a",@progbits
 197              	.LLSDA37:
 198 0000 FF       		.byte	0xff
 199 0001 FF       		.byte	0xff
 200 0002 03       		.byte	0x3
 201 0003 27       		.byte	0x27
 202 0004 00000000 		.4byte	.LEHB0-.LFB37
 203 0008 00000000 		.4byte	.LEHE0-.LEHB0
 204 000c 00000000 		.4byte	0
 205 0010 00       		.byte	0
 206 0011 00000000 		.4byte	.LEHB1-.LFB37
 207 0015 00000000 		.4byte	.LEHE1-.LEHB1
GAS LISTING /tmp/ccByyJkZ.s 			page 7


 208 0019 00000000 		.4byte	.L9-.LFB37
 209 001d 00       		.byte	0
 210 001e 00000000 		.4byte	.LEHB2-.LFB37
 211 0022 00000000 		.4byte	.LEHE2-.LEHB2
 212 0026 00000000 		.4byte	0
 213 002a 00       		.byte	0
 214              		.text
 216              		.align	2
 217              		.globl	_ZN7_thread8dispatchEv
 219              	_ZN7_thread8dispatchEv:
 220              	.LFB39:
  27:src/ccb.cpp   ****     _thread *old = running;
 221              		.loc 1 27 1 is_stmt 1
 222              		.cfi_startproc
 223 0138 130101FE 		addi	sp,sp,-32
 224              		.cfi_def_cfa_offset 32
 225 013c 233C1100 		sd	ra,24(sp)
 226 0140 23388100 		sd	s0,16(sp)
 227 0144 23349100 		sd	s1,8(sp)
 228              		.cfi_offset 1, -8
 229              		.cfi_offset 8, -16
 230              		.cfi_offset 9, -24
 231 0148 13040102 		addi	s0,sp,32
 232              		.cfi_def_cfa 8, 0
  28:src/ccb.cpp   ****     if (!old->isFinished() && !old->isblk()) {
 233              		.loc 1 28 5
  28:src/ccb.cpp   ****     if (!old->isFinished() && !old->isblk()) {
 234              		.loc 1 28 14 is_stmt 0
 235 014c 97040000 		ld	s1,.LANCHOR0
 235      83B40400 
 236              	.LVL17:
  29:src/ccb.cpp   ****         Scheduler::put(old);
 237              		.loc 1 29 5 is_stmt 1
 238              	.LBB19:
 239              	.LBB20:
  27:src/../h/ccb.hpp **** 
 240              		.loc 2 27 31
  27:src/../h/ccb.hpp **** 
 241              		.loc 2 27 38 is_stmt 0
 242 0154 83C70404 		lbu	a5,64(s1)
 243              	.LVL18:
 244              	.LBE20:
 245              	.LBE19:
  29:src/ccb.cpp   ****         Scheduler::put(old);
 246              		.loc 1 29 28
 247 0158 63960700 		bnez	a5,.L13
 248              	.LVL19:
 249              	.LBB21:
 250              	.LBB22:
  20:src/../h/ccb.hpp ****     void setblk(bool val){blk = val;}
 251              		.loc 2 20 18 is_stmt 1
  20:src/../h/ccb.hpp ****     void setblk(bool val){blk = val;}
 252              		.loc 2 20 25 is_stmt 0
 253 015c 83C71404 		lbu	a5,65(s1)
 254              	.LVL20:
 255              	.LBE22:
 256              	.LBE21:
GAS LISTING /tmp/ccByyJkZ.s 			page 8


  29:src/ccb.cpp   ****         Scheduler::put(old);
 257              		.loc 1 29 28
 258 0160 638C0702 		beqz	a5,.L15
 259              	.L13:
  34:src/ccb.cpp   ****     /*if(_thread :: running->id == 0){
 260              		.loc 1 34 5 is_stmt 1
  34:src/ccb.cpp   ****     /*if(_thread :: running->id == 0){
 261              		.loc 1 34 29 is_stmt 0
 262 0164 97000000 		call	_ZN9Scheduler3getEv@plt
 262      E7800000 
 263              	.LVL21:
  34:src/ccb.cpp   ****     /*if(_thread :: running->id == 0){
 264              		.loc 1 34 13
 265 016c 97070000 		sd	a0,.LANCHOR0,a5
 265      23B0A700 
  41:src/ccb.cpp   **** }
 266              		.loc 1 41 5 is_stmt 1
  41:src/ccb.cpp   **** }
 267              		.loc 1 41 27 is_stmt 0
 268 0174 93050503 		addi	a1,a0,48
 269 0178 13850403 		addi	a0,s1,48
 270 017c 97000000 		call	_ZN7_thread13contextSwitchEPNS_7ContextES1_@plt
 270      E7800000 
 271              	.LVL22:
  42:src/ccb.cpp   **** 
 272              		.loc 1 42 1
 273 0184 83308101 		ld	ra,24(sp)
 274              		.cfi_remember_state
 275              		.cfi_restore 1
 276 0188 03340101 		ld	s0,16(sp)
 277              		.cfi_restore 8
 278              		.cfi_def_cfa 2, 32
 279 018c 83348100 		ld	s1,8(sp)
 280              		.cfi_restore 9
 281              	.LVL23:
 282 0190 13010102 		addi	sp,sp,32
 283              		.cfi_def_cfa_offset 0
 284 0194 67800000 		jr	ra
 285              	.LVL24:
 286              	.L15:
 287              		.cfi_restore_state
  30:src/ccb.cpp   ****     }/*else{
 288              		.loc 1 30 9 is_stmt 1
  30:src/ccb.cpp   ****     }/*else{
 289              		.loc 1 30 23 is_stmt 0
 290 0198 13850400 		mv	a0,s1
 291 019c 97000000 		call	_ZN9Scheduler3putEP7_thread@plt
 291      E7800000 
 292              	.LVL25:
 293 01a4 6FF01FFC 		j	.L13
 294              		.cfi_endproc
 295              	.LFE39:
 297              		.align	2
 298              		.globl	_ZN7_thread5yieldEv
 300              	_ZN7_thread5yieldEv:
 301              	.LFB38:
  18:src/ccb.cpp   ****     Riscv::pushRegisters();
GAS LISTING /tmp/ccByyJkZ.s 			page 9


 302              		.loc 1 18 1 is_stmt 1
 303              		.cfi_startproc
 304 01a8 130101FF 		addi	sp,sp,-16
 305              		.cfi_def_cfa_offset 16
 306 01ac 23341100 		sd	ra,8(sp)
 307 01b0 23308100 		sd	s0,0(sp)
 308              		.cfi_offset 1, -8
 309              		.cfi_offset 8, -16
 310 01b4 13040101 		addi	s0,sp,16
 311              		.cfi_def_cfa 8, 0
  19:src/ccb.cpp   **** 
 312              		.loc 1 19 5
  19:src/ccb.cpp   **** 
 313              		.loc 1 19 25 is_stmt 0
 314 01b8 97000000 		call	_ZN5Riscv13pushRegistersEv@plt
 314      E7800000 
 315              	.LVL26:
  21:src/ccb.cpp   **** 
 316              		.loc 1 21 5 is_stmt 1
  21:src/ccb.cpp   **** 
 317              		.loc 1 21 22 is_stmt 0
 318 01c0 97000000 		call	_ZN7_thread8dispatchEv
 318      E7800000 
 319              	.LVL27:
  23:src/ccb.cpp   **** }
 320              		.loc 1 23 5 is_stmt 1
  23:src/ccb.cpp   **** }
 321              		.loc 1 23 24 is_stmt 0
 322 01c8 97000000 		call	_ZN5Riscv12popRegistersEv@plt
 322      E7800000 
 323              	.LVL28:
  24:src/ccb.cpp   **** 
 324              		.loc 1 24 1
 325 01d0 83308100 		ld	ra,8(sp)
 326              		.cfi_restore 1
 327 01d4 03340100 		ld	s0,0(sp)
 328              		.cfi_restore 8
 329              		.cfi_def_cfa 2, 16
 330 01d8 13010101 		addi	sp,sp,16
 331              		.cfi_def_cfa_offset 0
 332 01dc 67800000 		jr	ra
 333              		.cfi_endproc
 334              	.LFE38:
 336              		.align	2
 337              		.globl	_ZN7_thread8rasetterEv
 339              	_ZN7_thread8rasetterEv:
 340              	.LFB40:
  44:src/ccb.cpp   ****     context.ra = (uint64) &threadWrapper;
 341              		.loc 1 44 27 is_stmt 1
 342              		.cfi_startproc
 343              	.LVL29:
 344 01e0 130101FF 		addi	sp,sp,-16
 345              		.cfi_def_cfa_offset 16
 346 01e4 23348100 		sd	s0,8(sp)
 347              		.cfi_offset 8, -8
 348 01e8 13040101 		addi	s0,sp,16
 349              		.cfi_def_cfa 8, 0
GAS LISTING /tmp/ccByyJkZ.s 			page 10


  45:src/ccb.cpp   **** 
 350              		.loc 1 45 5
  45:src/ccb.cpp   **** 
 351              		.loc 1 45 16 is_stmt 0
 352 01ec 97070000 		lla	a5,_ZN7_thread13threadWrapperEv
 352      93870700 
 353 01f4 2338F502 		sd	a5,48(a0)
  47:src/ccb.cpp   **** 
 354              		.loc 1 47 1
 355 01f8 03348100 		ld	s0,8(sp)
 356              		.cfi_restore 8
 357              		.cfi_def_cfa 2, 16
 358 01fc 13010101 		addi	sp,sp,16
 359              		.cfi_def_cfa_offset 0
 360 0200 67800000 		jr	ra
 361              		.cfi_endproc
 362              	.LFE40:
 364              		.align	2
 365              		.globl	_ZN7_thread19createCouroutineCPPEPFvPvES0_
 367              	_ZN7_thread19createCouroutineCPPEPFvPvES0_:
 368              	.LFB42:
  60:src/ccb.cpp   **** _thread* _thread ::createCouroutineCPP(Body body, void *arg) {
 369              		.loc 1 60 62 is_stmt 1
 370              		.cfi_startproc
 371              		.cfi_personality 0x9b,DW.ref.__gxx_personality_v0
 372              		.cfi_lsda 0x1b,.LLSDA42
 373              	.LVL30:
 374 0204 130101FD 		addi	sp,sp,-48
 375              		.cfi_def_cfa_offset 48
 376 0208 23341102 		sd	ra,40(sp)
 377 020c 23308102 		sd	s0,32(sp)
 378 0210 233C9100 		sd	s1,24(sp)
 379 0214 23382101 		sd	s2,16(sp)
 380 0218 23343101 		sd	s3,8(sp)
 381              		.cfi_offset 1, -8
 382              		.cfi_offset 8, -16
 383              		.cfi_offset 9, -24
 384              		.cfi_offset 18, -32
 385              		.cfi_offset 19, -40
 386 021c 13040103 		addi	s0,sp,48
 387              		.cfi_def_cfa 8, 0
 388 0220 13090500 		mv	s2,a0
 389 0224 93890500 		mv	s3,a1
  61:src/ccb.cpp   ****     _thread * t = new _thread(body,arg);
 390              		.loc 1 61 5
 391              		.loc 1 61 39 is_stmt 0
 392 0228 13058004 		li	a0,72
 393              	.LVL31:
 394              	.LEHB3:
 395 022c 97000000 		call	_Znwm@plt
 395      E7800000 
 396              	.LVL32:
 397              	.LEHE3:
 398 0234 93040500 		mv	s1,a0
 399              	.LVL33:
 400              	.LBB26:
 401              	.LBB27:
GAS LISTING /tmp/ccByyJkZ.s 			page 11


  55:src/../h/ccb.hpp ****     {
 402              		.loc 2 55 27
 403 0238 23343501 		sd	s3,8(a0)
 404 023c 23280500 		sw	zero,16(a0)
 405 0240 23302503 		sd	s2,32(a0)
  51:src/../h/ccb.hpp ****             context({(uint64) &threadWrapper,
 406              		.loc 2 51 35
 407 0244 630A0900 		beqz	s2,.L24
  51:src/../h/ccb.hpp ****             context({(uint64) &threadWrapper,
 408              		.loc 2 51 66
 409 0248 37850000 		li	a0,32768
 410              	.LEHB4:
 411 024c 97000000 		call	_Znam@plt
 411      E7800000 
 412              	.LVL34:
 413              	.LEHE4:
 414 0254 6F008000 		j	.L21
 415              	.L24:
  51:src/../h/ccb.hpp ****             context({(uint64) &threadWrapper,
 416              		.loc 2 51 35
 417 0258 13050000 		li	a0,0
 418              	.L21:
  55:src/../h/ccb.hpp ****     {
 419              		.loc 2 55 27
 420 025c 23B4A402 		sd	a0,40(s1)
 421 0260 97070000 		lla	a5,_ZN7_thread13threadWrapperEv
 421      93870700 
 422 0268 23B8F402 		sd	a5,48(s1)
  53:src/../h/ccb.hpp ****                     }),
 423              		.loc 2 53 39
 424 026c 63000506 		beqz	a0,.L25
  53:src/../h/ccb.hpp ****                     }),
 425              		.loc 2 53 50
 426 0270 B7870000 		li	a5,32768
 427 0274 3305F500 		add	a0,a0,a5
 428              	.L22:
  55:src/../h/ccb.hpp ****     {
 429              		.loc 2 55 27
 430 0278 23BCA402 		sd	a0,56(s1)
 431 027c 23800404 		sb	zero,64(s1)
  57:src/../h/ccb.hpp ****         this->id = ID++;
 432              		.loc 2 57 9 is_stmt 1
  57:src/../h/ccb.hpp ****         this->id = ID++;
 433              		.loc 2 57 13 is_stmt 0
 434 0280 A3800404 		sb	zero,65(s1)
  58:src/../h/ccb.hpp ****         this->finished = false;
 435              		.loc 2 58 9 is_stmt 1
  58:src/../h/ccb.hpp ****         this->finished = false;
 436              		.loc 2 58 22 is_stmt 0
 437 0284 17070000 		lla	a4,.LANCHOR0
 437      13070700 
 438 028c 83378700 		ld	a5,8(a4)
 439 0290 93861700 		addi	a3,a5,1
 440 0294 2334D700 		sd	a3,8(a4)
  58:src/../h/ccb.hpp ****         this->finished = false;
 441              		.loc 2 58 18
 442 0298 23BCF400 		sd	a5,24(s1)
GAS LISTING /tmp/ccByyJkZ.s 			page 12


 443              		.loc 2 59 9 is_stmt 1
 444              	.LVL35:
 445              	.LBE27:
 446              	.LBE26:
  62:src/ccb.cpp   ****     t->wrapington = arg;
 447              		.loc 1 62 5
 448              		.loc 1 62 19 is_stmt 0
 449 029c 23B03401 		sd	s3,0(s1)
  63:src/ccb.cpp   ****     t->rasetter();
 450              		.loc 1 63 5 is_stmt 1
 451              		.loc 1 63 16 is_stmt 0
 452 02a0 13850400 		mv	a0,s1
 453 02a4 97000000 		call	_ZN7_thread8rasetterEv
 453      E7800000 
 454              	.LVL36:
  64:src/ccb.cpp   ****     return t;
 455              		.loc 1 64 5 is_stmt 1
  65:src/ccb.cpp   **** }
 456              		.loc 1 65 1 is_stmt 0
 457 02ac 13850400 		mv	a0,s1
 458 02b0 83308102 		ld	ra,40(sp)
 459              		.cfi_remember_state
 460              		.cfi_restore 1
 461 02b4 03340102 		ld	s0,32(sp)
 462              		.cfi_restore 8
 463              		.cfi_def_cfa 2, 48
 464 02b8 83348101 		ld	s1,24(sp)
 465              		.cfi_restore 9
 466              	.LVL37:
 467 02bc 03390101 		ld	s2,16(sp)
 468              		.cfi_restore 18
 469              	.LVL38:
 470 02c0 83398100 		ld	s3,8(sp)
 471              		.cfi_restore 19
 472              	.LVL39:
 473 02c4 13010103 		addi	sp,sp,48
 474              		.cfi_def_cfa_offset 0
 475 02c8 67800000 		jr	ra
 476              	.LVL40:
 477              	.L25:
 478              		.cfi_restore_state
 479              	.LBB29:
 480              	.LBB28:
  53:src/../h/ccb.hpp ****                     }),
 481              		.loc 2 53 39
 482 02cc 13050000 		li	a0,0
 483 02d0 6FF09FFA 		j	.L22
 484              	.L26:
 485 02d4 13090500 		mv	s2,a0
 486              	.LVL41:
 487              	.LBE28:
 488              	.LBE29:
  61:src/ccb.cpp   ****     t->wrapington = arg;
 489              		.loc 1 61 39
 490 02d8 13850400 		mv	a0,s1
 491 02dc 97000000 		call	_ZdlPv@plt
 491      E7800000 
GAS LISTING /tmp/ccByyJkZ.s 			page 13


 492              	.LVL42:
 493 02e4 13050900 		mv	a0,s2
 494              	.LEHB5:
 495 02e8 97000000 		call	_Unwind_Resume@plt
 495      E7800000 
 496              	.LVL43:
 497              	.LEHE5:
 498              		.cfi_endproc
 499              	.LFE42:
 500              		.section	.gcc_except_table
 501              	.LLSDA42:
 502 002b FF       		.byte	0xff
 503 002c FF       		.byte	0xff
 504 002d 03       		.byte	0x3
 505 002e 27       		.byte	0x27
 506 002f 00000000 		.4byte	.LEHB3-.LFB42
 507 0033 00000000 		.4byte	.LEHE3-.LEHB3
 508 0037 00000000 		.4byte	0
 509 003b 00       		.byte	0
 510 003c 00000000 		.4byte	.LEHB4-.LFB42
 511 0040 00000000 		.4byte	.LEHE4-.LEHB4
 512 0044 00000000 		.4byte	.L26-.LFB42
 513 0048 00       		.byte	0
 514 0049 00000000 		.4byte	.LEHB5-.LFB42
 515 004d 00000000 		.4byte	.LEHE5-.LEHB5
 516 0051 00000000 		.4byte	0
 517 0055 00       		.byte	0
 518              		.text
 520              		.align	2
 521              		.globl	_ZN7_thread4joinEPPS_
 523              	_ZN7_thread4joinEPPS_:
 524              	.LFB43:
  66:src/ccb.cpp   **** 
  67:src/ccb.cpp   **** 
  68:src/ccb.cpp   **** void _thread ::join(thread_t* handle) {
 525              		.loc 1 68 39 is_stmt 1
 526              		.cfi_startproc
 527              	.LVL44:
 528 02f0 130101FE 		addi	sp,sp,-32
 529              		.cfi_def_cfa_offset 32
 530 02f4 233C1100 		sd	ra,24(sp)
 531 02f8 23388100 		sd	s0,16(sp)
 532 02fc 23349100 		sd	s1,8(sp)
 533              		.cfi_offset 1, -8
 534              		.cfi_offset 8, -16
 535              		.cfi_offset 9, -24
 536 0300 13040102 		addi	s0,sp,32
 537              		.cfi_def_cfa 8, 0
 538 0304 93040500 		mv	s1,a0
 539              	.LVL45:
 540              	.L31:
  69:src/ccb.cpp   ****     while(!(*handle)->isFinished()){
 541              		.loc 1 69 5
 542              		.loc 1 69 11
 543              		.loc 1 69 33 is_stmt 0
 544 0308 83B70400 		ld	a5,0(s1)
 545              	.LVL46:
GAS LISTING /tmp/ccByyJkZ.s 			page 14


 546              	.LBB30:
 547              	.LBB31:
  27:src/../h/ccb.hpp **** 
 548              		.loc 2 27 31 is_stmt 1
  27:src/../h/ccb.hpp **** 
 549              		.loc 2 27 38 is_stmt 0
 550 030c 83C70704 		lbu	a5,64(a5)
 551              	.LVL47:
 552              	.LBE31:
 553              	.LBE30:
 554              		.loc 1 69 11
 555 0310 63980700 		bnez	a5,.L29
  70:src/ccb.cpp   ****         _thread :: dispatch();
 556              		.loc 1 70 9 is_stmt 1
 557              		.loc 1 70 28 is_stmt 0
 558 0314 97000000 		call	_ZN7_thread8dispatchEv
 558      E7800000 
 559              	.LVL48:
  69:src/ccb.cpp   ****     while(!(*handle)->isFinished()){
 560              		.loc 1 69 5
 561 031c 6FF0DFFE 		j	.L31
 562              	.L29:
  71:src/ccb.cpp   ****     }
  72:src/ccb.cpp   **** 
  73:src/ccb.cpp   **** 
  74:src/ccb.cpp   **** }...
 563              		.loc 1 74 1
 564 0320 83308101 		ld	ra,24(sp)
 565              		.cfi_restore 1
 566 0324 03340101 		ld	s0,16(sp)
 567              		.cfi_restore 8
 568              		.cfi_def_cfa 2, 32
 569 0328 83348100 		ld	s1,8(sp)
 570              		.cfi_restore 9
 571              	.LVL49:
 572 032c 13010102 		addi	sp,sp,32
 573              		.cfi_def_cfa_offset 0
 574 0330 67800000 		jr	ra
 575              		.cfi_endproc
 576              	.LFE43:
 578              		.globl	_ZN7_thread2IDE
 579              		.globl	_ZN7_thread7runningE
 580              		.bss
 581              		.align	3
 582              		.set	.LANCHOR0,. + 0
 585              	_ZN7_thread7runningE:
 586 0000 00000000 		.zero	8
 586      00000000 
 589              	_ZN7_thread2IDE:
 590 0008 00000000 		.zero	8
 590      00000000 
 591              		.text
 592              	.Letext0:
 593              		.file 3 "src/../h/../lib/hw.h"
 594              		.file 4 "src/../h/scheduler.hpp"
 595              		.file 5 "src/../h/riscv.hpp"
 596              		.file 6 "src/../h/../h/syscall_c.h"
GAS LISTING /tmp/ccByyJkZ.s 			page 15


 3341              		.align	3
 3344              	DW.ref.__gxx_personality_v0:
 3345 0000 00000000 		.dword	__gxx_personality_v0
 3345      00000000 
 3346              		.ident	"GCC: (Ubuntu 9.4.0-1ubuntu1~20.04) 9.4.0"
 3347              		.section	.note.GNU-stack,"",@progbits
GAS LISTING /tmp/ccByyJkZ.s 			page 16


DEFINED SYMBOLS
                            *ABS*:0000000000000000 ccb.cpp
     /tmp/ccByyJkZ.s:9      .text:0000000000000000 _ZN7_thread13threadWrapperEv
     /tmp/ccByyJkZ.s:13     .text:0000000000000000 .L0 
     /tmp/ccByyJkZ.s:14     .text:0000000000000000 .L0 
     /tmp/ccByyJkZ.s:15     .text:0000000000000004 .L0 
     /tmp/ccByyJkZ.s:19     .text:0000000000000010 .L0 
     /tmp/ccByyJkZ.s:20     .text:0000000000000010 .L0 
     /tmp/ccByyJkZ.s:21     .text:0000000000000010 .L0 
     /tmp/ccByyJkZ.s:23     .text:0000000000000014 .L0 
     /tmp/ccByyJkZ.s:25     .text:0000000000000014 .L0 
     /tmp/ccByyJkZ.s:26     .text:0000000000000014 .L0 
     /tmp/ccByyJkZ.s:29     .text:000000000000001c .L0 
     /tmp/ccByyJkZ.s:30     .text:000000000000001c .L0 
     /tmp/ccByyJkZ.s:34     .text:000000000000002c .L0 
     /tmp/ccByyJkZ.s:38     .text:0000000000000034 .L0 
     /tmp/ccByyJkZ.s:39     .text:0000000000000034 .L0 
     /tmp/ccByyJkZ.s:45     .text:0000000000000038 .L0 
     /tmp/ccByyJkZ.s:46     .text:0000000000000038 .L0 
     /tmp/ccByyJkZ.s:52     .text:0000000000000040 .L0 
     /tmp/ccByyJkZ.s:53     .text:0000000000000040 .L0 
     /tmp/ccByyJkZ.s:56     .text:0000000000000048 .L0 
     /tmp/ccByyJkZ.s:57     .text:000000000000004c .L0 
     /tmp/ccByyJkZ.s:59     .text:0000000000000050 .L0 
     /tmp/ccByyJkZ.s:60     .text:0000000000000050 .L0 
     /tmp/ccByyJkZ.s:62     .text:0000000000000054 .L0 
     /tmp/ccByyJkZ.s:64     .text:0000000000000058 .L0 
     /tmp/ccByyJkZ.s:66     .text:000000000000005c .L0 
     /tmp/ccByyJkZ.s:72     .text:000000000000005c _ZN7_thread15createCoroutineEPFvPvES0_
     /tmp/ccByyJkZ.s:75     .text:000000000000005c .L0 
     /tmp/ccByyJkZ.s:3344   .data.rel.local.DW.ref.__gxx_personality_v0:0000000000000000 DW.ref.__gxx_personality_v0
     /tmp/ccByyJkZ.s:79     .text:000000000000005c .L0 
     /tmp/ccByyJkZ.s:80     .text:0000000000000060 .L0 
     /tmp/ccByyJkZ.s:86     .text:0000000000000074 .L0 
     /tmp/ccByyJkZ.s:87     .text:0000000000000074 .L0 
     /tmp/ccByyJkZ.s:88     .text:0000000000000074 .L0 
     /tmp/ccByyJkZ.s:89     .text:0000000000000074 .L0 
     /tmp/ccByyJkZ.s:90     .text:0000000000000074 .L0 
     /tmp/ccByyJkZ.s:92     .text:0000000000000078 .L0 
     /tmp/ccByyJkZ.s:96     .text:0000000000000080 .L0 
     /tmp/ccByyJkZ.s:97     .text:0000000000000080 .L0 
     /tmp/ccByyJkZ.s:108    .text:0000000000000090 .L0 
     /tmp/ccByyJkZ.s:112    .text:000000000000009c .L0 
     /tmp/ccByyJkZ.s:114    .text:00000000000000a0 .L0 
     /tmp/ccByyJkZ.s:122    .text:00000000000000b0 .L0 
     /tmp/ccByyJkZ.s:125    .text:00000000000000b4 .L0 
     /tmp/ccByyJkZ.s:129    .text:00000000000000c4 .L0 
     /tmp/ccByyJkZ.s:131    .text:00000000000000c8 .L0 
     /tmp/ccByyJkZ.s:135    .text:00000000000000d0 .L0 
     /tmp/ccByyJkZ.s:138    .text:00000000000000d8 .L0 
     /tmp/ccByyJkZ.s:139    .text:00000000000000d8 .L0 
     /tmp/ccByyJkZ.s:141    .text:00000000000000dc .L0 
     /tmp/ccByyJkZ.s:142    .text:00000000000000dc .L0 
     /tmp/ccByyJkZ.s:147    .text:00000000000000f0 .L0 
     /tmp/ccByyJkZ.s:152    .text:00000000000000f4 .L0 
     /tmp/ccByyJkZ.s:153    .text:00000000000000f4 .L0 
     /tmp/ccByyJkZ.s:155    .text:00000000000000fc .L0 
GAS LISTING /tmp/ccByyJkZ.s 			page 17


     /tmp/ccByyJkZ.s:156    .text:00000000000000fc .L0 
     /tmp/ccByyJkZ.s:158    .text:0000000000000100 .L0 
     /tmp/ccByyJkZ.s:159    .text:0000000000000100 .L0 
     /tmp/ccByyJkZ.s:161    .text:0000000000000104 .L0 
     /tmp/ccByyJkZ.s:163    .text:0000000000000108 .L0 
     /tmp/ccByyJkZ.s:166    .text:000000000000010c .L0 
     /tmp/ccByyJkZ.s:169    .text:0000000000000110 .L0 
     /tmp/ccByyJkZ.s:173    .text:0000000000000114 .L0 
     /tmp/ccByyJkZ.s:177    .text:0000000000000114 .L0 
     /tmp/ccByyJkZ.s:185    .text:0000000000000120 .L0 
     /tmp/ccByyJkZ.s:193    .text:0000000000000138 .L0 
     /tmp/ccByyJkZ.s:219    .text:0000000000000138 _ZN7_thread8dispatchEv
     /tmp/ccByyJkZ.s:222    .text:0000000000000138 .L0 
     /tmp/ccByyJkZ.s:223    .text:0000000000000138 .L0 
     /tmp/ccByyJkZ.s:224    .text:000000000000013c .L0 
     /tmp/ccByyJkZ.s:228    .text:0000000000000148 .L0 
     /tmp/ccByyJkZ.s:229    .text:0000000000000148 .L0 
     /tmp/ccByyJkZ.s:230    .text:0000000000000148 .L0 
     /tmp/ccByyJkZ.s:232    .text:000000000000014c .L0 
     /tmp/ccByyJkZ.s:234    .text:000000000000014c .L0 
     /tmp/ccByyJkZ.s:235    .text:000000000000014c .L0 
     /tmp/ccByyJkZ.s:240    .text:0000000000000154 .L0 
     /tmp/ccByyJkZ.s:241    .text:0000000000000154 .L0 
     /tmp/ccByyJkZ.s:242    .text:0000000000000154 .L0 
     /tmp/ccByyJkZ.s:247    .text:0000000000000158 .L0 
     /tmp/ccByyJkZ.s:252    .text:000000000000015c .L0 
     /tmp/ccByyJkZ.s:253    .text:000000000000015c .L0 
     /tmp/ccByyJkZ.s:258    .text:0000000000000160 .L0 
     /tmp/ccByyJkZ.s:261    .text:0000000000000164 .L0 
     /tmp/ccByyJkZ.s:262    .text:0000000000000164 .L0 
     /tmp/ccByyJkZ.s:265    .text:000000000000016c .L0 
     /tmp/ccByyJkZ.s:267    .text:0000000000000174 .L0 
     /tmp/ccByyJkZ.s:268    .text:0000000000000174 .L0 
     /tmp/ccByyJkZ.s:273    .text:0000000000000184 .L0 
     /tmp/ccByyJkZ.s:274    .text:0000000000000188 .L0 
     /tmp/ccByyJkZ.s:275    .text:0000000000000188 .L0 
     /tmp/ccByyJkZ.s:277    .text:000000000000018c .L0 
     /tmp/ccByyJkZ.s:278    .text:000000000000018c .L0 
     /tmp/ccByyJkZ.s:280    .text:0000000000000190 .L0 
     /tmp/ccByyJkZ.s:283    .text:0000000000000194 .L0 
     /tmp/ccByyJkZ.s:287    .text:0000000000000198 .L0 
     /tmp/ccByyJkZ.s:289    .text:0000000000000198 .L0 
     /tmp/ccByyJkZ.s:290    .text:0000000000000198 .L0 
     /tmp/ccByyJkZ.s:294    .text:00000000000001a8 .L0 
     /tmp/ccByyJkZ.s:300    .text:00000000000001a8 _ZN7_thread5yieldEv
     /tmp/ccByyJkZ.s:303    .text:00000000000001a8 .L0 
     /tmp/ccByyJkZ.s:304    .text:00000000000001a8 .L0 
     /tmp/ccByyJkZ.s:305    .text:00000000000001ac .L0 
     /tmp/ccByyJkZ.s:308    .text:00000000000001b4 .L0 
     /tmp/ccByyJkZ.s:309    .text:00000000000001b4 .L0 
     /tmp/ccByyJkZ.s:311    .text:00000000000001b8 .L0 
     /tmp/ccByyJkZ.s:313    .text:00000000000001b8 .L0 
     /tmp/ccByyJkZ.s:314    .text:00000000000001b8 .L0 
     /tmp/ccByyJkZ.s:317    .text:00000000000001c0 .L0 
     /tmp/ccByyJkZ.s:318    .text:00000000000001c0 .L0 
     /tmp/ccByyJkZ.s:321    .text:00000000000001c8 .L0 
     /tmp/ccByyJkZ.s:322    .text:00000000000001c8 .L0 
GAS LISTING /tmp/ccByyJkZ.s 			page 18


     /tmp/ccByyJkZ.s:325    .text:00000000000001d0 .L0 
     /tmp/ccByyJkZ.s:326    .text:00000000000001d4 .L0 
     /tmp/ccByyJkZ.s:328    .text:00000000000001d8 .L0 
     /tmp/ccByyJkZ.s:329    .text:00000000000001d8 .L0 
     /tmp/ccByyJkZ.s:331    .text:00000000000001dc .L0 
     /tmp/ccByyJkZ.s:333    .text:00000000000001e0 .L0 
     /tmp/ccByyJkZ.s:339    .text:00000000000001e0 _ZN7_thread8rasetterEv
     /tmp/ccByyJkZ.s:342    .text:00000000000001e0 .L0 
     /tmp/ccByyJkZ.s:344    .text:00000000000001e0 .L0 
     /tmp/ccByyJkZ.s:345    .text:00000000000001e4 .L0 
     /tmp/ccByyJkZ.s:347    .text:00000000000001e8 .L0 
     /tmp/ccByyJkZ.s:349    .text:00000000000001ec .L0 
     /tmp/ccByyJkZ.s:351    .text:00000000000001ec .L0 
     /tmp/ccByyJkZ.s:352    .text:00000000000001ec .L0 
     /tmp/ccByyJkZ.s:355    .text:00000000000001f8 .L0 
     /tmp/ccByyJkZ.s:356    .text:00000000000001fc .L0 
     /tmp/ccByyJkZ.s:357    .text:00000000000001fc .L0 
     /tmp/ccByyJkZ.s:359    .text:0000000000000200 .L0 
     /tmp/ccByyJkZ.s:361    .text:0000000000000204 .L0 
     /tmp/ccByyJkZ.s:367    .text:0000000000000204 _ZN7_thread19createCouroutineCPPEPFvPvES0_
     /tmp/ccByyJkZ.s:370    .text:0000000000000204 .L0 
     /tmp/ccByyJkZ.s:374    .text:0000000000000204 .L0 
     /tmp/ccByyJkZ.s:375    .text:0000000000000208 .L0 
     /tmp/ccByyJkZ.s:381    .text:000000000000021c .L0 
     /tmp/ccByyJkZ.s:382    .text:000000000000021c .L0 
     /tmp/ccByyJkZ.s:383    .text:000000000000021c .L0 
     /tmp/ccByyJkZ.s:384    .text:000000000000021c .L0 
     /tmp/ccByyJkZ.s:385    .text:000000000000021c .L0 
     /tmp/ccByyJkZ.s:387    .text:0000000000000220 .L0 
     /tmp/ccByyJkZ.s:391    .text:0000000000000228 .L0 
     /tmp/ccByyJkZ.s:392    .text:0000000000000228 .L0 
     /tmp/ccByyJkZ.s:403    .text:0000000000000238 .L0 
     /tmp/ccByyJkZ.s:407    .text:0000000000000244 .L0 
     /tmp/ccByyJkZ.s:409    .text:0000000000000248 .L0 
     /tmp/ccByyJkZ.s:417    .text:0000000000000258 .L0 
     /tmp/ccByyJkZ.s:420    .text:000000000000025c .L0 
     /tmp/ccByyJkZ.s:424    .text:000000000000026c .L0 
     /tmp/ccByyJkZ.s:426    .text:0000000000000270 .L0 
     /tmp/ccByyJkZ.s:430    .text:0000000000000278 .L0 
     /tmp/ccByyJkZ.s:433    .text:0000000000000280 .L0 
     /tmp/ccByyJkZ.s:434    .text:0000000000000280 .L0 
     /tmp/ccByyJkZ.s:436    .text:0000000000000284 .L0 
     /tmp/ccByyJkZ.s:437    .text:0000000000000284 .L0 
     /tmp/ccByyJkZ.s:442    .text:0000000000000298 .L0 
     /tmp/ccByyJkZ.s:447    .text:000000000000029c .L0 
     /tmp/ccByyJkZ.s:448    .text:000000000000029c .L0 
     /tmp/ccByyJkZ.s:449    .text:000000000000029c .L0 
     /tmp/ccByyJkZ.s:451    .text:00000000000002a0 .L0 
     /tmp/ccByyJkZ.s:452    .text:00000000000002a0 .L0 
     /tmp/ccByyJkZ.s:456    .text:00000000000002ac .L0 
     /tmp/ccByyJkZ.s:457    .text:00000000000002ac .L0 
     /tmp/ccByyJkZ.s:459    .text:00000000000002b4 .L0 
     /tmp/ccByyJkZ.s:460    .text:00000000000002b4 .L0 
     /tmp/ccByyJkZ.s:462    .text:00000000000002b8 .L0 
     /tmp/ccByyJkZ.s:463    .text:00000000000002b8 .L0 
     /tmp/ccByyJkZ.s:465    .text:00000000000002bc .L0 
     /tmp/ccByyJkZ.s:468    .text:00000000000002c0 .L0 
GAS LISTING /tmp/ccByyJkZ.s 			page 19


     /tmp/ccByyJkZ.s:471    .text:00000000000002c4 .L0 
     /tmp/ccByyJkZ.s:474    .text:00000000000002c8 .L0 
     /tmp/ccByyJkZ.s:478    .text:00000000000002cc .L0 
     /tmp/ccByyJkZ.s:482    .text:00000000000002cc .L0 
     /tmp/ccByyJkZ.s:490    .text:00000000000002d8 .L0 
     /tmp/ccByyJkZ.s:498    .text:00000000000002f0 .L0 
     /tmp/ccByyJkZ.s:523    .text:00000000000002f0 _ZN7_thread4joinEPPS_
     /tmp/ccByyJkZ.s:526    .text:00000000000002f0 .L0 
     /tmp/ccByyJkZ.s:528    .text:00000000000002f0 .L0 
     /tmp/ccByyJkZ.s:529    .text:00000000000002f4 .L0 
     /tmp/ccByyJkZ.s:533    .text:0000000000000300 .L0 
     /tmp/ccByyJkZ.s:534    .text:0000000000000300 .L0 
     /tmp/ccByyJkZ.s:535    .text:0000000000000300 .L0 
     /tmp/ccByyJkZ.s:537    .text:0000000000000304 .L0 
     /tmp/ccByyJkZ.s:542    .text:0000000000000308 .L0 
     /tmp/ccByyJkZ.s:543    .text:0000000000000308 .L0 
     /tmp/ccByyJkZ.s:544    .text:0000000000000308 .L0 
     /tmp/ccByyJkZ.s:549    .text:000000000000030c .L0 
     /tmp/ccByyJkZ.s:550    .text:000000000000030c .L0 
     /tmp/ccByyJkZ.s:555    .text:0000000000000310 .L0 
     /tmp/ccByyJkZ.s:557    .text:0000000000000314 .L0 
     /tmp/ccByyJkZ.s:558    .text:0000000000000314 .L0 
     /tmp/ccByyJkZ.s:561    .text:000000000000031c .L0 
     /tmp/ccByyJkZ.s:564    .text:0000000000000320 .L0 
     /tmp/ccByyJkZ.s:565    .text:0000000000000324 .L0 
     /tmp/ccByyJkZ.s:567    .text:0000000000000328 .L0 
     /tmp/ccByyJkZ.s:568    .text:0000000000000328 .L0 
     /tmp/ccByyJkZ.s:570    .text:000000000000032c .L0 
     /tmp/ccByyJkZ.s:573    .text:0000000000000330 .L0 
     /tmp/ccByyJkZ.s:575    .text:0000000000000334 .L0 
     /tmp/ccByyJkZ.s:589    .bss:0000000000000008 _ZN7_thread2IDE
     /tmp/ccByyJkZ.s:585    .bss:0000000000000000 _ZN7_thread7runningE
     /tmp/ccByyJkZ.s:582    .bss:0000000000000000 .LANCHOR0
     /tmp/ccByyJkZ.s:597    .text:0000000000000334 .L0 
     /tmp/ccByyJkZ.s:30     .text:000000000000001c .L0 
     /tmp/ccByyJkZ.s:126    .text:00000000000000b8 .L0 
     /tmp/ccByyJkZ.s:142    .text:00000000000000dc .L0 
     /tmp/ccByyJkZ.s:235    .text:000000000000014c .L0 
     /tmp/ccByyJkZ.s:265    .text:000000000000016c .L0 
     /tmp/ccByyJkZ.s:352    .text:00000000000001ec .L0 
     /tmp/ccByyJkZ.s:421    .text:0000000000000260 .L0 
     /tmp/ccByyJkZ.s:437    .text:0000000000000284 .L0 
     /tmp/ccByyJkZ.s:120    .text:00000000000000b0 .L7
     /tmp/ccByyJkZ.s:123    .text:00000000000000b4 .L4
     /tmp/ccByyJkZ.s:172    .text:0000000000000114 .L8
     /tmp/ccByyJkZ.s:133    .text:00000000000000d0 .L5
     /tmp/ccByyJkZ.s:259    .text:0000000000000164 .L13
     /tmp/ccByyJkZ.s:286    .text:0000000000000198 .L15
     /tmp/ccByyJkZ.s:415    .text:0000000000000258 .L24
     /tmp/ccByyJkZ.s:418    .text:000000000000025c .L21
     /tmp/ccByyJkZ.s:477    .text:00000000000002cc .L25
     /tmp/ccByyJkZ.s:428    .text:0000000000000278 .L22
     /tmp/ccByyJkZ.s:562    .text:0000000000000320 .L29
     /tmp/ccByyJkZ.s:540    .text:0000000000000308 .L31
     /tmp/ccByyJkZ.s:99     .text:0000000000000084 .LEHB0
     /tmp/ccByyJkZ.s:73     .text:000000000000005c .LFB37
     /tmp/ccByyJkZ.s:102    .text:000000000000008c .LEHE0
GAS LISTING /tmp/ccByyJkZ.s 			page 20


     /tmp/ccByyJkZ.s:115    .text:00000000000000a4 .LEHB1
     /tmp/ccByyJkZ.s:118    .text:00000000000000ac .LEHE1
     /tmp/ccByyJkZ.s:179    .text:000000000000011c .L9
     /tmp/ccByyJkZ.s:189    .text:0000000000000130 .LEHB2
     /tmp/ccByyJkZ.s:192    .text:0000000000000138 .LEHE2
     /tmp/ccByyJkZ.s:394    .text:000000000000022c .LEHB3
     /tmp/ccByyJkZ.s:368    .text:0000000000000204 .LFB42
     /tmp/ccByyJkZ.s:397    .text:0000000000000234 .LEHE3
     /tmp/ccByyJkZ.s:410    .text:000000000000024c .LEHB4
     /tmp/ccByyJkZ.s:413    .text:0000000000000254 .LEHE4
     /tmp/ccByyJkZ.s:484    .text:00000000000002d4 .L26
     /tmp/ccByyJkZ.s:494    .text:00000000000002e8 .LEHB5
     /tmp/ccByyJkZ.s:497    .text:00000000000002f0 .LEHE5
     /tmp/ccByyJkZ.s:1809   .debug_abbrev:0000000000000000 .Ldebug_abbrev0
     /tmp/ccByyJkZ.s:3294   .debug_str:00000000000006b9 .LASF123
     /tmp/ccByyJkZ.s:3264   .debug_str:00000000000005db .LASF124
     /tmp/ccByyJkZ.s:3298   .debug_str:0000000000000782 .LASF125
     /tmp/ccByyJkZ.s:5      .text:0000000000000000 .Ltext0
     /tmp/ccByyJkZ.s:592    .text:0000000000000334 .Letext0
     /tmp/ccByyJkZ.s:3064   .debug_line:0000000000000000 .Ldebug_line0
     /tmp/ccByyJkZ.s:3214   .debug_str:00000000000004a8 .LASF0
     /tmp/ccByyJkZ.s:3228   .debug_str:00000000000004e5 .LASF1
     /tmp/ccByyJkZ.s:3200   .debug_str:0000000000000448 .LASF2
     /tmp/ccByyJkZ.s:3166   .debug_str:000000000000034b .LASF4
     /tmp/ccByyJkZ.s:3266   .debug_str:00000000000005e7 .LASF3
     /tmp/ccByyJkZ.s:3092   .debug_str:00000000000000c5 .LASF5
     /tmp/ccByyJkZ.s:3232   .debug_str:0000000000000500 .LASF6
     /tmp/ccByyJkZ.s:3212   .debug_str:0000000000000495 .LASF7
     /tmp/ccByyJkZ.s:3304   .debug_str:00000000000007b3 .LASF8
     /tmp/ccByyJkZ.s:3152   .debug_str:00000000000002cb .LASF9
     /tmp/ccByyJkZ.s:3246   .debug_str:0000000000000564 .LASF10
     /tmp/ccByyJkZ.s:3234   .debug_str:0000000000000513 .LASF11
     /tmp/ccByyJkZ.s:3094   .debug_str:00000000000000cc .LASF12
     /tmp/ccByyJkZ.s:3072   .debug_str:000000000000002b .LASF13
     /tmp/ccByyJkZ.s:3106   .debug_str:0000000000000132 .LASF14
     /tmp/ccByyJkZ.s:3256   .debug_str:0000000000000597 .LASF15
     /tmp/ccByyJkZ.s:3118   .debug_str:0000000000000191 .LASF16
     /tmp/ccByyJkZ.s:3066   .debug_str:0000000000000000 .LASF17
     /tmp/ccByyJkZ.s:3164   .debug_str:0000000000000343 .LASF43
     /tmp/ccByyJkZ.s:3078   .debug_str:000000000000004a .LASF126
     /tmp/ccByyJkZ.s:3268   .debug_str:00000000000005f9 .LASF58
     /tmp/ccByyJkZ.s:3096   .debug_str:00000000000000dc .LASF60
     /tmp/ccByyJkZ.s:3222   .debug_str:00000000000004c9 .LASF18
     /tmp/ccByyJkZ.s:3116   .debug_str:000000000000017d .LASF20
     /tmp/ccByyJkZ.s:3320   .debug_str:0000000000000833 .LASF22
     /tmp/ccByyJkZ.s:3210   .debug_str:0000000000000480 .LASF24
     /tmp/ccByyJkZ.s:3076   .debug_str:0000000000000044 .LASF19
     /tmp/ccByyJkZ.s:3322   .debug_str:000000000000083a .LASF21
     /tmp/ccByyJkZ.s:3218   .debug_str:00000000000004ba .LASF34
     /tmp/ccByyJkZ.s:3288   .debug_str:0000000000000689 .LASF36
     /tmp/ccByyJkZ.s:3300   .debug_str:0000000000000798 .LASF23
     /tmp/ccByyJkZ.s:3238   .debug_str:000000000000052d .LASF25
     /tmp/ccByyJkZ.s:3236   .debug_str:0000000000000522 .LASF26
     /tmp/ccByyJkZ.s:3196   .debug_str:0000000000000418 .LASF27
     /tmp/ccByyJkZ.s:3202   .debug_str:0000000000000456 .LASF28
     /tmp/ccByyJkZ.s:3194   .debug_str:00000000000003fd .LASF29
     /tmp/ccByyJkZ.s:3314   .debug_str:000000000000080b .LASF30
GAS LISTING /tmp/ccByyJkZ.s 			page 21


     /tmp/ccByyJkZ.s:3146   .debug_str:000000000000028a .LASF31
     /tmp/ccByyJkZ.s:3252   .debug_str:000000000000058b .LASF127
     /tmp/ccByyJkZ.s:3148   .debug_str:00000000000002b1 .LASF32
     /tmp/ccByyJkZ.s:3084   .debug_str:0000000000000063 .LASF33
     /tmp/ccByyJkZ.s:3258   .debug_str:00000000000005ad .LASF35
     /tmp/ccByyJkZ.s:3290   .debug_str:00000000000006a0 .LASF37
     /tmp/ccByyJkZ.s:3316   .debug_str:000000000000081b .LASF38
     /tmp/ccByyJkZ.s:3216   .debug_str:00000000000004b5 .LASF39
     /tmp/ccByyJkZ.s:3134   .debug_str:0000000000000239 .LASF54
     /tmp/ccByyJkZ.s:3334   .debug_str:000000000000088a .LASF40
     /tmp/ccByyJkZ.s:3108   .debug_str:000000000000013e .LASF41
     /tmp/ccByyJkZ.s:3312   .debug_str:00000000000007f4 .LASF42
     /tmp/ccByyJkZ.s:3308   .debug_str:00000000000007c8 .LASF44
     /tmp/ccByyJkZ.s:3172   .debug_str:0000000000000370 .LASF45
     /tmp/ccByyJkZ.s:3220   .debug_str:00000000000004c3 .LASF46
     /tmp/ccByyJkZ.s:3176   .debug_str:0000000000000380 .LASF47
     /tmp/ccByyJkZ.s:3170   .debug_str:0000000000000367 .LASF48
     /tmp/ccByyJkZ.s:3186   .debug_str:00000000000003a5 .LASF106
     /tmp/ccByyJkZ.s:3156   .debug_str:00000000000002ef .LASF108
     /tmp/ccByyJkZ.s:3112   .debug_str:0000000000000157 .LASF51
     /tmp/ccByyJkZ.s:3192   .debug_str:00000000000003d1 .LASF128
     /tmp/ccByyJkZ.s:3184   .debug_str:000000000000039a .LASF129
     /tmp/ccByyJkZ.s:3244   .debug_str:000000000000055a .LASF49
     /tmp/ccByyJkZ.s:3310   .debug_str:00000000000007e0 .LASF50
     /tmp/ccByyJkZ.s:3162   .debug_str:000000000000032f .LASF130
     /tmp/ccByyJkZ.s:3274   .debug_str:000000000000061d .LASF131
     /tmp/ccByyJkZ.s:3286   .debug_str:000000000000067b .LASF132
     /tmp/ccByyJkZ.s:3140   .debug_str:000000000000025d .LASF52
     /tmp/ccByyJkZ.s:3226   .debug_str:00000000000004df .LASF53
     /tmp/ccByyJkZ.s:3248   .debug_str:0000000000000573 .LASF55
     /tmp/ccByyJkZ.s:3150   .debug_str:00000000000002c5 .LASF56
     /tmp/ccByyJkZ.s:3122   .debug_str:00000000000001bb .LASF57
     /tmp/ccByyJkZ.s:3306   .debug_str:00000000000007c3 .LASF59
     /tmp/ccByyJkZ.s:3126   .debug_str:00000000000001ef .LASF61
     /tmp/ccByyJkZ.s:3090   .debug_str:00000000000000b7 .LASF62
     /tmp/ccByyJkZ.s:3132   .debug_str:000000000000021e .LASF63
     /tmp/ccByyJkZ.s:3280   .debug_str:0000000000000654 .LASF64
     /tmp/ccByyJkZ.s:3070   .debug_str:0000000000000011 .LASF65
     /tmp/ccByyJkZ.s:3074   .debug_str:000000000000003b .LASF66
     /tmp/ccByyJkZ.s:3278   .debug_str:000000000000063f .LASF70
     /tmp/ccByyJkZ.s:3130   .debug_str:0000000000000215 .LASF67
     /tmp/ccByyJkZ.s:3128   .debug_str:0000000000000200 .LASF68
     /tmp/ccByyJkZ.s:3204   .debug_str:0000000000000462 .LASF69
     /tmp/ccByyJkZ.s:3250   .debug_str:0000000000000578 .LASF71
     /tmp/ccByyJkZ.s:3254   .debug_str:0000000000000590 .LASF72
     /tmp/ccByyJkZ.s:3284   .debug_str:0000000000000668 .LASF73
     /tmp/ccByyJkZ.s:3230   .debug_str:00000000000004f8 .LASF74
     /tmp/ccByyJkZ.s:3120   .debug_str:00000000000001a7 .LASF75
     /tmp/ccByyJkZ.s:3068   .debug_str:0000000000000009 .LASF76
     /tmp/ccByyJkZ.s:3158   .debug_str:000000000000030c .LASF77
     /tmp/ccByyJkZ.s:3136   .debug_str:0000000000000241 .LASF78
     /tmp/ccByyJkZ.s:3098   .debug_str:00000000000000f2 .LASF79
     /tmp/ccByyJkZ.s:3332   .debug_str:0000000000000882 .LASF80
     /tmp/ccByyJkZ.s:3138   .debug_str:0000000000000249 .LASF81
     /tmp/ccByyJkZ.s:3296   .debug_str:000000000000077d .LASF82
     /tmp/ccByyJkZ.s:3208   .debug_str:000000000000046f .LASF83
     /tmp/ccByyJkZ.s:3180   .debug_str:000000000000038f .LASF84
GAS LISTING /tmp/ccByyJkZ.s 			page 22


     /tmp/ccByyJkZ.s:3086   .debug_str:000000000000008e .LASF85
     /tmp/ccByyJkZ.s:3292   .debug_str:00000000000006b4 .LASF86
     /tmp/ccByyJkZ.s:3328   .debug_str:0000000000000866 .LASF87
     /tmp/ccByyJkZ.s:3178   .debug_str:0000000000000388 .LASF88
     /tmp/ccByyJkZ.s:3324   .debug_str:000000000000084e .LASF89
     /tmp/ccByyJkZ.s:3240   .debug_str:000000000000053d .LASF90
     /tmp/ccByyJkZ.s:3144   .debug_str:0000000000000277 .LASF91
     /tmp/ccByyJkZ.s:3206   .debug_str:0000000000000469 .LASF92
     /tmp/ccByyJkZ.s:3302   .debug_str:00000000000007a1 .LASF93
     /tmp/ccByyJkZ.s:3182   .debug_str:0000000000000394 .LASF94
     /tmp/ccByyJkZ.s:3336   .debug_str:0000000000000891 .LASF95
     /tmp/ccByyJkZ.s:3330   .debug_str:0000000000000877 .LASF96
     /tmp/ccByyJkZ.s:3262   .debug_str:00000000000005c3 .LASF97
     /tmp/ccByyJkZ.s:3174   .debug_str:0000000000000375 .LASF98
     /tmp/ccByyJkZ.s:3188   .debug_str:00000000000003b3 .LASF99
     /tmp/ccByyJkZ.s:3104   .debug_str:0000000000000128 .LASF100
     /tmp/ccByyJkZ.s:3242   .debug_str:0000000000000544 .LASF101
     /tmp/ccByyJkZ.s:3080   .debug_str:0000000000000052 .LASF102
     /tmp/ccByyJkZ.s:3154   .debug_str:00000000000002d9 .LASF103
     /tmp/ccByyJkZ.s:3270   .debug_str:00000000000005fe .LASF104
     /tmp/ccByyJkZ.s:3100   .debug_str:0000000000000106 .LASF105
     /tmp/ccByyJkZ.s:3168   .debug_str:0000000000000352 .LASF107
     /tmp/ccByyJkZ.s:3124   .debug_str:00000000000001cd .LASF109
     /tmp/ccByyJkZ.s:3198   .debug_str:0000000000000433 .LASF110
     /tmp/ccByyJkZ.s:3224   .debug_str:00000000000004cf .LASF111
     /tmp/ccByyJkZ.s:524    .text:00000000000002f0 .LFB43
     /tmp/ccByyJkZ.s:576    .text:0000000000000334 .LFE43
     /tmp/ccByyJkZ.s:3282   .debug_str:0000000000000661 .LASF112
     /tmp/ccByyJkZ.s:2779   .debug_loc:0000000000000000 .LLST16
     /tmp/ccByyJkZ.s:546    .text:000000000000030c .LBB30
     /tmp/ccByyJkZ.s:553    .text:0000000000000310 .LBE30
     /tmp/ccByyJkZ.s:2797   .debug_loc:000000000000004c .LLST17
     /tmp/ccByyJkZ.s:559    .text:000000000000031c .LVL48
     /tmp/ccByyJkZ.s:499    .text:00000000000002f0 .LFE42
     /tmp/ccByyJkZ.s:2804   .debug_loc:000000000000006f .LLST10
     /tmp/ccByyJkZ.s:2833   .debug_loc:00000000000000e4 .LLST11
     /tmp/ccByyJkZ.s:2855   .debug_loc:0000000000000143 .LLST12
     /tmp/ccByyJkZ.s:400    .text:0000000000000238 .LBB26
     /tmp/ccByyJkZ.s:3050   .debug_ranges:0000000000000000 .Ldebug_ranges0
     /tmp/ccByyJkZ.s:2866   .debug_loc:0000000000000179 .LLST13
     /tmp/ccByyJkZ.s:2877   .debug_loc:00000000000001af .LLST14
     /tmp/ccByyJkZ.s:2895   .debug_loc:00000000000001fb .LLST15
     /tmp/ccByyJkZ.s:412    .text:0000000000000254 .LVL34
     /tmp/ccByyJkZ.s:396    .text:0000000000000234 .LVL32
     /tmp/ccByyJkZ.s:454    .text:00000000000002ac .LVL36
     /tmp/ccByyJkZ.s:492    .text:00000000000002e4 .LVL42
     /tmp/ccByyJkZ.s:496    .text:00000000000002f0 .LVL43
     /tmp/ccByyJkZ.s:10     .text:0000000000000000 .LFB41
     /tmp/ccByyJkZ.s:67     .text:000000000000005c .LFE41
     /tmp/ccByyJkZ.s:41     .text:0000000000000038 .LBB10
     /tmp/ccByyJkZ.s:50     .text:0000000000000040 .LBE10
     /tmp/ccByyJkZ.s:2906   .debug_loc:0000000000000231 .LLST0
     /tmp/ccByyJkZ.s:2914   .debug_loc:0000000000000255 .LLST1
     /tmp/ccByyJkZ.s:27     .text:000000000000001c .LVL0
     /tmp/ccByyJkZ.s:54     .text:0000000000000048 .LVL4
     /tmp/ccByyJkZ.s:340    .text:00000000000001e0 .LFB40
     /tmp/ccByyJkZ.s:362    .text:0000000000000204 .LFE40
GAS LISTING /tmp/ccByyJkZ.s 			page 23


     /tmp/ccByyJkZ.s:3326   .debug_str:0000000000000861 .LASF113
     /tmp/ccByyJkZ.s:220    .text:0000000000000138 .LFB39
     /tmp/ccByyJkZ.s:295    .text:00000000000001a8 .LFE39
     /tmp/ccByyJkZ.s:2921   .debug_loc:0000000000000278 .LLST7
     /tmp/ccByyJkZ.s:238    .text:0000000000000154 .LBB19
     /tmp/ccByyJkZ.s:245    .text:0000000000000158 .LBE19
     /tmp/ccByyJkZ.s:2932   .debug_loc:00000000000002ae .LLST8
     /tmp/ccByyJkZ.s:249    .text:000000000000015c .LBB21
     /tmp/ccByyJkZ.s:256    .text:0000000000000160 .LBE21
     /tmp/ccByyJkZ.s:2939   .debug_loc:00000000000002d1 .LLST9
     /tmp/ccByyJkZ.s:263    .text:000000000000016c .LVL21
     /tmp/ccByyJkZ.s:271    .text:0000000000000184 .LVL22
     /tmp/ccByyJkZ.s:292    .text:00000000000001a4 .LVL25
     /tmp/ccByyJkZ.s:301    .text:00000000000001a8 .LFB38
     /tmp/ccByyJkZ.s:334    .text:00000000000001e0 .LFE38
     /tmp/ccByyJkZ.s:315    .text:00000000000001c0 .LVL26
     /tmp/ccByyJkZ.s:319    .text:00000000000001c8 .LVL27
     /tmp/ccByyJkZ.s:323    .text:00000000000001d0 .LVL28
     /tmp/ccByyJkZ.s:194    .text:0000000000000138 .LFE37
     /tmp/ccByyJkZ.s:2946   .debug_loc:00000000000002f4 .LLST2
     /tmp/ccByyJkZ.s:2975   .debug_loc:0000000000000369 .LLST3
     /tmp/ccByyJkZ.s:105    .text:0000000000000090 .LBB15
     /tmp/ccByyJkZ.s:2997   .debug_loc:00000000000003c8 .LLST4
     /tmp/ccByyJkZ.s:3008   .debug_loc:00000000000003fe .LLST5
     /tmp/ccByyJkZ.s:3026   .debug_loc:000000000000044a .LLST6
     /tmp/ccByyJkZ.s:117    .text:00000000000000ac .LVL9
     /tmp/ccByyJkZ.s:101    .text:000000000000008c .LVL7
     /tmp/ccByyJkZ.s:187    .text:000000000000012c .LVL15
     /tmp/ccByyJkZ.s:191    .text:0000000000000138 .LVL16
     /tmp/ccByyJkZ.s:3088   .debug_str:000000000000009f .LASF133
     /tmp/ccByyJkZ.s:3102   .debug_str:0000000000000122 .LASF114
     /tmp/ccByyJkZ.s:3276   .debug_str:0000000000000639 .LASF115
     /tmp/ccByyJkZ.s:3260   .debug_str:00000000000005b3 .LASF117
     /tmp/ccByyJkZ.s:3190   .debug_str:00000000000003cb .LASF116
     /tmp/ccByyJkZ.s:3318   .debug_str:0000000000000826 .LASF118
     /tmp/ccByyJkZ.s:3082   .debug_str:000000000000005c .LASF119
     /tmp/ccByyJkZ.s:3272   .debug_str:000000000000060d .LASF120
     /tmp/ccByyJkZ.s:3160   .debug_str:0000000000000320 .LASF121
     /tmp/ccByyJkZ.s:3114   .debug_str:0000000000000165 .LASF122
     /tmp/ccByyJkZ.s:3142   .debug_str:0000000000000262 .LASF134
     /tmp/ccByyJkZ.s:3110   .debug_str:0000000000000147 .LASF135
     /tmp/ccByyJkZ.s:527    .text:00000000000002f0 .LVL44
     /tmp/ccByyJkZ.s:539    .text:0000000000000308 .LVL45
     /tmp/ccByyJkZ.s:571    .text:000000000000032c .LVL49
     /tmp/ccByyJkZ.s:545    .text:000000000000030c .LVL46
     /tmp/ccByyJkZ.s:551    .text:0000000000000310 .LVL47
     /tmp/ccByyJkZ.s:373    .text:0000000000000204 .LVL30
     /tmp/ccByyJkZ.s:393    .text:000000000000022c .LVL31
     /tmp/ccByyJkZ.s:469    .text:00000000000002c0 .LVL38
     /tmp/ccByyJkZ.s:476    .text:00000000000002cc .LVL40
     /tmp/ccByyJkZ.s:486    .text:00000000000002d8 .LVL41
     /tmp/ccByyJkZ.s:472    .text:00000000000002c4 .LVL39
     /tmp/ccByyJkZ.s:444    .text:000000000000029c .LVL35
     /tmp/ccByyJkZ.s:466    .text:00000000000002bc .LVL37
     /tmp/ccByyJkZ.s:399    .text:0000000000000238 .LVL33
     /tmp/ccByyJkZ.s:40     .text:0000000000000038 .LVL2
     /tmp/ccByyJkZ.s:48     .text:0000000000000040 .LVL3
GAS LISTING /tmp/ccByyJkZ.s 			page 24


     /tmp/ccByyJkZ.s:236    .text:0000000000000154 .LVL17
     /tmp/ccByyJkZ.s:281    .text:0000000000000190 .LVL23
     /tmp/ccByyJkZ.s:285    .text:0000000000000198 .LVL24
     /tmp/ccByyJkZ.s:243    .text:0000000000000158 .LVL18
     /tmp/ccByyJkZ.s:248    .text:000000000000015c .LVL19
     /tmp/ccByyJkZ.s:254    .text:0000000000000160 .LVL20
     /tmp/ccByyJkZ.s:78     .text:000000000000005c .LVL5
     /tmp/ccByyJkZ.s:98     .text:0000000000000084 .LVL6
     /tmp/ccByyJkZ.s:164    .text:0000000000000108 .LVL11
     /tmp/ccByyJkZ.s:171    .text:0000000000000114 .LVL13
     /tmp/ccByyJkZ.s:181    .text:0000000000000120 .LVL14
     /tmp/ccByyJkZ.s:167    .text:000000000000010c .LVL12
     /tmp/ccByyJkZ.s:104    .text:0000000000000090 .LVL8
     /tmp/ccByyJkZ.s:149    .text:00000000000000f4 .LVL10
     /tmp/ccByyJkZ.s:598    .debug_info:0000000000000000 .Ldebug_info0
     /tmp/ccByyJkZ.s:151    .text:00000000000000f4 .LBE15
     /tmp/ccByyJkZ.s:174    .text:0000000000000114 .LBB18
     /tmp/ccByyJkZ.s:183    .text:0000000000000120 .LBE18
     /tmp/ccByyJkZ.s:446    .text:000000000000029c .LBE26
     /tmp/ccByyJkZ.s:479    .text:00000000000002cc .LBB29
     /tmp/ccByyJkZ.s:488    .text:00000000000002d8 .LBE29
     /tmp/ccByyJkZ.s:197    .gcc_except_table:0000000000000000 .LLSDA37
     /tmp/ccByyJkZ.s:501    .gcc_except_table:000000000000002b .LLSDA42

UNDEFINED SYMBOLS
_ZN5Riscv5RezimEv
_Z15thread_dispatchv
_Znwm
_Znam
_ZdlPv
_Unwind_Resume
__gxx_personality_v0
_ZN9Scheduler3getEv
_ZN7_thread13contextSwitchEPNS_7ContextES1_
_ZN9Scheduler3putEP7_thread
_ZN5Riscv13pushRegistersEv
_ZN5Riscv12popRegistersEv
