GAS LISTING /tmp/ccLwz5Q3.s 			page 1


   1              		.file	"syscall_cpp.cpp"
   2              		.option pic
   3              		.option norelax
   4              		.text
   5              	.Ltext0:
   6              		.section	.text._ZN6Thread3runEv,"axG",@progbits,_ZN6Thread3runEv,comdat
   7              		.align	2
   8              		.weak	_ZN6Thread3runEv
  10              	_ZN6Thread3runEv:
  11              	.LFB0:
  12              		.file 1 "src/../h/syscall_cpp.hpp"
   1:src/../h/syscall_cpp.hpp **** //
   2:src/../h/syscall_cpp.hpp **** // Created by os on 4/6/23.
   3:src/../h/syscall_cpp.hpp **** //
   4:src/../h/syscall_cpp.hpp **** 
   5:src/../h/syscall_cpp.hpp **** #ifndef BASE_SYSCALL_CPP_H
   6:src/../h/syscall_cpp.hpp **** #define BASE_SYSCALL_CPP_H
   7:src/../h/syscall_cpp.hpp **** #include "../h/syscall_c.h"
   8:src/../h/syscall_cpp.hpp **** 
   9:src/../h/syscall_cpp.hpp **** class Thread{
  10:src/../h/syscall_cpp.hpp **** public:
  11:src/../h/syscall_cpp.hpp ****     Thread(void(*body)(void*),void* arg);
  12:src/../h/syscall_cpp.hpp ****     virtual ~Thread();
  13:src/../h/syscall_cpp.hpp ****     int start();
  14:src/../h/syscall_cpp.hpp ****     void join();
  15:src/../h/syscall_cpp.hpp ****     static void dispatch();
  16:src/../h/syscall_cpp.hpp ****     static void thrwrapper(void*);
  17:src/../h/syscall_cpp.hpp ****     //static int sleep()
  18:src/../h/syscall_cpp.hpp ****     //static void threadWrapper(void*)
  19:src/../h/syscall_cpp.hpp **** protected:
  20:src/../h/syscall_cpp.hpp ****     Thread();
  21:src/../h/syscall_cpp.hpp ****     virtual void run(){}
  13              		.loc 1 21 18
  14              		.cfi_startproc
  15              	.LVL0:
  16 0000 130101FF 		addi	sp,sp,-16
  17              		.cfi_def_cfa_offset 16
  18 0004 23348100 		sd	s0,8(sp)
  19              		.cfi_offset 8, -8
  20 0008 13040101 		addi	s0,sp,16
  21              		.cfi_def_cfa 8, 0
  22              		.loc 1 21 24 is_stmt 0
  23 000c 03348100 		ld	s0,8(sp)
  24              		.cfi_restore 8
  25              		.cfi_def_cfa 2, 16
  26 0010 13010101 		addi	sp,sp,16
  27              		.cfi_def_cfa_offset 0
  28 0014 67800000 		jr	ra
  29              		.cfi_endproc
  30              	.LFE0:
  32              		.text
  33              		.align	2
  34              		.globl	_ZN6Thread10thrwrapperEPv
  36              	_ZN6Thread10thrwrapperEPv:
  37              	.LFB14:
  38              		.file 2 "src/syscall_cpp.cpp"
   1:src/syscall_cpp.cpp **** //
GAS LISTING /tmp/ccLwz5Q3.s 			page 2


   2:src/syscall_cpp.cpp **** // Created by os on 4/6/23.
   3:src/syscall_cpp.cpp **** //
   4:src/syscall_cpp.cpp **** #include "../h/syscall_cpp.hpp"
   5:src/syscall_cpp.cpp **** #include "../h/printing.hpp"
   6:src/syscall_cpp.cpp **** Thread ::Thread(void (*body)(void *), void *arg) {
   7:src/syscall_cpp.cpp ****     this->arg = arg;
   8:src/syscall_cpp.cpp ****     this->body = body;
   9:src/syscall_cpp.cpp ****     this->myHandle = nullptr;
  10:src/syscall_cpp.cpp **** }
  11:src/syscall_cpp.cpp **** 
  12:src/syscall_cpp.cpp **** Thread :: ~Thread(){
  13:src/syscall_cpp.cpp **** 
  14:src/syscall_cpp.cpp ****     //if(myHandle)thread_exit();
  15:src/syscall_cpp.cpp **** 
  16:src/syscall_cpp.cpp ****     delete &myHandle;
  17:src/syscall_cpp.cpp **** 
  18:src/syscall_cpp.cpp **** }
  19:src/syscall_cpp.cpp **** 
  20:src/syscall_cpp.cpp **** int Thread::start() {
  21:src/syscall_cpp.cpp ****     thread_create(&myHandle,this->body,this->arg);
  22:src/syscall_cpp.cpp ****     return 0;
  23:src/syscall_cpp.cpp **** }
  24:src/syscall_cpp.cpp **** 
  25:src/syscall_cpp.cpp **** void Thread::dispatch() {
  26:src/syscall_cpp.cpp ****     thread_dispatch();
  27:src/syscall_cpp.cpp **** }
  28:src/syscall_cpp.cpp **** Thread ::Thread() {
  29:src/syscall_cpp.cpp ****     //kasnije sa wrapperom nesto sredi
  30:src/syscall_cpp.cpp ****     myHandle = nullptr;
  31:src/syscall_cpp.cpp ****     this->body = Thread :: thrwrapper;
  32:src/syscall_cpp.cpp ****     this->arg = (void*)this;
  33:src/syscall_cpp.cpp **** }
  34:src/syscall_cpp.cpp **** void Thread ::thrwrapper(void * thread) {
  39              		.loc 2 34 41 is_stmt 1
  40              		.cfi_startproc
  41              	.LVL1:
  42 0000 130101FF 		addi	sp,sp,-16
  43              		.cfi_def_cfa_offset 16
  44 0004 23341100 		sd	ra,8(sp)
  45 0008 23308100 		sd	s0,0(sp)
  46              		.cfi_offset 1, -8
  47              		.cfi_offset 8, -16
  48 000c 13040101 		addi	s0,sp,16
  49              		.cfi_def_cfa 8, 0
  35:src/syscall_cpp.cpp ****     ((Thread*)thread)->run();
  50              		.loc 2 35 5
  51              		.loc 2 35 28 is_stmt 0
  52 0010 83370500 		ld	a5,0(a0)
  53 0014 83B70701 		ld	a5,16(a5)
  54              		.loc 2 35 27
  55 0018 E7800700 		jalr	a5
  56              	.LVL2:
  36:src/syscall_cpp.cpp **** }
  57              		.loc 2 36 1
  58 001c 83308100 		ld	ra,8(sp)
  59              		.cfi_restore 1
  60 0020 03340100 		ld	s0,0(sp)
GAS LISTING /tmp/ccLwz5Q3.s 			page 3


  61              		.cfi_restore 8
  62              		.cfi_def_cfa 2, 16
  63 0024 13010101 		addi	sp,sp,16
  64              		.cfi_def_cfa_offset 0
  65 0028 67800000 		jr	ra
  66              		.cfi_endproc
  67              	.LFE14:
  69              		.align	2
  70              		.globl	_ZN6ThreadD2Ev
  72              	_ZN6ThreadD2Ev:
  73              	.LFB6:
  12:src/syscall_cpp.cpp **** 
  74              		.loc 2 12 1 is_stmt 1
  75              		.cfi_startproc
  76              	.LVL3:
  77              	.LBB2:
  12:src/syscall_cpp.cpp **** 
  78              		.loc 2 12 19 is_stmt 0
  79 002c 97070000 		lla	a5,_ZTV6Thread+16
  79      93870700 
  80 0034 2330F500 		sd	a5,0(a0)
  16:src/syscall_cpp.cpp **** 
  81              		.loc 2 16 5 is_stmt 1
  16:src/syscall_cpp.cpp **** 
  82              		.loc 2 16 12 is_stmt 0
  83 0038 13058500 		addi	a0,a0,8
  84              	.LVL4:
  16:src/syscall_cpp.cpp **** 
  85              		.loc 2 16 21
  86 003c 63060502 		beqz	a0,.L8
  87              	.LBE2:
  12:src/syscall_cpp.cpp **** 
  88              		.loc 2 12 1 discriminator 1
  89 0040 130101FF 		addi	sp,sp,-16
  90              		.cfi_def_cfa_offset 16
  91 0044 23341100 		sd	ra,8(sp)
  92 0048 23308100 		sd	s0,0(sp)
  93              		.cfi_offset 1, -8
  94              		.cfi_offset 8, -16
  95 004c 13040101 		addi	s0,sp,16
  96              		.cfi_def_cfa 8, 0
  97              	.LBB3:
  16:src/syscall_cpp.cpp **** 
  98              		.loc 2 16 13 discriminator 1
  99 0050 97000000 		call	_ZdlPv@plt
  99      E7800000 
 100              	.LVL5:
 101              	.LBE3:
  18:src/syscall_cpp.cpp **** 
 102              		.loc 2 18 1 discriminator 1
 103 0058 83308100 		ld	ra,8(sp)
 104              		.cfi_restore 1
 105 005c 03340100 		ld	s0,0(sp)
 106              		.cfi_restore 8
 107              		.cfi_def_cfa 2, 16
 108 0060 13010101 		addi	sp,sp,16
 109              		.cfi_def_cfa_offset 0
GAS LISTING /tmp/ccLwz5Q3.s 			page 4


 110 0064 67800000 		jr	ra
 111              	.L8:
 112 0068 67800000 		ret
 113              		.cfi_endproc
 114              	.LFE6:
 116              		.globl	_ZN6ThreadD1Ev
 117              		.set	_ZN6ThreadD1Ev,_ZN6ThreadD2Ev
 118              		.align	2
 119              		.globl	_ZN6ThreadD0Ev
 121              	_ZN6ThreadD0Ev:
 122              	.LFB8:
  12:src/syscall_cpp.cpp **** 
 123              		.loc 2 12 1 is_stmt 1
 124              		.cfi_startproc
 125              	.LVL6:
 126 006c 130101FE 		addi	sp,sp,-32
 127              		.cfi_def_cfa_offset 32
 128 0070 233C1100 		sd	ra,24(sp)
 129 0074 23388100 		sd	s0,16(sp)
 130 0078 23349100 		sd	s1,8(sp)
 131              		.cfi_offset 1, -8
 132              		.cfi_offset 8, -16
 133              		.cfi_offset 9, -24
 134 007c 13040102 		addi	s0,sp,32
 135              		.cfi_def_cfa 8, 0
 136 0080 93040500 		mv	s1,a0
  18:src/syscall_cpp.cpp **** 
 137              		.loc 2 18 1 is_stmt 0
 138 0084 97000000 		call	_ZN6ThreadD1Ev
 138      E7800000 
 139              	.LVL7:
 140 008c 13850400 		mv	a0,s1
 141 0090 97000000 		call	_ZdlPv@plt
 141      E7800000 
 142              	.LVL8:
 143 0098 83308101 		ld	ra,24(sp)
 144              		.cfi_restore 1
 145 009c 03340101 		ld	s0,16(sp)
 146              		.cfi_restore 8
 147              		.cfi_def_cfa 2, 32
 148 00a0 83348100 		ld	s1,8(sp)
 149              		.cfi_restore 9
 150              	.LVL9:
 151 00a4 13010102 		addi	sp,sp,32
 152              		.cfi_def_cfa_offset 0
 153 00a8 67800000 		jr	ra
 154              		.cfi_endproc
 155              	.LFE8:
 157              		.align	2
 158              		.globl	_ZN9SemaphoreD2Ev
 160              	_ZN9SemaphoreD2Ev:
 161              	.LFB20:
  37:src/syscall_cpp.cpp **** 
  38:src/syscall_cpp.cpp **** 
  39:src/syscall_cpp.cpp **** void Thread ::join() {
  40:src/syscall_cpp.cpp ****     thread_join(&myHandle);
  41:src/syscall_cpp.cpp **** }
GAS LISTING /tmp/ccLwz5Q3.s 			page 5


  42:src/syscall_cpp.cpp **** 
  43:src/syscall_cpp.cpp **** Semaphore ::Semaphore(unsigned int init) {
  44:src/syscall_cpp.cpp ****     sem_open(&myHandle,init);
  45:src/syscall_cpp.cpp **** }
  46:src/syscall_cpp.cpp **** Semaphore ::~Semaphore() {
 162              		.loc 2 46 1 is_stmt 1
 163              		.cfi_startproc
 164              		.cfi_personality 0x9b,DW.ref.__gxx_personality_v0
 165              		.cfi_lsda 0x1b,.LLSDA20
 166              	.LVL10:
 167 00ac 130101FE 		addi	sp,sp,-32
 168              		.cfi_def_cfa_offset 32
 169 00b0 233C1100 		sd	ra,24(sp)
 170 00b4 23388100 		sd	s0,16(sp)
 171 00b8 23349100 		sd	s1,8(sp)
 172              		.cfi_offset 1, -8
 173              		.cfi_offset 8, -16
 174              		.cfi_offset 9, -24
 175 00bc 13040102 		addi	s0,sp,32
 176              		.cfi_def_cfa 8, 0
 177 00c0 93040500 		mv	s1,a0
 178              	.LBB4:
 179              		.loc 2 46 24 is_stmt 0
 180 00c4 97070000 		lla	a5,_ZTV9Semaphore+16
 180      93870700 
 181 00cc 2330F500 		sd	a5,0(a0)
  47:src/syscall_cpp.cpp ****     sem_close(myHandle);
 182              		.loc 2 47 5 is_stmt 1
 183              		.loc 2 47 14 is_stmt 0
 184 00d0 03358500 		ld	a0,8(a0)
 185              	.LVL11:
 186 00d4 97000000 		call	_Z9sem_closeP4_sem@plt
 186      E7800000 
 187              	.LVL12:
  48:src/syscall_cpp.cpp ****     delete &myHandle;
 188              		.loc 2 48 5 is_stmt 1
 189              		.loc 2 48 12 is_stmt 0
 190 00dc 13858400 		addi	a0,s1,8
 191              		.loc 2 48 21
 192 00e0 63060500 		beqz	a0,.L13
 193              		.loc 2 48 13 discriminator 1
 194 00e4 97000000 		call	_ZdlPv@plt
 194      E7800000 
 195              	.LVL13:
 196              	.L13:
 197              	.LBE4:
  49:src/syscall_cpp.cpp **** 
  50:src/syscall_cpp.cpp **** }
 198              		.loc 2 50 1
 199 00ec 83308101 		ld	ra,24(sp)
 200              		.cfi_restore 1
 201 00f0 03340101 		ld	s0,16(sp)
 202              		.cfi_restore 8
 203              		.cfi_def_cfa 2, 32
 204 00f4 83348100 		ld	s1,8(sp)
 205              		.cfi_restore 9
 206              	.LVL14:
GAS LISTING /tmp/ccLwz5Q3.s 			page 6


 207 00f8 13010102 		addi	sp,sp,32
 208              		.cfi_def_cfa_offset 0
 209 00fc 67800000 		jr	ra
 210              		.cfi_endproc
 211              	.LFE20:
 212              		.globl	__gxx_personality_v0
 213              		.section	.gcc_except_table,"a",@progbits
 214              	.LLSDA20:
 215 0000 FF       		.byte	0xff
 216 0001 FF       		.byte	0xff
 217 0002 03       		.byte	0x3
 218 0003 00       		.byte	0
 219              		.text
 221              		.globl	_ZN9SemaphoreD1Ev
 222              		.set	_ZN9SemaphoreD1Ev,_ZN9SemaphoreD2Ev
 223              		.align	2
 224              		.globl	_ZN9SemaphoreD0Ev
 226              	_ZN9SemaphoreD0Ev:
 227              	.LFB22:
  46:src/syscall_cpp.cpp ****     sem_close(myHandle);
 228              		.loc 2 46 1 is_stmt 1
 229              		.cfi_startproc
 230              	.LVL15:
 231 0100 130101FE 		addi	sp,sp,-32
 232              		.cfi_def_cfa_offset 32
 233 0104 233C1100 		sd	ra,24(sp)
 234 0108 23388100 		sd	s0,16(sp)
 235 010c 23349100 		sd	s1,8(sp)
 236              		.cfi_offset 1, -8
 237              		.cfi_offset 8, -16
 238              		.cfi_offset 9, -24
 239 0110 13040102 		addi	s0,sp,32
 240              		.cfi_def_cfa 8, 0
 241 0114 93040500 		mv	s1,a0
 242              		.loc 2 50 1 is_stmt 0
 243 0118 97000000 		call	_ZN9SemaphoreD1Ev
 243      E7800000 
 244              	.LVL16:
 245 0120 13850400 		mv	a0,s1
 246 0124 97000000 		call	_ZdlPv@plt
 246      E7800000 
 247              	.LVL17:
 248 012c 83308101 		ld	ra,24(sp)
 249              		.cfi_restore 1
 250 0130 03340101 		ld	s0,16(sp)
 251              		.cfi_restore 8
 252              		.cfi_def_cfa 2, 32
 253 0134 83348100 		ld	s1,8(sp)
 254              		.cfi_restore 9
 255              	.LVL18:
 256 0138 13010102 		addi	sp,sp,32
 257              		.cfi_def_cfa_offset 0
 258 013c 67800000 		jr	ra
 259              		.cfi_endproc
 260              	.LFE22:
 262              		.align	2
 263              		.globl	_ZN6ThreadC2EPFvPvES0_
GAS LISTING /tmp/ccLwz5Q3.s 			page 7


 265              	_ZN6ThreadC2EPFvPvES0_:
 266              	.LFB3:
   6:src/syscall_cpp.cpp ****     this->arg = arg;
 267              		.loc 2 6 1 is_stmt 1
 268              		.cfi_startproc
 269              	.LVL19:
 270 0140 130101FF 		addi	sp,sp,-16
 271              		.cfi_def_cfa_offset 16
 272 0144 23348100 		sd	s0,8(sp)
 273              		.cfi_offset 8, -8
 274 0148 13040101 		addi	s0,sp,16
 275              		.cfi_def_cfa 8, 0
 276              	.LBB5:
   6:src/syscall_cpp.cpp ****     this->arg = arg;
 277              		.loc 2 6 48 is_stmt 0
 278 014c 97070000 		lla	a5,_ZTV6Thread+16
 278      93870700 
 279 0154 2330F500 		sd	a5,0(a0)
   7:src/syscall_cpp.cpp ****     this->body = body;
 280              		.loc 2 7 5 is_stmt 1
   7:src/syscall_cpp.cpp ****     this->body = body;
 281              		.loc 2 7 15 is_stmt 0
 282 0158 233CC500 		sd	a2,24(a0)
   8:src/syscall_cpp.cpp ****     this->myHandle = nullptr;
 283              		.loc 2 8 5 is_stmt 1
   8:src/syscall_cpp.cpp ****     this->myHandle = nullptr;
 284              		.loc 2 8 16 is_stmt 0
 285 015c 2338B500 		sd	a1,16(a0)
   9:src/syscall_cpp.cpp **** }
 286              		.loc 2 9 5 is_stmt 1
   9:src/syscall_cpp.cpp **** }
 287              		.loc 2 9 20 is_stmt 0
 288 0160 23340500 		sd	zero,8(a0)
 289              	.LBE5:
  10:src/syscall_cpp.cpp **** 
 290              		.loc 2 10 1
 291 0164 03348100 		ld	s0,8(sp)
 292              		.cfi_restore 8
 293              		.cfi_def_cfa 2, 16
 294 0168 13010101 		addi	sp,sp,16
 295              		.cfi_def_cfa_offset 0
 296 016c 67800000 		jr	ra
 297              		.cfi_endproc
 298              	.LFE3:
 300              		.globl	_ZN6ThreadC1EPFvPvES0_
 301              		.set	_ZN6ThreadC1EPFvPvES0_,_ZN6ThreadC2EPFvPvES0_
 302              		.align	2
 303              		.globl	_ZN6Thread5startEv
 305              	_ZN6Thread5startEv:
 306              	.LFB9:
  20:src/syscall_cpp.cpp ****     thread_create(&myHandle,this->body,this->arg);
 307              		.loc 2 20 21 is_stmt 1
 308              		.cfi_startproc
 309              	.LVL20:
 310 0170 130101FF 		addi	sp,sp,-16
 311              		.cfi_def_cfa_offset 16
 312 0174 23341100 		sd	ra,8(sp)
GAS LISTING /tmp/ccLwz5Q3.s 			page 8


 313 0178 23308100 		sd	s0,0(sp)
 314              		.cfi_offset 1, -8
 315              		.cfi_offset 8, -16
 316 017c 13040101 		addi	s0,sp,16
 317              		.cfi_def_cfa 8, 0
  21:src/syscall_cpp.cpp ****     return 0;
 318              		.loc 2 21 5
  21:src/syscall_cpp.cpp ****     return 0;
 319              		.loc 2 21 18 is_stmt 0
 320 0180 03368501 		ld	a2,24(a0)
 321 0184 83350501 		ld	a1,16(a0)
 322 0188 13058500 		addi	a0,a0,8
 323              	.LVL21:
 324 018c 97000000 		call	_Z13thread_createPP7_threadPFvPvES2_@plt
 324      E7800000 
 325              	.LVL22:
  22:src/syscall_cpp.cpp **** }
 326              		.loc 2 22 5 is_stmt 1
  23:src/syscall_cpp.cpp **** 
 327              		.loc 2 23 1 is_stmt 0
 328 0194 13050000 		li	a0,0
 329 0198 83308100 		ld	ra,8(sp)
 330              		.cfi_restore 1
 331 019c 03340100 		ld	s0,0(sp)
 332              		.cfi_restore 8
 333              		.cfi_def_cfa 2, 16
 334 01a0 13010101 		addi	sp,sp,16
 335              		.cfi_def_cfa_offset 0
 336 01a4 67800000 		jr	ra
 337              		.cfi_endproc
 338              	.LFE9:
 340              		.align	2
 341              		.globl	_ZN6Thread8dispatchEv
 343              	_ZN6Thread8dispatchEv:
 344              	.LFB10:
  25:src/syscall_cpp.cpp ****     thread_dispatch();
 345              		.loc 2 25 25 is_stmt 1
 346              		.cfi_startproc
 347 01a8 130101FF 		addi	sp,sp,-16
 348              		.cfi_def_cfa_offset 16
 349 01ac 23341100 		sd	ra,8(sp)
 350 01b0 23308100 		sd	s0,0(sp)
 351              		.cfi_offset 1, -8
 352              		.cfi_offset 8, -16
 353 01b4 13040101 		addi	s0,sp,16
 354              		.cfi_def_cfa 8, 0
  26:src/syscall_cpp.cpp **** }
 355              		.loc 2 26 5
  26:src/syscall_cpp.cpp **** }
 356              		.loc 2 26 20 is_stmt 0
 357 01b8 97000000 		call	_Z15thread_dispatchv@plt
 357      E7800000 
 358              	.LVL23:
  27:src/syscall_cpp.cpp **** Thread ::Thread() {
 359              		.loc 2 27 1
 360 01c0 83308100 		ld	ra,8(sp)
 361              		.cfi_restore 1
GAS LISTING /tmp/ccLwz5Q3.s 			page 9


 362 01c4 03340100 		ld	s0,0(sp)
 363              		.cfi_restore 8
 364              		.cfi_def_cfa 2, 16
 365 01c8 13010101 		addi	sp,sp,16
 366              		.cfi_def_cfa_offset 0
 367 01cc 67800000 		jr	ra
 368              		.cfi_endproc
 369              	.LFE10:
 371              		.align	2
 372              		.globl	_ZN6ThreadC2Ev
 374              	_ZN6ThreadC2Ev:
 375              	.LFB12:
  28:src/syscall_cpp.cpp ****     //kasnije sa wrapperom nesto sredi
 376              		.loc 2 28 1 is_stmt 1
 377              		.cfi_startproc
 378              	.LVL24:
 379 01d0 130101FF 		addi	sp,sp,-16
 380              		.cfi_def_cfa_offset 16
 381 01d4 23348100 		sd	s0,8(sp)
 382              		.cfi_offset 8, -8
 383 01d8 13040101 		addi	s0,sp,16
 384              		.cfi_def_cfa 8, 0
 385              	.LBB6:
  28:src/syscall_cpp.cpp ****     //kasnije sa wrapperom nesto sredi
 386              		.loc 2 28 17 is_stmt 0
 387 01dc 97070000 		lla	a5,_ZTV6Thread+16
 387      93870700 
 388 01e4 2330F500 		sd	a5,0(a0)
  30:src/syscall_cpp.cpp ****     this->body = Thread :: thrwrapper;
 389              		.loc 2 30 5 is_stmt 1
  30:src/syscall_cpp.cpp ****     this->body = Thread :: thrwrapper;
 390              		.loc 2 30 14 is_stmt 0
 391 01e8 23340500 		sd	zero,8(a0)
  31:src/syscall_cpp.cpp ****     this->arg = (void*)this;
 392              		.loc 2 31 5 is_stmt 1
  31:src/syscall_cpp.cpp ****     this->arg = (void*)this;
 393              		.loc 2 31 16 is_stmt 0
 394 01ec 97070000 		lla	a5,_ZN6Thread10thrwrapperEPv
 394      93870700 
 395 01f4 2338F500 		sd	a5,16(a0)
  32:src/syscall_cpp.cpp **** }
 396              		.loc 2 32 5 is_stmt 1
  32:src/syscall_cpp.cpp **** }
 397              		.loc 2 32 15 is_stmt 0
 398 01f8 233CA500 		sd	a0,24(a0)
 399              	.LBE6:
  33:src/syscall_cpp.cpp **** void Thread ::thrwrapper(void * thread) {
 400              		.loc 2 33 1
 401 01fc 03348100 		ld	s0,8(sp)
 402              		.cfi_restore 8
 403              		.cfi_def_cfa 2, 16
 404 0200 13010101 		addi	sp,sp,16
 405              		.cfi_def_cfa_offset 0
 406 0204 67800000 		jr	ra
 407              		.cfi_endproc
 408              	.LFE12:
 410              		.globl	_ZN6ThreadC1Ev
GAS LISTING /tmp/ccLwz5Q3.s 			page 10


 411              		.set	_ZN6ThreadC1Ev,_ZN6ThreadC2Ev
 412              		.align	2
 413              		.globl	_ZN6Thread4joinEv
 415              	_ZN6Thread4joinEv:
 416              	.LFB15:
  39:src/syscall_cpp.cpp ****     thread_join(&myHandle);
 417              		.loc 2 39 22 is_stmt 1
 418              		.cfi_startproc
 419              	.LVL25:
 420 0208 130101FF 		addi	sp,sp,-16
 421              		.cfi_def_cfa_offset 16
 422 020c 23341100 		sd	ra,8(sp)
 423 0210 23308100 		sd	s0,0(sp)
 424              		.cfi_offset 1, -8
 425              		.cfi_offset 8, -16
 426 0214 13040101 		addi	s0,sp,16
 427              		.cfi_def_cfa 8, 0
  40:src/syscall_cpp.cpp **** }
 428              		.loc 2 40 5
  40:src/syscall_cpp.cpp **** }
 429              		.loc 2 40 16 is_stmt 0
 430 0218 13058500 		addi	a0,a0,8
 431              	.LVL26:
 432 021c 97000000 		call	_Z11thread_joinPP7_thread@plt
 432      E7800000 
 433              	.LVL27:
  41:src/syscall_cpp.cpp **** 
 434              		.loc 2 41 1
 435 0224 83308100 		ld	ra,8(sp)
 436              		.cfi_restore 1
 437 0228 03340100 		ld	s0,0(sp)
 438              		.cfi_restore 8
 439              		.cfi_def_cfa 2, 16
 440 022c 13010101 		addi	sp,sp,16
 441              		.cfi_def_cfa_offset 0
 442 0230 67800000 		jr	ra
 443              		.cfi_endproc
 444              	.LFE15:
 446              		.align	2
 447              		.globl	_ZN9SemaphoreC2Ej
 449              	_ZN9SemaphoreC2Ej:
 450              	.LFB17:
  43:src/syscall_cpp.cpp ****     sem_open(&myHandle,init);
 451              		.loc 2 43 1 is_stmt 1
 452              		.cfi_startproc
 453              	.LVL28:
 454 0234 130101FF 		addi	sp,sp,-16
 455              		.cfi_def_cfa_offset 16
 456 0238 23341100 		sd	ra,8(sp)
 457 023c 23308100 		sd	s0,0(sp)
 458              		.cfi_offset 1, -8
 459              		.cfi_offset 8, -16
 460 0240 13040101 		addi	s0,sp,16
 461              		.cfi_def_cfa 8, 0
 462              	.LBB7:
  43:src/syscall_cpp.cpp ****     sem_open(&myHandle,init);
 463              		.loc 2 43 40 is_stmt 0
GAS LISTING /tmp/ccLwz5Q3.s 			page 11


 464 0244 97070000 		lla	a5,_ZTV9Semaphore+16
 464      93870700 
 465 024c 2330F500 		sd	a5,0(a0)
  44:src/syscall_cpp.cpp **** }
 466              		.loc 2 44 5 is_stmt 1
  44:src/syscall_cpp.cpp **** }
 467              		.loc 2 44 13 is_stmt 0
 468 0250 13058500 		addi	a0,a0,8
 469              	.LVL29:
 470 0254 97000000 		call	_Z8sem_openPP4_semj@plt
 470      E7800000 
 471              	.LVL30:
 472              	.LBE7:
  45:src/syscall_cpp.cpp **** Semaphore ::~Semaphore() {
 473              		.loc 2 45 1
 474 025c 83308100 		ld	ra,8(sp)
 475              		.cfi_restore 1
 476 0260 03340100 		ld	s0,0(sp)
 477              		.cfi_restore 8
 478              		.cfi_def_cfa 2, 16
 479 0264 13010101 		addi	sp,sp,16
 480              		.cfi_def_cfa_offset 0
 481 0268 67800000 		jr	ra
 482              		.cfi_endproc
 483              	.LFE17:
 485              		.globl	_ZN9SemaphoreC1Ej
 486              		.set	_ZN9SemaphoreC1Ej,_ZN9SemaphoreC2Ej
 487              		.align	2
 488              		.globl	_ZN9Semaphore4waitEv
 490              	_ZN9Semaphore4waitEv:
 491              	.LFB23:
  51:src/syscall_cpp.cpp **** int Semaphore ::wait() {
 492              		.loc 2 51 24 is_stmt 1
 493              		.cfi_startproc
 494              	.LVL31:
 495 026c 130101FF 		addi	sp,sp,-16
 496              		.cfi_def_cfa_offset 16
 497 0270 23341100 		sd	ra,8(sp)
 498 0274 23308100 		sd	s0,0(sp)
 499              		.cfi_offset 1, -8
 500              		.cfi_offset 8, -16
 501 0278 13040101 		addi	s0,sp,16
 502              		.cfi_def_cfa 8, 0
  52:src/syscall_cpp.cpp ****     return sem_wait(myHandle);
 503              		.loc 2 52 5
 504              		.loc 2 52 20 is_stmt 0
 505 027c 03358500 		ld	a0,8(a0)
 506              	.LVL32:
 507 0280 97000000 		call	_Z8sem_waitP4_sem@plt
 507      E7800000 
 508              	.LVL33:
  53:src/syscall_cpp.cpp **** }
 509              		.loc 2 53 1
 510 0288 83308100 		ld	ra,8(sp)
 511              		.cfi_restore 1
 512 028c 03340100 		ld	s0,0(sp)
 513              		.cfi_restore 8
GAS LISTING /tmp/ccLwz5Q3.s 			page 12


 514              		.cfi_def_cfa 2, 16
 515 0290 13010101 		addi	sp,sp,16
 516              		.cfi_def_cfa_offset 0
 517 0294 67800000 		jr	ra
 518              		.cfi_endproc
 519              	.LFE23:
 521              		.align	2
 522              		.globl	_ZN9Semaphore6signalEv
 524              	_ZN9Semaphore6signalEv:
 525              	.LFB24:
  54:src/syscall_cpp.cpp **** 
  55:src/syscall_cpp.cpp **** int Semaphore ::signal() {
 526              		.loc 2 55 26 is_stmt 1
 527              		.cfi_startproc
 528              	.LVL34:
 529 0298 130101FF 		addi	sp,sp,-16
 530              		.cfi_def_cfa_offset 16
 531 029c 23341100 		sd	ra,8(sp)
 532 02a0 23308100 		sd	s0,0(sp)
 533              		.cfi_offset 1, -8
 534              		.cfi_offset 8, -16
 535 02a4 13040101 		addi	s0,sp,16
 536              		.cfi_def_cfa 8, 0
  56:src/syscall_cpp.cpp ****     return sem_signal(myHandle);
 537              		.loc 2 56 5
 538              		.loc 2 56 22 is_stmt 0
 539 02a8 03358500 		ld	a0,8(a0)
 540              	.LVL35:
 541 02ac 97000000 		call	_Z10sem_signalP4_sem@plt
 541      E7800000 
 542              	.LVL36:
  57:src/syscall_cpp.cpp **** }
 543              		.loc 2 57 1
 544 02b4 83308100 		ld	ra,8(sp)
 545              		.cfi_restore 1
 546 02b8 03340100 		ld	s0,0(sp)
 547              		.cfi_restore 8
 548              		.cfi_def_cfa 2, 16
 549 02bc 13010101 		addi	sp,sp,16
 550              		.cfi_def_cfa_offset 0
 551 02c0 67800000 		jr	ra
 552              		.cfi_endproc
 553              	.LFE24:
 555              		.align	2
 556              		.globl	_ZN7Console4getcEv
 558              	_ZN7Console4getcEv:
 559              	.LFB25:
  58:src/syscall_cpp.cpp **** 
  59:src/syscall_cpp.cpp **** char Console ::getc() {
 560              		.loc 2 59 23 is_stmt 1
 561              		.cfi_startproc
 562 02c4 130101FF 		addi	sp,sp,-16
 563              		.cfi_def_cfa_offset 16
 564 02c8 23341100 		sd	ra,8(sp)
 565 02cc 23308100 		sd	s0,0(sp)
 566              		.cfi_offset 1, -8
 567              		.cfi_offset 8, -16
GAS LISTING /tmp/ccLwz5Q3.s 			page 13


 568 02d0 13040101 		addi	s0,sp,16
 569              		.cfi_def_cfa 8, 0
  60:src/syscall_cpp.cpp ****     return ::getc();
 570              		.loc 2 60 5
 571              		.loc 2 60 18 is_stmt 0
 572 02d4 97000000 		call	_Z4getcv@plt
 572      E7800000 
 573              	.LVL37:
  61:src/syscall_cpp.cpp **** }
 574              		.loc 2 61 1
 575 02dc 83308100 		ld	ra,8(sp)
 576              		.cfi_restore 1
 577 02e0 03340100 		ld	s0,0(sp)
 578              		.cfi_restore 8
 579              		.cfi_def_cfa 2, 16
 580 02e4 13010101 		addi	sp,sp,16
 581              		.cfi_def_cfa_offset 0
 582 02e8 67800000 		jr	ra
 583              		.cfi_endproc
 584              	.LFE25:
 586              		.align	2
 587              		.globl	_ZN7Console4putcEc
 589              	_ZN7Console4putcEc:
 590              	.LFB26:
  62:src/syscall_cpp.cpp **** 
  63:src/syscall_cpp.cpp **** void Console ::putc(char c) {
 591              		.loc 2 63 29 is_stmt 1
 592              		.cfi_startproc
 593              	.LVL38:
 594 02ec 130101FF 		addi	sp,sp,-16
 595              		.cfi_def_cfa_offset 16
 596 02f0 23341100 		sd	ra,8(sp)
 597 02f4 23308100 		sd	s0,0(sp)
 598              		.cfi_offset 1, -8
 599              		.cfi_offset 8, -16
 600 02f8 13040101 		addi	s0,sp,16
 601              		.cfi_def_cfa 8, 0
  64:src/syscall_cpp.cpp ****     return ::putc(c);
 602              		.loc 2 64 5
 603              		.loc 2 64 18 is_stmt 0
 604 02fc 97000000 		call	_Z4putcc@plt
 604      E7800000 
 605              	.LVL39:
  65:src/syscall_cpp.cpp **** }...
 606              		.loc 2 65 1
 607 0304 83308100 		ld	ra,8(sp)
 608              		.cfi_restore 1
 609 0308 03340100 		ld	s0,0(sp)
 610              		.cfi_restore 8
 611              		.cfi_def_cfa 2, 16
 612 030c 13010101 		addi	sp,sp,16
 613              		.cfi_def_cfa_offset 0
 614 0310 67800000 		jr	ra
 615              		.cfi_endproc
 616              	.LFE26:
 618              		.weak	_ZTV6Thread
 619              		.section	.data.rel.ro.local._ZTV6Thread,"awG",@progbits,_ZTV6Thread,comdat
GAS LISTING /tmp/ccLwz5Q3.s 			page 14


 620              		.align	3
 623              	_ZTV6Thread:
 624 0000 00000000 		.dword	0
 624      00000000 
 625 0008 00000000 		.dword	0
 625      00000000 
 626 0010 00000000 		.dword	_ZN6ThreadD1Ev
 626      00000000 
 627 0018 00000000 		.dword	_ZN6ThreadD0Ev
 627      00000000 
 628 0020 00000000 		.dword	_ZN6Thread3runEv
 628      00000000 
 629              		.weak	_ZTV9Semaphore
 630              		.section	.data.rel.ro.local._ZTV9Semaphore,"awG",@progbits,_ZTV9Semaphore,comdat
 631              		.align	3
 634              	_ZTV9Semaphore:
 635 0000 00000000 		.dword	0
 635      00000000 
 636 0008 00000000 		.dword	0
 636      00000000 
 637 0010 00000000 		.dword	_ZN9SemaphoreD1Ev
 637      00000000 
 638 0018 00000000 		.dword	_ZN9SemaphoreD0Ev
 638      00000000 
 639              		.text
 640              	.Letext0:
 641              		.file 3 "src/../h/../h/../lib/hw.h"
 642              		.file 4 "src/../h/../h/syscall_c.h"
 2815              		.align	3
 2818              	DW.ref.__gxx_personality_v0:
 2819 0000 00000000 		.dword	__gxx_personality_v0
 2819      00000000 
 2820              		.ident	"GCC: (Ubuntu 9.4.0-1ubuntu1~20.04) 9.4.0"
 2821              		.section	.note.GNU-stack,"",@progbits
GAS LISTING /tmp/ccLwz5Q3.s 			page 15

